
/home/ckq/LCMHalMCPServer/testcases/zephyr_ble_official_contrib/build/zephyr_ble_test.elf:     file format elf32-littlearm


Disassembly of section .text:

00000100 <strlen>:
     100:	b430      	push	{r4, r5}
     102:	f890 f000 	pld	[r0]
     106:	f020 0107 	bic.w	r1, r0, #7
     10a:	f06f 0c00 	mvn.w	ip, #0
     10e:	f010 0407 	ands.w	r4, r0, #7
     112:	f891 f020 	pld	[r1, #32]
     116:	f040 8048 	bne.w	1aa <strlen+0xaa>
     11a:	f04f 0400 	mov.w	r4, #0
     11e:	f06f 0007 	mvn.w	r0, #7
     122:	e9d1 2300 	ldrd	r2, r3, [r1]
     126:	f891 f040 	pld	[r1, #64]	@ 0x40
     12a:	f100 0008 	add.w	r0, r0, #8
     12e:	fa82 f24c 	uadd8	r2, r2, ip
     132:	faa4 f28c 	sel	r2, r4, ip
     136:	fa83 f34c 	uadd8	r3, r3, ip
     13a:	faa2 f38c 	sel	r3, r2, ip
     13e:	bb4b      	cbnz	r3, 194 <strlen+0x94>
     140:	e9d1 2302 	ldrd	r2, r3, [r1, #8]
     144:	fa82 f24c 	uadd8	r2, r2, ip
     148:	f100 0008 	add.w	r0, r0, #8
     14c:	faa4 f28c 	sel	r2, r4, ip
     150:	fa83 f34c 	uadd8	r3, r3, ip
     154:	faa2 f38c 	sel	r3, r2, ip
     158:	b9e3      	cbnz	r3, 194 <strlen+0x94>
     15a:	e9d1 2304 	ldrd	r2, r3, [r1, #16]
     15e:	fa82 f24c 	uadd8	r2, r2, ip
     162:	f100 0008 	add.w	r0, r0, #8
     166:	faa4 f28c 	sel	r2, r4, ip
     16a:	fa83 f34c 	uadd8	r3, r3, ip
     16e:	faa2 f38c 	sel	r3, r2, ip
     172:	b97b      	cbnz	r3, 194 <strlen+0x94>
     174:	e9d1 2306 	ldrd	r2, r3, [r1, #24]
     178:	f101 0120 	add.w	r1, r1, #32
     17c:	fa82 f24c 	uadd8	r2, r2, ip
     180:	f100 0008 	add.w	r0, r0, #8
     184:	faa4 f28c 	sel	r2, r4, ip
     188:	fa83 f34c 	uadd8	r3, r3, ip
     18c:	faa2 f38c 	sel	r3, r2, ip
     190:	2b00      	cmp	r3, #0
     192:	d0c6      	beq.n	122 <strlen+0x22>
     194:	2a00      	cmp	r2, #0
     196:	bf04      	itt	eq
     198:	3004      	addeq	r0, #4
     19a:	461a      	moveq	r2, r3
     19c:	ba12      	rev	r2, r2
     19e:	fab2 f282 	clz	r2, r2
     1a2:	eb00 00d2 	add.w	r0, r0, r2, lsr #3
     1a6:	bc30      	pop	{r4, r5}
     1a8:	4770      	bx	lr
     1aa:	e9d1 2300 	ldrd	r2, r3, [r1]
     1ae:	f004 0503 	and.w	r5, r4, #3
     1b2:	f1c4 0000 	rsb	r0, r4, #0
     1b6:	ea4f 05c5 	mov.w	r5, r5, lsl #3
     1ba:	f014 0f04 	tst.w	r4, #4
     1be:	f891 f040 	pld	[r1, #64]	@ 0x40
     1c2:	fa0c f505 	lsl.w	r5, ip, r5
     1c6:	ea62 0205 	orn	r2, r2, r5
     1ca:	bf1c      	itt	ne
     1cc:	ea63 0305 	ornne	r3, r3, r5
     1d0:	4662      	movne	r2, ip
     1d2:	f04f 0400 	mov.w	r4, #0
     1d6:	e7aa      	b.n	12e <strlen+0x2e>

000001d8 <vsnprintf>:
     1d8:	b510      	push	{r4, lr}
     1da:	4c1c      	ldr	r4, [pc, #112]	@ (24c <vsnprintf+0x74>)
     1dc:	2900      	cmp	r1, #0
     1de:	6824      	ldr	r4, [r4, #0]
     1e0:	b09a      	sub	sp, #104	@ 0x68
     1e2:	db2d      	blt.n	240 <vsnprintf+0x68>
     1e4:	9000      	str	r0, [sp, #0]
     1e6:	9004      	str	r0, [sp, #16]
     1e8:	f44f 7002 	mov.w	r0, #520	@ 0x208
     1ec:	f8ad 000c 	strh.w	r0, [sp, #12]
     1f0:	f04f 0000 	mov.w	r0, #0
     1f4:	9019      	str	r0, [sp, #100]	@ 0x64
     1f6:	d013      	beq.n	220 <vsnprintf+0x48>
     1f8:	3901      	subs	r1, #1
     1fa:	f64f 70ff 	movw	r0, #65535	@ 0xffff
     1fe:	9102      	str	r1, [sp, #8]
     200:	9105      	str	r1, [sp, #20]
     202:	f8ad 000e 	strh.w	r0, [sp, #14]
     206:	4669      	mov	r1, sp
     208:	4620      	mov	r0, r4
     20a:	f000 f85d 	bl	2c8 <_svfprintf_r>
     20e:	1c42      	adds	r2, r0, #1
     210:	da01      	bge.n	216 <vsnprintf+0x3e>
     212:	238b      	movs	r3, #139	@ 0x8b
     214:	6023      	str	r3, [r4, #0]
     216:	9b00      	ldr	r3, [sp, #0]
     218:	2200      	movs	r2, #0
     21a:	701a      	strb	r2, [r3, #0]
     21c:	b01a      	add	sp, #104	@ 0x68
     21e:	bd10      	pop	{r4, pc}
     220:	f64f 70ff 	movw	r0, #65535	@ 0xffff
     224:	9102      	str	r1, [sp, #8]
     226:	9105      	str	r1, [sp, #20]
     228:	f8ad 000e 	strh.w	r0, [sp, #14]
     22c:	4669      	mov	r1, sp
     22e:	4620      	mov	r0, r4
     230:	f000 f84a 	bl	2c8 <_svfprintf_r>
     234:	1c43      	adds	r3, r0, #1
     236:	da01      	bge.n	23c <vsnprintf+0x64>
     238:	238b      	movs	r3, #139	@ 0x8b
     23a:	6023      	str	r3, [r4, #0]
     23c:	b01a      	add	sp, #104	@ 0x68
     23e:	bd10      	pop	{r4, pc}
     240:	238b      	movs	r3, #139	@ 0x8b
     242:	6023      	str	r3, [r4, #0]
     244:	f04f 30ff 	mov.w	r0, #4294967295	@ 0xffffffff
     248:	e7f8      	b.n	23c <vsnprintf+0x64>
     24a:	bf00      	nop
     24c:	20000000 	.word	0x20000000

00000250 <_vsnprintf_r>:
     250:	b530      	push	{r4, r5, lr}
     252:	4614      	mov	r4, r2
     254:	2c00      	cmp	r4, #0
     256:	b09b      	sub	sp, #108	@ 0x6c
     258:	4605      	mov	r5, r0
     25a:	db2e      	blt.n	2ba <_vsnprintf_r+0x6a>
     25c:	461a      	mov	r2, r3
     25e:	f44f 7302 	mov.w	r3, #520	@ 0x208
     262:	f8ad 300c 	strh.w	r3, [sp, #12]
     266:	f04f 0300 	mov.w	r3, #0
     26a:	9100      	str	r1, [sp, #0]
     26c:	9104      	str	r1, [sp, #16]
     26e:	9319      	str	r3, [sp, #100]	@ 0x64
     270:	d013      	beq.n	29a <_vsnprintf_r+0x4a>
     272:	f64f 73ff 	movw	r3, #65535	@ 0xffff
     276:	3c01      	subs	r4, #1
     278:	f8ad 300e 	strh.w	r3, [sp, #14]
     27c:	4669      	mov	r1, sp
     27e:	9b1e      	ldr	r3, [sp, #120]	@ 0x78
     280:	9402      	str	r4, [sp, #8]
     282:	9405      	str	r4, [sp, #20]
     284:	f000 f820 	bl	2c8 <_svfprintf_r>
     288:	1c42      	adds	r2, r0, #1
     28a:	da01      	bge.n	290 <_vsnprintf_r+0x40>
     28c:	238b      	movs	r3, #139	@ 0x8b
     28e:	602b      	str	r3, [r5, #0]
     290:	9b00      	ldr	r3, [sp, #0]
     292:	2200      	movs	r2, #0
     294:	701a      	strb	r2, [r3, #0]
     296:	b01b      	add	sp, #108	@ 0x6c
     298:	bd30      	pop	{r4, r5, pc}
     29a:	f64f 73ff 	movw	r3, #65535	@ 0xffff
     29e:	f8ad 300e 	strh.w	r3, [sp, #14]
     2a2:	4669      	mov	r1, sp
     2a4:	9b1e      	ldr	r3, [sp, #120]	@ 0x78
     2a6:	9402      	str	r4, [sp, #8]
     2a8:	9405      	str	r4, [sp, #20]
     2aa:	f000 f80d 	bl	2c8 <_svfprintf_r>
     2ae:	1c43      	adds	r3, r0, #1
     2b0:	da01      	bge.n	2b6 <_vsnprintf_r+0x66>
     2b2:	238b      	movs	r3, #139	@ 0x8b
     2b4:	602b      	str	r3, [r5, #0]
     2b6:	b01b      	add	sp, #108	@ 0x6c
     2b8:	bd30      	pop	{r4, r5, pc}
     2ba:	238b      	movs	r3, #139	@ 0x8b
     2bc:	6003      	str	r3, [r0, #0]
     2be:	f04f 30ff 	mov.w	r0, #4294967295	@ 0xffffffff
     2c2:	e7f8      	b.n	2b6 <_vsnprintf_r+0x66>
     2c4:	0000      	movs	r0, r0
	...

000002c8 <_svfprintf_r>:
     2c8:	e92d 4ff0 	stmdb	sp!, {r4, r5, r6, r7, r8, r9, sl, fp, lr}
     2cc:	b0bf      	sub	sp, #252	@ 0xfc
     2ce:	460c      	mov	r4, r1
     2d0:	9107      	str	r1, [sp, #28]
     2d2:	4692      	mov	sl, r2
     2d4:	9309      	str	r3, [sp, #36]	@ 0x24
     2d6:	9008      	str	r0, [sp, #32]
     2d8:	f003 fdd8 	bl	3e8c <_localeconv_r>
     2dc:	6803      	ldr	r3, [r0, #0]
     2de:	9310      	str	r3, [sp, #64]	@ 0x40
     2e0:	4618      	mov	r0, r3
     2e2:	f7ff ff0d 	bl	100 <strlen>
     2e6:	89a3      	ldrh	r3, [r4, #12]
     2e8:	900f      	str	r0, [sp, #60]	@ 0x3c
     2ea:	061e      	lsls	r6, r3, #24
     2ec:	d503      	bpl.n	2f6 <_svfprintf_r+0x2e>
     2ee:	6923      	ldr	r3, [r4, #16]
     2f0:	2b00      	cmp	r3, #0
     2f2:	f000 86a8 	beq.w	1046 <_svfprintf_r+0xd7e>
     2f6:	ed9f 7ba4 	vldr	d7, [pc, #656]	@ 588 <_svfprintf_r+0x2c0>
     2fa:	2300      	movs	r3, #0
     2fc:	e9cd 3322 	strd	r3, r3, [sp, #136]	@ 0x88
     300:	e9cd 3311 	strd	r3, r3, [sp, #68]	@ 0x44
     304:	ed8d 7b0c 	vstr	d7, [sp, #48]	@ 0x30
     308:	aa2e      	add	r2, sp, #184	@ 0xb8
     30a:	930e      	str	r3, [sp, #56]	@ 0x38
     30c:	9221      	str	r2, [sp, #132]	@ 0x84
     30e:	4691      	mov	r9, r2
     310:	9305      	str	r3, [sp, #20]
     312:	46d3      	mov	fp, sl
     314:	f89b 3000 	ldrb.w	r3, [fp]
     318:	2b00      	cmp	r3, #0
     31a:	f000 8142 	beq.w	5a2 <_svfprintf_r+0x2da>
     31e:	465c      	mov	r4, fp
     320:	e004      	b.n	32c <_svfprintf_r+0x64>
     322:	f814 3f01 	ldrb.w	r3, [r4, #1]!
     326:	2b00      	cmp	r3, #0
     328:	f000 8119 	beq.w	55e <_svfprintf_r+0x296>
     32c:	2b25      	cmp	r3, #37	@ 0x25
     32e:	d1f8      	bne.n	322 <_svfprintf_r+0x5a>
     330:	ebb4 050b 	subs.w	r5, r4, fp
     334:	f040 8116 	bne.w	564 <_svfprintf_r+0x29c>
     338:	7823      	ldrb	r3, [r4, #0]
     33a:	2b00      	cmp	r3, #0
     33c:	f000 8131 	beq.w	5a2 <_svfprintf_r+0x2da>
     340:	f04f 0300 	mov.w	r3, #0
     344:	f88d 3067 	strb.w	r3, [sp, #103]	@ 0x67
     348:	2700      	movs	r7, #0
     34a:	7863      	ldrb	r3, [r4, #1]
     34c:	9704      	str	r7, [sp, #16]
     34e:	f104 0b01 	add.w	fp, r4, #1
     352:	f04f 3aff 	mov.w	sl, #4294967295	@ 0xffffffff
     356:	f10b 0b01 	add.w	fp, fp, #1
     35a:	4698      	mov	r8, r3
     35c:	f1a8 0320 	sub.w	r3, r8, #32
     360:	2b58      	cmp	r3, #88	@ 0x58
     362:	f200 812b 	bhi.w	5bc <_svfprintf_r+0x2f4>
     366:	e8df f013 	tbh	[pc, r3, lsl #1]
     36a:	0252      	.short	0x0252
     36c:	01290129 	.word	0x01290129
     370:	0129024d 	.word	0x0129024d
     374:	01290129 	.word	0x01290129
     378:	01290129 	.word	0x01290129
     37c:	02150129 	.word	0x02150129
     380:	01290247 	.word	0x01290247
     384:	02250220 	.word	0x02250220
     388:	02420129 	.word	0x02420129
     38c:	00590059 	.word	0x00590059
     390:	00590059 	.word	0x00590059
     394:	00590059 	.word	0x00590059
     398:	00590059 	.word	0x00590059
     39c:	01290059 	.word	0x01290059
     3a0:	01290129 	.word	0x01290129
     3a4:	01290129 	.word	0x01290129
     3a8:	01290129 	.word	0x01290129
     3ac:	01290129 	.word	0x01290129
     3b0:	00680129 	.word	0x00680129
     3b4:	012901a4 	.word	0x012901a4
     3b8:	012901a4 	.word	0x012901a4
     3bc:	01290129 	.word	0x01290129
     3c0:	027d0129 	.word	0x027d0129
     3c4:	01290129 	.word	0x01290129
     3c8:	01290095 	.word	0x01290095
     3cc:	01290129 	.word	0x01290129
     3d0:	01290129 	.word	0x01290129
     3d4:	012900a6 	.word	0x012900a6
     3d8:	06460129 	.word	0x06460129
     3dc:	01290129 	.word	0x01290129
     3e0:	01290129 	.word	0x01290129
     3e4:	01290129 	.word	0x01290129
     3e8:	01290129 	.word	0x01290129
     3ec:	01290129 	.word	0x01290129
     3f0:	006a026f 	.word	0x006a026f
     3f4:	01a401a4 	.word	0x01a401a4
     3f8:	026a01a4 	.word	0x026a01a4
     3fc:	0129006a 	.word	0x0129006a
     400:	025d0129 	.word	0x025d0129
     404:	02b90129 	.word	0x02b90129
     408:	02a80097 	.word	0x02a80097
     40c:	012902a3 	.word	0x012902a3
     410:	01290282 	.word	0x01290282
     414:	012900a8 	.word	0x012900a8
     418:	06660129 	.word	0x06660129
     41c:	f1a8 0330 	sub.w	r3, r8, #48	@ 0x30
     420:	2200      	movs	r2, #0
     422:	f81b 8b01 	ldrb.w	r8, [fp], #1
     426:	eb02 0282 	add.w	r2, r2, r2, lsl #2
     42a:	eb03 0242 	add.w	r2, r3, r2, lsl #1
     42e:	f1a8 0330 	sub.w	r3, r8, #48	@ 0x30
     432:	2b09      	cmp	r3, #9
     434:	d9f5      	bls.n	422 <_svfprintf_r+0x15a>
     436:	9204      	str	r2, [sp, #16]
     438:	e790      	b.n	35c <_svfprintf_r+0x94>
     43a:	f047 0710 	orr.w	r7, r7, #16
     43e:	06bd      	lsls	r5, r7, #26
     440:	f140 8177 	bpl.w	732 <_svfprintf_r+0x46a>
     444:	9b09      	ldr	r3, [sp, #36]	@ 0x24
     446:	3307      	adds	r3, #7
     448:	f023 0307 	bic.w	r3, r3, #7
     44c:	461a      	mov	r2, r3
     44e:	6859      	ldr	r1, [r3, #4]
     450:	f852 3b08 	ldr.w	r3, [r2], #8
     454:	9209      	str	r2, [sp, #36]	@ 0x24
     456:	460a      	mov	r2, r1
     458:	2900      	cmp	r1, #0
     45a:	f2c0 8195 	blt.w	788 <_svfprintf_r+0x4c0>
     45e:	f1ba 0f00 	cmp.w	sl, #0
     462:	f89d 4067 	ldrb.w	r4, [sp, #103]	@ 0x67
     466:	db07      	blt.n	478 <_svfprintf_r+0x1b0>
     468:	f027 0180 	bic.w	r1, r7, #128	@ 0x80
     46c:	9102      	str	r1, [sp, #8]
     46e:	ea53 0102 	orrs.w	r1, r3, r2
     472:	f000 83b2 	beq.w	bda <_svfprintf_r+0x912>
     476:	9f02      	ldr	r7, [sp, #8]
     478:	2b0a      	cmp	r3, #10
     47a:	f172 0100 	sbcs.w	r1, r2, #0
     47e:	f080 866d 	bcs.w	115c <_svfprintf_r+0xe94>
     482:	3330      	adds	r3, #48	@ 0x30
     484:	f88d 30b7 	strb.w	r3, [sp, #183]	@ 0xb7
     488:	2301      	movs	r3, #1
     48a:	9702      	str	r7, [sp, #8]
     48c:	9306      	str	r3, [sp, #24]
     48e:	f10d 05b7 	add.w	r5, sp, #183	@ 0xb7
     492:	e050      	b.n	536 <_svfprintf_r+0x26e>
     494:	f047 0710 	orr.w	r7, r7, #16
     498:	f017 0220 	ands.w	r2, r7, #32
     49c:	f000 8160 	beq.w	760 <_svfprintf_r+0x498>
     4a0:	9b09      	ldr	r3, [sp, #36]	@ 0x24
     4a2:	3307      	adds	r3, #7
     4a4:	f023 0307 	bic.w	r3, r3, #7
     4a8:	4619      	mov	r1, r3
     4aa:	685a      	ldr	r2, [r3, #4]
     4ac:	f851 3b08 	ldr.w	r3, [r1], #8
     4b0:	9109      	str	r1, [sp, #36]	@ 0x24
     4b2:	2100      	movs	r1, #0
     4b4:	e00f      	b.n	4d6 <_svfprintf_r+0x20e>
     4b6:	f047 0710 	orr.w	r7, r7, #16
     4ba:	f017 0220 	ands.w	r2, r7, #32
     4be:	f000 8145 	beq.w	74c <_svfprintf_r+0x484>
     4c2:	9b09      	ldr	r3, [sp, #36]	@ 0x24
     4c4:	3307      	adds	r3, #7
     4c6:	f023 0307 	bic.w	r3, r3, #7
     4ca:	4619      	mov	r1, r3
     4cc:	685a      	ldr	r2, [r3, #4]
     4ce:	f851 3b08 	ldr.w	r3, [r1], #8
     4d2:	9109      	str	r1, [sp, #36]	@ 0x24
     4d4:	2101      	movs	r1, #1
     4d6:	2400      	movs	r4, #0
     4d8:	f1ba 0f00 	cmp.w	sl, #0
     4dc:	f88d 4067 	strb.w	r4, [sp, #103]	@ 0x67
     4e0:	db07      	blt.n	4f2 <_svfprintf_r+0x22a>
     4e2:	f027 0080 	bic.w	r0, r7, #128	@ 0x80
     4e6:	9002      	str	r0, [sp, #8]
     4e8:	ea53 0002 	orrs.w	r0, r3, r2
     4ec:	f000 8376 	beq.w	bdc <_svfprintf_r+0x914>
     4f0:	9f02      	ldr	r7, [sp, #8]
     4f2:	2901      	cmp	r1, #1
     4f4:	d0c0      	beq.n	478 <_svfprintf_r+0x1b0>
     4f6:	2902      	cmp	r1, #2
     4f8:	f000 82f1 	beq.w	ade <_svfprintf_r+0x816>
     4fc:	ad2e      	add	r5, sp, #184	@ 0xb8
     4fe:	f003 0107 	and.w	r1, r3, #7
     502:	08db      	lsrs	r3, r3, #3
     504:	ea43 7342 	orr.w	r3, r3, r2, lsl #29
     508:	08d2      	lsrs	r2, r2, #3
     50a:	3130      	adds	r1, #48	@ 0x30
     50c:	ea53 0602 	orrs.w	r6, r3, r2
     510:	4628      	mov	r0, r5
     512:	f805 1d01 	strb.w	r1, [r5, #-1]!
     516:	d1f2      	bne.n	4fe <_svfprintf_r+0x236>
     518:	07fb      	lsls	r3, r7, #31
     51a:	f140 82ee 	bpl.w	afa <_svfprintf_r+0x832>
     51e:	2930      	cmp	r1, #48	@ 0x30
     520:	f000 82eb 	beq.w	afa <_svfprintf_r+0x832>
     524:	2330      	movs	r3, #48	@ 0x30
     526:	3802      	subs	r0, #2
     528:	f805 3c01 	strb.w	r3, [r5, #-1]
     52c:	ab2e      	add	r3, sp, #184	@ 0xb8
     52e:	1a1b      	subs	r3, r3, r0
     530:	9702      	str	r7, [sp, #8]
     532:	9306      	str	r3, [sp, #24]
     534:	4605      	mov	r5, r0
     536:	9b06      	ldr	r3, [sp, #24]
     538:	4553      	cmp	r3, sl
     53a:	bfb8      	it	lt
     53c:	4653      	movlt	r3, sl
     53e:	9303      	str	r3, [sp, #12]
     540:	2300      	movs	r3, #0
     542:	930b      	str	r3, [sp, #44]	@ 0x2c
     544:	b114      	cbz	r4, 54c <_svfprintf_r+0x284>
     546:	9b03      	ldr	r3, [sp, #12]
     548:	3301      	adds	r3, #1
     54a:	9303      	str	r3, [sp, #12]
     54c:	9b02      	ldr	r3, [sp, #8]
     54e:	f013 0302 	ands.w	r3, r3, #2
     552:	d045      	beq.n	5e0 <_svfprintf_r+0x318>
     554:	9b03      	ldr	r3, [sp, #12]
     556:	3302      	adds	r3, #2
     558:	9303      	str	r3, [sp, #12]
     55a:	2302      	movs	r3, #2
     55c:	e040      	b.n	5e0 <_svfprintf_r+0x318>
     55e:	ebb4 050b 	subs.w	r5, r4, fp
     562:	d01e      	beq.n	5a2 <_svfprintf_r+0x2da>
     564:	9b23      	ldr	r3, [sp, #140]	@ 0x8c
     566:	442b      	add	r3, r5
     568:	9323      	str	r3, [sp, #140]	@ 0x8c
     56a:	9b22      	ldr	r3, [sp, #136]	@ 0x88
     56c:	3301      	adds	r3, #1
     56e:	2b07      	cmp	r3, #7
     570:	e9c9 b500 	strd	fp, r5, [r9]
     574:	9322      	str	r3, [sp, #136]	@ 0x88
     576:	dc0b      	bgt.n	590 <_svfprintf_r+0x2c8>
     578:	f109 0908 	add.w	r9, r9, #8
     57c:	9b05      	ldr	r3, [sp, #20]
     57e:	442b      	add	r3, r5
     580:	9305      	str	r3, [sp, #20]
     582:	e6d9      	b.n	338 <_svfprintf_r+0x70>
     584:	f3af 8000 	nop.w
	...
     590:	e9dd 1007 	ldrd	r1, r0, [sp, #28]
     594:	aa21      	add	r2, sp, #132	@ 0x84
     596:	f002 fe43 	bl	3220 <__ssprint_r>
     59a:	b930      	cbnz	r0, 5aa <_svfprintf_r+0x2e2>
     59c:	f10d 09b8 	add.w	r9, sp, #184	@ 0xb8
     5a0:	e7ec      	b.n	57c <_svfprintf_r+0x2b4>
     5a2:	9b23      	ldr	r3, [sp, #140]	@ 0x8c
     5a4:	2b00      	cmp	r3, #0
     5a6:	f040 873c 	bne.w	1422 <_svfprintf_r+0x115a>
     5aa:	9b07      	ldr	r3, [sp, #28]
     5ac:	899b      	ldrh	r3, [r3, #12]
     5ae:	065b      	lsls	r3, r3, #25
     5b0:	f101 800c 	bmi.w	15cc <_svfprintf_r+0x1304>
     5b4:	9805      	ldr	r0, [sp, #20]
     5b6:	b03f      	add	sp, #252	@ 0xfc
     5b8:	e8bd 8ff0 	ldmia.w	sp!, {r4, r5, r6, r7, r8, r9, sl, fp, pc}
     5bc:	f1b8 0f00 	cmp.w	r8, #0
     5c0:	d0ef      	beq.n	5a2 <_svfprintf_r+0x2da>
     5c2:	2300      	movs	r3, #0
     5c4:	f88d 3067 	strb.w	r3, [sp, #103]	@ 0x67
     5c8:	2301      	movs	r3, #1
     5ca:	f88d 8090 	strb.w	r8, [sp, #144]	@ 0x90
     5ce:	9303      	str	r3, [sp, #12]
     5d0:	9306      	str	r3, [sp, #24]
     5d2:	ad24      	add	r5, sp, #144	@ 0x90
     5d4:	f04f 0a00 	mov.w	sl, #0
     5d8:	9702      	str	r7, [sp, #8]
     5da:	f8cd a02c 	str.w	sl, [sp, #44]	@ 0x2c
     5de:	4653      	mov	r3, sl
     5e0:	9a02      	ldr	r2, [sp, #8]
     5e2:	9c23      	ldr	r4, [sp, #140]	@ 0x8c
     5e4:	f012 0284 	ands.w	r2, r2, #132	@ 0x84
     5e8:	920a      	str	r2, [sp, #40]	@ 0x28
     5ea:	d105      	bne.n	5f8 <_svfprintf_r+0x330>
     5ec:	e9dd 1203 	ldrd	r1, r2, [sp, #12]
     5f0:	1a56      	subs	r6, r2, r1
     5f2:	2e00      	cmp	r6, #0
     5f4:	f300 8304 	bgt.w	c00 <_svfprintf_r+0x938>
     5f8:	f89d 2067 	ldrb.w	r2, [sp, #103]	@ 0x67
     5fc:	b18a      	cbz	r2, 622 <_svfprintf_r+0x35a>
     5fe:	9a22      	ldr	r2, [sp, #136]	@ 0x88
     600:	f10d 0167 	add.w	r1, sp, #103	@ 0x67
     604:	3201      	adds	r2, #1
     606:	3401      	adds	r4, #1
     608:	f8c9 1000 	str.w	r1, [r9]
     60c:	2a07      	cmp	r2, #7
     60e:	f04f 0101 	mov.w	r1, #1
     612:	9423      	str	r4, [sp, #140]	@ 0x8c
     614:	9222      	str	r2, [sp, #136]	@ 0x88
     616:	f8c9 1004 	str.w	r1, [r9, #4]
     61a:	f300 832a 	bgt.w	c72 <_svfprintf_r+0x9aa>
     61e:	f109 0908 	add.w	r9, r9, #8
     622:	b183      	cbz	r3, 646 <_svfprintf_r+0x37e>
     624:	9a22      	ldr	r2, [sp, #136]	@ 0x88
     626:	a91a      	add	r1, sp, #104	@ 0x68
     628:	3201      	adds	r2, #1
     62a:	3402      	adds	r4, #2
     62c:	f8c9 1000 	str.w	r1, [r9]
     630:	2a07      	cmp	r2, #7
     632:	f04f 0102 	mov.w	r1, #2
     636:	9423      	str	r4, [sp, #140]	@ 0x8c
     638:	9222      	str	r2, [sp, #136]	@ 0x88
     63a:	f8c9 1004 	str.w	r1, [r9, #4]
     63e:	f300 8326 	bgt.w	c8e <_svfprintf_r+0x9c6>
     642:	f109 0908 	add.w	r9, r9, #8
     646:	9b0a      	ldr	r3, [sp, #40]	@ 0x28
     648:	2b80      	cmp	r3, #128	@ 0x80
     64a:	f000 81bd 	beq.w	9c8 <_svfprintf_r+0x700>
     64e:	9b06      	ldr	r3, [sp, #24]
     650:	ebaa 0603 	sub.w	r6, sl, r3
     654:	2e00      	cmp	r6, #0
     656:	f300 81f9 	bgt.w	a4c <_svfprintf_r+0x784>
     65a:	9b02      	ldr	r3, [sp, #8]
     65c:	05de      	lsls	r6, r3, #23
     65e:	f100 814a 	bmi.w	8f6 <_svfprintf_r+0x62e>
     662:	9b06      	ldr	r3, [sp, #24]
     664:	f8c9 3004 	str.w	r3, [r9, #4]
     668:	441c      	add	r4, r3
     66a:	9b22      	ldr	r3, [sp, #136]	@ 0x88
     66c:	f8c9 5000 	str.w	r5, [r9]
     670:	3301      	adds	r3, #1
     672:	2b07      	cmp	r3, #7
     674:	9423      	str	r4, [sp, #140]	@ 0x8c
     676:	9322      	str	r3, [sp, #136]	@ 0x88
     678:	f300 8258 	bgt.w	b2c <_svfprintf_r+0x864>
     67c:	f109 0908 	add.w	r9, r9, #8
     680:	9b02      	ldr	r3, [sp, #8]
     682:	075a      	lsls	r2, r3, #29
     684:	d505      	bpl.n	692 <_svfprintf_r+0x3ca>
     686:	e9dd 2303 	ldrd	r2, r3, [sp, #12]
     68a:	1a9d      	subs	r5, r3, r2
     68c:	2d00      	cmp	r5, #0
     68e:	f300 830a 	bgt.w	ca6 <_svfprintf_r+0x9de>
     692:	e9dd 2304 	ldrd	r2, r3, [sp, #16]
     696:	9903      	ldr	r1, [sp, #12]
     698:	428a      	cmp	r2, r1
     69a:	bfac      	ite	ge
     69c:	189b      	addge	r3, r3, r2
     69e:	185b      	addlt	r3, r3, r1
     6a0:	9305      	str	r3, [sp, #20]
     6a2:	2c00      	cmp	r4, #0
     6a4:	f040 822e 	bne.w	b04 <_svfprintf_r+0x83c>
     6a8:	2300      	movs	r3, #0
     6aa:	9322      	str	r3, [sp, #136]	@ 0x88
     6ac:	f10d 09b8 	add.w	r9, sp, #184	@ 0xb8
     6b0:	e630      	b.n	314 <_svfprintf_r+0x4c>
     6b2:	9b09      	ldr	r3, [sp, #36]	@ 0x24
     6b4:	3307      	adds	r3, #7
     6b6:	f023 0307 	bic.w	r3, r3, #7
     6ba:	ecb3 7b02 	vldmia	r3!, {d7}
     6be:	ec55 4b17 	vmov	r4, r5, d7
     6c2:	9309      	str	r3, [sp, #36]	@ 0x24
     6c4:	f025 4300 	bic.w	r3, r5, #2147483648	@ 0x80000000
     6c8:	9315      	str	r3, [sp, #84]	@ 0x54
     6ca:	ed8d 7a14 	vstr	s14, [sp, #80]	@ 0x50
     6ce:	e9dd 0114 	ldrd	r0, r1, [sp, #80]	@ 0x50
     6d2:	4bb7      	ldr	r3, [pc, #732]	@ (9b0 <_svfprintf_r+0x6e8>)
     6d4:	f04f 32ff 	mov.w	r2, #4294967295	@ 0xffffffff
     6d8:	ed8d 7b0c 	vstr	d7, [sp, #48]	@ 0x30
     6dc:	f005 ff0e 	bl	64fc <__aeabi_dcmpun>
     6e0:	2800      	cmp	r0, #0
     6e2:	f040 8410 	bne.w	f06 <_svfprintf_r+0xc3e>
     6e6:	e9dd 0114 	ldrd	r0, r1, [sp, #80]	@ 0x50
     6ea:	4bb1      	ldr	r3, [pc, #708]	@ (9b0 <_svfprintf_r+0x6e8>)
     6ec:	f04f 32ff 	mov.w	r2, #4294967295	@ 0xffffffff
     6f0:	f005 fee6 	bl	64c0 <__aeabi_dcmple>
     6f4:	2800      	cmp	r0, #0
     6f6:	f040 8406 	bne.w	f06 <_svfprintf_r+0xc3e>
     6fa:	2200      	movs	r2, #0
     6fc:	2300      	movs	r3, #0
     6fe:	4620      	mov	r0, r4
     700:	4629      	mov	r1, r5
     702:	f005 fed3 	bl	64ac <__aeabi_dcmplt>
     706:	2800      	cmp	r0, #0
     708:	f040 8625 	bne.w	1356 <_svfprintf_r+0x108e>
     70c:	f89d 4067 	ldrb.w	r4, [sp, #103]	@ 0x67
     710:	4da8      	ldr	r5, [pc, #672]	@ (9b4 <_svfprintf_r+0x6ec>)
     712:	f027 0380 	bic.w	r3, r7, #128	@ 0x80
     716:	9302      	str	r3, [sp, #8]
     718:	4ba7      	ldr	r3, [pc, #668]	@ (9b8 <_svfprintf_r+0x6f0>)
     71a:	f1b8 0f47 	cmp.w	r8, #71	@ 0x47
     71e:	bfd8      	it	le
     720:	461d      	movle	r5, r3
     722:	f04f 0a00 	mov.w	sl, #0
     726:	2303      	movs	r3, #3
     728:	9303      	str	r3, [sp, #12]
     72a:	9306      	str	r3, [sp, #24]
     72c:	f8cd a02c 	str.w	sl, [sp, #44]	@ 0x2c
     730:	e708      	b.n	544 <_svfprintf_r+0x27c>
     732:	9a09      	ldr	r2, [sp, #36]	@ 0x24
     734:	06fc      	lsls	r4, r7, #27
     736:	f852 3b04 	ldr.w	r3, [r2], #4
     73a:	9209      	str	r2, [sp, #36]	@ 0x24
     73c:	d41f      	bmi.n	77e <_svfprintf_r+0x4b6>
     73e:	0678      	lsls	r0, r7, #25
     740:	d51d      	bpl.n	77e <_svfprintf_r+0x4b6>
     742:	f343 32c0 	sbfx	r2, r3, #15, #1
     746:	4611      	mov	r1, r2
     748:	b21b      	sxth	r3, r3
     74a:	e685      	b.n	458 <_svfprintf_r+0x190>
     74c:	9909      	ldr	r1, [sp, #36]	@ 0x24
     74e:	f851 3b04 	ldr.w	r3, [r1], #4
     752:	9109      	str	r1, [sp, #36]	@ 0x24
     754:	f017 0110 	ands.w	r1, r7, #16
     758:	f000 83cd 	beq.w	ef6 <_svfprintf_r+0xc2e>
     75c:	2101      	movs	r1, #1
     75e:	e6ba      	b.n	4d6 <_svfprintf_r+0x20e>
     760:	9909      	ldr	r1, [sp, #36]	@ 0x24
     762:	f851 3b04 	ldr.w	r3, [r1], #4
     766:	9109      	str	r1, [sp, #36]	@ 0x24
     768:	f017 0110 	ands.w	r1, r7, #16
     76c:	f47f aea1 	bne.w	4b2 <_svfprintf_r+0x1ea>
     770:	f017 0240 	ands.w	r2, r7, #64	@ 0x40
     774:	f43f ae9d 	beq.w	4b2 <_svfprintf_r+0x1ea>
     778:	460a      	mov	r2, r1
     77a:	b29b      	uxth	r3, r3
     77c:	e699      	b.n	4b2 <_svfprintf_r+0x1ea>
     77e:	17da      	asrs	r2, r3, #31
     780:	4611      	mov	r1, r2
     782:	2900      	cmp	r1, #0
     784:	f6bf ae6b 	bge.w	45e <_svfprintf_r+0x196>
     788:	425b      	negs	r3, r3
     78a:	eb62 0242 	sbc.w	r2, r2, r2, lsl #1
     78e:	242d      	movs	r4, #45	@ 0x2d
     790:	2101      	movs	r1, #1
     792:	e6a1      	b.n	4d8 <_svfprintf_r+0x210>
     794:	9b09      	ldr	r3, [sp, #36]	@ 0x24
     796:	f853 2b04 	ldr.w	r2, [r3], #4
     79a:	9204      	str	r2, [sp, #16]
     79c:	2a00      	cmp	r2, #0
     79e:	f280 83a2 	bge.w	ee6 <_svfprintf_r+0xc1e>
     7a2:	9a04      	ldr	r2, [sp, #16]
     7a4:	9309      	str	r3, [sp, #36]	@ 0x24
     7a6:	4252      	negs	r2, r2
     7a8:	9204      	str	r2, [sp, #16]
     7aa:	f89b 3000 	ldrb.w	r3, [fp]
     7ae:	f047 0704 	orr.w	r7, r7, #4
     7b2:	e5d0      	b.n	356 <_svfprintf_r+0x8e>
     7b4:	465a      	mov	r2, fp
     7b6:	f812 8b01 	ldrb.w	r8, [r2], #1
     7ba:	f1b8 0f2a 	cmp.w	r8, #42	@ 0x2a
     7be:	f000 874e 	beq.w	165e <_svfprintf_r+0x1396>
     7c2:	f1a8 0330 	sub.w	r3, r8, #48	@ 0x30
     7c6:	2b09      	cmp	r3, #9
     7c8:	bf98      	it	ls
     7ca:	f04f 0a00 	movls.w	sl, #0
     7ce:	f200 86b9 	bhi.w	1544 <_svfprintf_r+0x127c>
     7d2:	f812 8b01 	ldrb.w	r8, [r2], #1
     7d6:	eb0a 0a8a 	add.w	sl, sl, sl, lsl #2
     7da:	eb03 0a4a 	add.w	sl, r3, sl, lsl #1
     7de:	f1a8 0330 	sub.w	r3, r8, #48	@ 0x30
     7e2:	2b09      	cmp	r3, #9
     7e4:	d9f5      	bls.n	7d2 <_svfprintf_r+0x50a>
     7e6:	ea4a 7aea 	orr.w	sl, sl, sl, asr #31
     7ea:	4693      	mov	fp, r2
     7ec:	e5b6      	b.n	35c <_svfprintf_r+0x94>
     7ee:	f89b 3000 	ldrb.w	r3, [fp]
     7f2:	f047 0780 	orr.w	r7, r7, #128	@ 0x80
     7f6:	e5ae      	b.n	356 <_svfprintf_r+0x8e>
     7f8:	232b      	movs	r3, #43	@ 0x2b
     7fa:	f88d 3067 	strb.w	r3, [sp, #103]	@ 0x67
     7fe:	f89b 3000 	ldrb.w	r3, [fp]
     802:	e5a8      	b.n	356 <_svfprintf_r+0x8e>
     804:	f89b 3000 	ldrb.w	r3, [fp]
     808:	f047 0701 	orr.w	r7, r7, #1
     80c:	e5a3      	b.n	356 <_svfprintf_r+0x8e>
     80e:	f89d 2067 	ldrb.w	r2, [sp, #103]	@ 0x67
     812:	f89b 3000 	ldrb.w	r3, [fp]
     816:	2a00      	cmp	r2, #0
     818:	f47f ad9d 	bne.w	356 <_svfprintf_r+0x8e>
     81c:	2220      	movs	r2, #32
     81e:	f88d 2067 	strb.w	r2, [sp, #103]	@ 0x67
     822:	e598      	b.n	356 <_svfprintf_r+0x8e>
     824:	f89b 3000 	ldrb.w	r3, [fp]
     828:	2b6c      	cmp	r3, #108	@ 0x6c
     82a:	bf03      	ittte	eq
     82c:	f89b 3001 	ldrbeq.w	r3, [fp, #1]
     830:	f047 0720 	orreq.w	r7, r7, #32
     834:	f10b 0b01 	addeq.w	fp, fp, #1
     838:	f047 0710 	orrne.w	r7, r7, #16
     83c:	e58b      	b.n	356 <_svfprintf_r+0x8e>
     83e:	f89b 3000 	ldrb.w	r3, [fp]
     842:	f047 0740 	orr.w	r7, r7, #64	@ 0x40
     846:	e586      	b.n	356 <_svfprintf_r+0x8e>
     848:	9b09      	ldr	r3, [sp, #36]	@ 0x24
     84a:	2200      	movs	r2, #0
     84c:	f88d 2067 	strb.w	r2, [sp, #103]	@ 0x67
     850:	f853 2b04 	ldr.w	r2, [r3], #4
     854:	9309      	str	r3, [sp, #36]	@ 0x24
     856:	2301      	movs	r3, #1
     858:	f88d 2090 	strb.w	r2, [sp, #144]	@ 0x90
     85c:	9303      	str	r3, [sp, #12]
     85e:	9306      	str	r3, [sp, #24]
     860:	ad24      	add	r5, sp, #144	@ 0x90
     862:	e6b7      	b.n	5d4 <_svfprintf_r+0x30c>
     864:	f89b 3000 	ldrb.w	r3, [fp]
     868:	f047 0708 	orr.w	r7, r7, #8
     86c:	e573      	b.n	356 <_svfprintf_r+0x8e>
     86e:	9c09      	ldr	r4, [sp, #36]	@ 0x24
     870:	f854 5b04 	ldr.w	r5, [r4], #4
     874:	2600      	movs	r6, #0
     876:	f88d 6067 	strb.w	r6, [sp, #103]	@ 0x67
     87a:	2d00      	cmp	r5, #0
     87c:	f000 8512 	beq.w	12a4 <_svfprintf_r+0xfdc>
     880:	f1ba 0f00 	cmp.w	sl, #0
     884:	f2c0 841a 	blt.w	10bc <_svfprintf_r+0xdf4>
     888:	4652      	mov	r2, sl
     88a:	4631      	mov	r1, r6
     88c:	4628      	mov	r0, r5
     88e:	f003 fb07 	bl	3ea0 <memchr>
     892:	2800      	cmp	r0, #0
     894:	f000 8645 	beq.w	1522 <_svfprintf_r+0x125a>
     898:	1b43      	subs	r3, r0, r5
     89a:	9306      	str	r3, [sp, #24]
     89c:	ea23 73e3 	bic.w	r3, r3, r3, asr #31
     8a0:	9409      	str	r4, [sp, #36]	@ 0x24
     8a2:	46b2      	mov	sl, r6
     8a4:	f89d 4067 	ldrb.w	r4, [sp, #103]	@ 0x67
     8a8:	9702      	str	r7, [sp, #8]
     8aa:	9303      	str	r3, [sp, #12]
     8ac:	960b      	str	r6, [sp, #44]	@ 0x2c
     8ae:	e649      	b.n	544 <_svfprintf_r+0x27c>
     8b0:	f89b 3000 	ldrb.w	r3, [fp]
     8b4:	f047 0720 	orr.w	r7, r7, #32
     8b8:	e54d      	b.n	356 <_svfprintf_r+0x8e>
     8ba:	9a09      	ldr	r2, [sp, #36]	@ 0x24
     8bc:	f852 3b04 	ldr.w	r3, [r2], #4
     8c0:	9209      	str	r2, [sp, #36]	@ 0x24
     8c2:	f647 0230 	movw	r2, #30768	@ 0x7830
     8c6:	f8ad 2068 	strh.w	r2, [sp, #104]	@ 0x68
     8ca:	4a3c      	ldr	r2, [pc, #240]	@ (9bc <_svfprintf_r+0x6f4>)
     8cc:	9211      	str	r2, [sp, #68]	@ 0x44
     8ce:	f047 0702 	orr.w	r7, r7, #2
     8d2:	2200      	movs	r2, #0
     8d4:	2102      	movs	r1, #2
     8d6:	f04f 0878 	mov.w	r8, #120	@ 0x78
     8da:	e5fc      	b.n	4d6 <_svfprintf_r+0x20e>
     8dc:	06bd      	lsls	r5, r7, #26
     8de:	f140 8381 	bpl.w	fe4 <_svfprintf_r+0xd1c>
     8e2:	9b09      	ldr	r3, [sp, #36]	@ 0x24
     8e4:	9a05      	ldr	r2, [sp, #20]
     8e6:	681b      	ldr	r3, [r3, #0]
     8e8:	601a      	str	r2, [r3, #0]
     8ea:	17d2      	asrs	r2, r2, #31
     8ec:	605a      	str	r2, [r3, #4]
     8ee:	9b09      	ldr	r3, [sp, #36]	@ 0x24
     8f0:	3304      	adds	r3, #4
     8f2:	9309      	str	r3, [sp, #36]	@ 0x24
     8f4:	e50e      	b.n	314 <_svfprintf_r+0x4c>
     8f6:	f1b8 0f65 	cmp.w	r8, #101	@ 0x65
     8fa:	f340 8123 	ble.w	b44 <_svfprintf_r+0x87c>
     8fe:	e9dd 010c 	ldrd	r0, r1, [sp, #48]	@ 0x30
     902:	2200      	movs	r2, #0
     904:	2300      	movs	r3, #0
     906:	f005 fdc7 	bl	6498 <__aeabi_dcmpeq>
     90a:	2800      	cmp	r0, #0
     90c:	f000 8207 	beq.w	d1e <_svfprintf_r+0xa56>
     910:	9b22      	ldr	r3, [sp, #136]	@ 0x88
     912:	4a2b      	ldr	r2, [pc, #172]	@ (9c0 <_svfprintf_r+0x6f8>)
     914:	f8c9 2000 	str.w	r2, [r9]
     918:	3301      	adds	r3, #1
     91a:	3401      	adds	r4, #1
     91c:	2201      	movs	r2, #1
     91e:	2b07      	cmp	r3, #7
     920:	9423      	str	r4, [sp, #140]	@ 0x8c
     922:	9322      	str	r3, [sp, #136]	@ 0x88
     924:	f8c9 2004 	str.w	r2, [r9, #4]
     928:	f300 8495 	bgt.w	1256 <_svfprintf_r+0xf8e>
     92c:	f109 0908 	add.w	r9, r9, #8
     930:	9b1b      	ldr	r3, [sp, #108]	@ 0x6c
     932:	9a0e      	ldr	r2, [sp, #56]	@ 0x38
     934:	4293      	cmp	r3, r2
     936:	db03      	blt.n	940 <_svfprintf_r+0x678>
     938:	9b02      	ldr	r3, [sp, #8]
     93a:	07dd      	lsls	r5, r3, #31
     93c:	f57f aea0 	bpl.w	680 <_svfprintf_r+0x3b8>
     940:	9b0f      	ldr	r3, [sp, #60]	@ 0x3c
     942:	9a10      	ldr	r2, [sp, #64]	@ 0x40
     944:	441c      	add	r4, r3
     946:	e9c9 2300 	strd	r2, r3, [r9]
     94a:	9b22      	ldr	r3, [sp, #136]	@ 0x88
     94c:	9423      	str	r4, [sp, #140]	@ 0x8c
     94e:	3301      	adds	r3, #1
     950:	2b07      	cmp	r3, #7
     952:	9322      	str	r3, [sp, #136]	@ 0x88
     954:	f300 8499 	bgt.w	128a <_svfprintf_r+0xfc2>
     958:	f109 0908 	add.w	r9, r9, #8
     95c:	9b0e      	ldr	r3, [sp, #56]	@ 0x38
     95e:	1e5d      	subs	r5, r3, #1
     960:	2d00      	cmp	r5, #0
     962:	f77f ae8d 	ble.w	680 <_svfprintf_r+0x3b8>
     966:	2d10      	cmp	r5, #16
     968:	9b22      	ldr	r3, [sp, #136]	@ 0x88
     96a:	4f16      	ldr	r7, [pc, #88]	@ (9c4 <_svfprintf_r+0x6fc>)
     96c:	f340 80d3 	ble.w	b16 <_svfprintf_r+0x84e>
     970:	e9dd a807 	ldrd	sl, r8, [sp, #28]
     974:	2610      	movs	r6, #16
     976:	e005      	b.n	984 <_svfprintf_r+0x6bc>
     978:	f109 0908 	add.w	r9, r9, #8
     97c:	3d10      	subs	r5, #16
     97e:	2d10      	cmp	r5, #16
     980:	f340 80c9 	ble.w	b16 <_svfprintf_r+0x84e>
     984:	3301      	adds	r3, #1
     986:	3410      	adds	r4, #16
     988:	2b07      	cmp	r3, #7
     98a:	e9c9 7600 	strd	r7, r6, [r9]
     98e:	e9cd 3422 	strd	r3, r4, [sp, #136]	@ 0x88
     992:	ddf1      	ble.n	978 <_svfprintf_r+0x6b0>
     994:	aa21      	add	r2, sp, #132	@ 0x84
     996:	4651      	mov	r1, sl
     998:	4640      	mov	r0, r8
     99a:	f002 fc41 	bl	3220 <__ssprint_r>
     99e:	2800      	cmp	r0, #0
     9a0:	f47f ae03 	bne.w	5aa <_svfprintf_r+0x2e2>
     9a4:	e9dd 3422 	ldrd	r3, r4, [sp, #136]	@ 0x88
     9a8:	f10d 09b8 	add.w	r9, sp, #184	@ 0xb8
     9ac:	e7e6      	b.n	97c <_svfprintf_r+0x6b4>
     9ae:	bf00      	nop
     9b0:	7fefffff 	.word	0x7fefffff
     9b4:	00007870 	.word	0x00007870
     9b8:	0000786c 	.word	0x0000786c
     9bc:	00007890 	.word	0x00007890
     9c0:	000078ac 	.word	0x000078ac
     9c4:	00006cf0 	.word	0x00006cf0
     9c8:	e9dd 2303 	ldrd	r2, r3, [sp, #12]
     9cc:	1a9e      	subs	r6, r3, r2
     9ce:	2e00      	cmp	r6, #0
     9d0:	f77f ae3d 	ble.w	64e <_svfprintf_r+0x386>
     9d4:	2e10      	cmp	r6, #16
     9d6:	9b22      	ldr	r3, [sp, #136]	@ 0x88
     9d8:	4fb7      	ldr	r7, [pc, #732]	@ (cb8 <_svfprintf_r+0x9f0>)
     9da:	dd24      	ble.n	a26 <_svfprintf_r+0x75e>
     9dc:	464a      	mov	r2, r9
     9de:	4621      	mov	r1, r4
     9e0:	46a9      	mov	r9, r5
     9e2:	e9dd 5407 	ldrd	r5, r4, [sp, #28]
     9e6:	e004      	b.n	9f2 <_svfprintf_r+0x72a>
     9e8:	3e10      	subs	r6, #16
     9ea:	2e10      	cmp	r6, #16
     9ec:	f102 0208 	add.w	r2, r2, #8
     9f0:	dd16      	ble.n	a20 <_svfprintf_r+0x758>
     9f2:	3301      	adds	r3, #1
     9f4:	3110      	adds	r1, #16
     9f6:	2010      	movs	r0, #16
     9f8:	2b07      	cmp	r3, #7
     9fa:	e9cd 3122 	strd	r3, r1, [sp, #136]	@ 0x88
     9fe:	6017      	str	r7, [r2, #0]
     a00:	6050      	str	r0, [r2, #4]
     a02:	ddf1      	ble.n	9e8 <_svfprintf_r+0x720>
     a04:	aa21      	add	r2, sp, #132	@ 0x84
     a06:	4629      	mov	r1, r5
     a08:	4620      	mov	r0, r4
     a0a:	f002 fc09 	bl	3220 <__ssprint_r>
     a0e:	2800      	cmp	r0, #0
     a10:	f47f adcb 	bne.w	5aa <_svfprintf_r+0x2e2>
     a14:	3e10      	subs	r6, #16
     a16:	2e10      	cmp	r6, #16
     a18:	e9dd 3122 	ldrd	r3, r1, [sp, #136]	@ 0x88
     a1c:	aa2e      	add	r2, sp, #184	@ 0xb8
     a1e:	dce8      	bgt.n	9f2 <_svfprintf_r+0x72a>
     a20:	464d      	mov	r5, r9
     a22:	460c      	mov	r4, r1
     a24:	4691      	mov	r9, r2
     a26:	3301      	adds	r3, #1
     a28:	4434      	add	r4, r6
     a2a:	2b07      	cmp	r3, #7
     a2c:	e9cd 3422 	strd	r3, r4, [sp, #136]	@ 0x88
     a30:	f8c9 7000 	str.w	r7, [r9]
     a34:	f8c9 6004 	str.w	r6, [r9, #4]
     a38:	f300 841a 	bgt.w	1270 <_svfprintf_r+0xfa8>
     a3c:	9b06      	ldr	r3, [sp, #24]
     a3e:	ebaa 0603 	sub.w	r6, sl, r3
     a42:	2e00      	cmp	r6, #0
     a44:	f109 0908 	add.w	r9, r9, #8
     a48:	f77f ae07 	ble.w	65a <_svfprintf_r+0x392>
     a4c:	2e10      	cmp	r6, #16
     a4e:	9b22      	ldr	r3, [sp, #136]	@ 0x88
     a50:	4f99      	ldr	r7, [pc, #612]	@ (cb8 <_svfprintf_r+0x9f0>)
     a52:	dd2c      	ble.n	aae <_svfprintf_r+0x7e6>
     a54:	464a      	mov	r2, r9
     a56:	4621      	mov	r1, r4
     a58:	46b1      	mov	r9, r6
     a5a:	f04f 0a10 	mov.w	sl, #16
     a5e:	462e      	mov	r6, r5
     a60:	e9dd 5407 	ldrd	r5, r4, [sp, #28]
     a64:	e006      	b.n	a74 <_svfprintf_r+0x7ac>
     a66:	f1a9 0910 	sub.w	r9, r9, #16
     a6a:	f1b9 0f10 	cmp.w	r9, #16
     a6e:	f102 0208 	add.w	r2, r2, #8
     a72:	dd18      	ble.n	aa6 <_svfprintf_r+0x7de>
     a74:	3301      	adds	r3, #1
     a76:	4890      	ldr	r0, [pc, #576]	@ (cb8 <_svfprintf_r+0x9f0>)
     a78:	3110      	adds	r1, #16
     a7a:	2b07      	cmp	r3, #7
     a7c:	e9c2 0a00 	strd	r0, sl, [r2]
     a80:	e9cd 3122 	strd	r3, r1, [sp, #136]	@ 0x88
     a84:	ddef      	ble.n	a66 <_svfprintf_r+0x79e>
     a86:	aa21      	add	r2, sp, #132	@ 0x84
     a88:	4629      	mov	r1, r5
     a8a:	4620      	mov	r0, r4
     a8c:	f002 fbc8 	bl	3220 <__ssprint_r>
     a90:	2800      	cmp	r0, #0
     a92:	f47f ad8a 	bne.w	5aa <_svfprintf_r+0x2e2>
     a96:	f1a9 0910 	sub.w	r9, r9, #16
     a9a:	f1b9 0f10 	cmp.w	r9, #16
     a9e:	e9dd 3122 	ldrd	r3, r1, [sp, #136]	@ 0x88
     aa2:	aa2e      	add	r2, sp, #184	@ 0xb8
     aa4:	dce6      	bgt.n	a74 <_svfprintf_r+0x7ac>
     aa6:	4635      	mov	r5, r6
     aa8:	460c      	mov	r4, r1
     aaa:	464e      	mov	r6, r9
     aac:	4691      	mov	r9, r2
     aae:	3301      	adds	r3, #1
     ab0:	4434      	add	r4, r6
     ab2:	2b07      	cmp	r3, #7
     ab4:	e9cd 3422 	strd	r3, r4, [sp, #136]	@ 0x88
     ab8:	f8c9 7000 	str.w	r7, [r9]
     abc:	f8c9 6004 	str.w	r6, [r9, #4]
     ac0:	f300 81ea 	bgt.w	e98 <_svfprintf_r+0xbd0>
     ac4:	f109 0908 	add.w	r9, r9, #8
     ac8:	e5c7      	b.n	65a <_svfprintf_r+0x392>
     aca:	2901      	cmp	r1, #1
     acc:	9f02      	ldr	r7, [sp, #8]
     ace:	f04f 0300 	mov.w	r3, #0
     ad2:	f43f acd6 	beq.w	482 <_svfprintf_r+0x1ba>
     ad6:	2902      	cmp	r1, #2
     ad8:	461a      	mov	r2, r3
     ada:	f47f ad0f 	bne.w	4fc <_svfprintf_r+0x234>
     ade:	9811      	ldr	r0, [sp, #68]	@ 0x44
     ae0:	ad2e      	add	r5, sp, #184	@ 0xb8
     ae2:	f003 010f 	and.w	r1, r3, #15
     ae6:	091b      	lsrs	r3, r3, #4
     ae8:	5c41      	ldrb	r1, [r0, r1]
     aea:	f805 1d01 	strb.w	r1, [r5, #-1]!
     aee:	ea43 7302 	orr.w	r3, r3, r2, lsl #28
     af2:	0912      	lsrs	r2, r2, #4
     af4:	ea53 0102 	orrs.w	r1, r3, r2
     af8:	d1f3      	bne.n	ae2 <_svfprintf_r+0x81a>
     afa:	ab2e      	add	r3, sp, #184	@ 0xb8
     afc:	1b5b      	subs	r3, r3, r5
     afe:	9702      	str	r7, [sp, #8]
     b00:	9306      	str	r3, [sp, #24]
     b02:	e518      	b.n	536 <_svfprintf_r+0x26e>
     b04:	e9dd 1007 	ldrd	r1, r0, [sp, #28]
     b08:	aa21      	add	r2, sp, #132	@ 0x84
     b0a:	f002 fb89 	bl	3220 <__ssprint_r>
     b0e:	2800      	cmp	r0, #0
     b10:	f43f adca 	beq.w	6a8 <_svfprintf_r+0x3e0>
     b14:	e549      	b.n	5aa <_svfprintf_r+0x2e2>
     b16:	3301      	adds	r3, #1
     b18:	442c      	add	r4, r5
     b1a:	2b07      	cmp	r3, #7
     b1c:	f8c9 7000 	str.w	r7, [r9]
     b20:	f8c9 5004 	str.w	r5, [r9, #4]
     b24:	e9cd 3422 	strd	r3, r4, [sp, #136]	@ 0x88
     b28:	f77f ada8 	ble.w	67c <_svfprintf_r+0x3b4>
     b2c:	e9dd 1007 	ldrd	r1, r0, [sp, #28]
     b30:	aa21      	add	r2, sp, #132	@ 0x84
     b32:	f002 fb75 	bl	3220 <__ssprint_r>
     b36:	2800      	cmp	r0, #0
     b38:	f47f ad37 	bne.w	5aa <_svfprintf_r+0x2e2>
     b3c:	9c23      	ldr	r4, [sp, #140]	@ 0x8c
     b3e:	f10d 09b8 	add.w	r9, sp, #184	@ 0xb8
     b42:	e59d      	b.n	680 <_svfprintf_r+0x3b8>
     b44:	9b0e      	ldr	r3, [sp, #56]	@ 0x38
     b46:	9e22      	ldr	r6, [sp, #136]	@ 0x88
     b48:	2b01      	cmp	r3, #1
     b4a:	f104 0401 	add.w	r4, r4, #1
     b4e:	f106 0601 	add.w	r6, r6, #1
     b52:	f109 0808 	add.w	r8, r9, #8
     b56:	f340 815b 	ble.w	e10 <_svfprintf_r+0xb48>
     b5a:	2301      	movs	r3, #1
     b5c:	2e07      	cmp	r6, #7
     b5e:	e9cd 6422 	strd	r6, r4, [sp, #136]	@ 0x88
     b62:	f8c9 5000 	str.w	r5, [r9]
     b66:	f8c9 3004 	str.w	r3, [r9, #4]
     b6a:	f300 81a2 	bgt.w	eb2 <_svfprintf_r+0xbea>
     b6e:	9b0f      	ldr	r3, [sp, #60]	@ 0x3c
     b70:	9a10      	ldr	r2, [sp, #64]	@ 0x40
     b72:	3601      	adds	r6, #1
     b74:	441c      	add	r4, r3
     b76:	2e07      	cmp	r6, #7
     b78:	e9c8 2300 	strd	r2, r3, [r8]
     b7c:	e9cd 6422 	strd	r6, r4, [sp, #136]	@ 0x88
     b80:	f300 81a4 	bgt.w	ecc <_svfprintf_r+0xc04>
     b84:	f108 0808 	add.w	r8, r8, #8
     b88:	9b0e      	ldr	r3, [sp, #56]	@ 0x38
     b8a:	e9dd 010c 	ldrd	r0, r1, [sp, #48]	@ 0x30
     b8e:	f103 39ff 	add.w	r9, r3, #4294967295	@ 0xffffffff
     b92:	2200      	movs	r2, #0
     b94:	2300      	movs	r3, #0
     b96:	f005 fc7f 	bl	6498 <__aeabi_dcmpeq>
     b9a:	2800      	cmp	r0, #0
     b9c:	f040 8153 	bne.w	e46 <_svfprintf_r+0xb7e>
     ba0:	3601      	adds	r6, #1
     ba2:	3501      	adds	r5, #1
     ba4:	444c      	add	r4, r9
     ba6:	2e07      	cmp	r6, #7
     ba8:	e9cd 6422 	strd	r6, r4, [sp, #136]	@ 0x88
     bac:	f8c8 5000 	str.w	r5, [r8]
     bb0:	f8c8 9004 	str.w	r9, [r8, #4]
     bb4:	f300 813a 	bgt.w	e2c <_svfprintf_r+0xb64>
     bb8:	f108 0808 	add.w	r8, r8, #8
     bbc:	9b12      	ldr	r3, [sp, #72]	@ 0x48
     bbe:	f8c8 3004 	str.w	r3, [r8, #4]
     bc2:	3601      	adds	r6, #1
     bc4:	441c      	add	r4, r3
     bc6:	2e07      	cmp	r6, #7
     bc8:	ab1d      	add	r3, sp, #116	@ 0x74
     bca:	e9cd 6422 	strd	r6, r4, [sp, #136]	@ 0x88
     bce:	f8c8 3000 	str.w	r3, [r8]
     bd2:	dcab      	bgt.n	b2c <_svfprintf_r+0x864>
     bd4:	f108 0908 	add.w	r9, r8, #8
     bd8:	e552      	b.n	680 <_svfprintf_r+0x3b8>
     bda:	2101      	movs	r1, #1
     bdc:	f1ba 0f00 	cmp.w	sl, #0
     be0:	f47f af73 	bne.w	aca <_svfprintf_r+0x802>
     be4:	2900      	cmp	r1, #0
     be6:	f040 810e 	bne.w	e06 <_svfprintf_r+0xb3e>
     bea:	f017 0301 	ands.w	r3, r7, #1
     bee:	9306      	str	r3, [sp, #24]
     bf0:	f000 817e 	beq.w	ef0 <_svfprintf_r+0xc28>
     bf4:	2330      	movs	r3, #48	@ 0x30
     bf6:	f88d 30b7 	strb.w	r3, [sp, #183]	@ 0xb7
     bfa:	f10d 05b7 	add.w	r5, sp, #183	@ 0xb7
     bfe:	e49a      	b.n	536 <_svfprintf_r+0x26e>
     c00:	2e10      	cmp	r6, #16
     c02:	9a22      	ldr	r2, [sp, #136]	@ 0x88
     c04:	4f2d      	ldr	r7, [pc, #180]	@ (cbc <_svfprintf_r+0x9f4>)
     c06:	dd26      	ble.n	c56 <_svfprintf_r+0x98e>
     c08:	4649      	mov	r1, r9
     c0a:	4620      	mov	r0, r4
     c0c:	46a9      	mov	r9, r5
     c0e:	9313      	str	r3, [sp, #76]	@ 0x4c
     c10:	e9dd 5407 	ldrd	r5, r4, [sp, #28]
     c14:	e004      	b.n	c20 <_svfprintf_r+0x958>
     c16:	3e10      	subs	r6, #16
     c18:	2e10      	cmp	r6, #16
     c1a:	f101 0108 	add.w	r1, r1, #8
     c1e:	dd16      	ble.n	c4e <_svfprintf_r+0x986>
     c20:	3201      	adds	r2, #1
     c22:	3010      	adds	r0, #16
     c24:	2310      	movs	r3, #16
     c26:	2a07      	cmp	r2, #7
     c28:	e9cd 2022 	strd	r2, r0, [sp, #136]	@ 0x88
     c2c:	600f      	str	r7, [r1, #0]
     c2e:	604b      	str	r3, [r1, #4]
     c30:	ddf1      	ble.n	c16 <_svfprintf_r+0x94e>
     c32:	aa21      	add	r2, sp, #132	@ 0x84
     c34:	4629      	mov	r1, r5
     c36:	4620      	mov	r0, r4
     c38:	f002 faf2 	bl	3220 <__ssprint_r>
     c3c:	2800      	cmp	r0, #0
     c3e:	f47f acb4 	bne.w	5aa <_svfprintf_r+0x2e2>
     c42:	3e10      	subs	r6, #16
     c44:	2e10      	cmp	r6, #16
     c46:	e9dd 2022 	ldrd	r2, r0, [sp, #136]	@ 0x88
     c4a:	a92e      	add	r1, sp, #184	@ 0xb8
     c4c:	dce8      	bgt.n	c20 <_svfprintf_r+0x958>
     c4e:	9b13      	ldr	r3, [sp, #76]	@ 0x4c
     c50:	464d      	mov	r5, r9
     c52:	4604      	mov	r4, r0
     c54:	4689      	mov	r9, r1
     c56:	3201      	adds	r2, #1
     c58:	4434      	add	r4, r6
     c5a:	2a07      	cmp	r2, #7
     c5c:	e9cd 2422 	strd	r2, r4, [sp, #136]	@ 0x88
     c60:	f8c9 7000 	str.w	r7, [r9]
     c64:	f8c9 6004 	str.w	r6, [r9, #4]
     c68:	f300 82b2 	bgt.w	11d0 <_svfprintf_r+0xf08>
     c6c:	f109 0908 	add.w	r9, r9, #8
     c70:	e4c2      	b.n	5f8 <_svfprintf_r+0x330>
     c72:	e9dd 1007 	ldrd	r1, r0, [sp, #28]
     c76:	aa21      	add	r2, sp, #132	@ 0x84
     c78:	9313      	str	r3, [sp, #76]	@ 0x4c
     c7a:	f002 fad1 	bl	3220 <__ssprint_r>
     c7e:	2800      	cmp	r0, #0
     c80:	f47f ac93 	bne.w	5aa <_svfprintf_r+0x2e2>
     c84:	9c23      	ldr	r4, [sp, #140]	@ 0x8c
     c86:	9b13      	ldr	r3, [sp, #76]	@ 0x4c
     c88:	f10d 09b8 	add.w	r9, sp, #184	@ 0xb8
     c8c:	e4c9      	b.n	622 <_svfprintf_r+0x35a>
     c8e:	e9dd 1007 	ldrd	r1, r0, [sp, #28]
     c92:	aa21      	add	r2, sp, #132	@ 0x84
     c94:	f002 fac4 	bl	3220 <__ssprint_r>
     c98:	2800      	cmp	r0, #0
     c9a:	f47f ac86 	bne.w	5aa <_svfprintf_r+0x2e2>
     c9e:	9c23      	ldr	r4, [sp, #140]	@ 0x8c
     ca0:	f10d 09b8 	add.w	r9, sp, #184	@ 0xb8
     ca4:	e4cf      	b.n	646 <_svfprintf_r+0x37e>
     ca6:	2d10      	cmp	r5, #16
     ca8:	9b22      	ldr	r3, [sp, #136]	@ 0x88
     caa:	4f04      	ldr	r7, [pc, #16]	@ (cbc <_svfprintf_r+0x9f4>)
     cac:	dd24      	ble.n	cf8 <_svfprintf_r+0xa30>
     cae:	e9dd a807 	ldrd	sl, r8, [sp, #28]
     cb2:	2610      	movs	r6, #16
     cb4:	e009      	b.n	cca <_svfprintf_r+0xa02>
     cb6:	bf00      	nop
     cb8:	00006cf0 	.word	0x00006cf0
     cbc:	00006ce0 	.word	0x00006ce0
     cc0:	3d10      	subs	r5, #16
     cc2:	2d10      	cmp	r5, #16
     cc4:	f109 0908 	add.w	r9, r9, #8
     cc8:	dd16      	ble.n	cf8 <_svfprintf_r+0xa30>
     cca:	3301      	adds	r3, #1
     ccc:	3410      	adds	r4, #16
     cce:	2b07      	cmp	r3, #7
     cd0:	e9c9 7600 	strd	r7, r6, [r9]
     cd4:	e9cd 3422 	strd	r3, r4, [sp, #136]	@ 0x88
     cd8:	ddf2      	ble.n	cc0 <_svfprintf_r+0x9f8>
     cda:	aa21      	add	r2, sp, #132	@ 0x84
     cdc:	4651      	mov	r1, sl
     cde:	4640      	mov	r0, r8
     ce0:	f002 fa9e 	bl	3220 <__ssprint_r>
     ce4:	2800      	cmp	r0, #0
     ce6:	f47f ac60 	bne.w	5aa <_svfprintf_r+0x2e2>
     cea:	3d10      	subs	r5, #16
     cec:	2d10      	cmp	r5, #16
     cee:	e9dd 3422 	ldrd	r3, r4, [sp, #136]	@ 0x88
     cf2:	f10d 09b8 	add.w	r9, sp, #184	@ 0xb8
     cf6:	dce8      	bgt.n	cca <_svfprintf_r+0xa02>
     cf8:	3301      	adds	r3, #1
     cfa:	442c      	add	r4, r5
     cfc:	2b07      	cmp	r3, #7
     cfe:	e9c9 7500 	strd	r7, r5, [r9]
     d02:	e9cd 3422 	strd	r3, r4, [sp, #136]	@ 0x88
     d06:	f77f acc4 	ble.w	692 <_svfprintf_r+0x3ca>
     d0a:	e9dd 1007 	ldrd	r1, r0, [sp, #28]
     d0e:	aa21      	add	r2, sp, #132	@ 0x84
     d10:	f002 fa86 	bl	3220 <__ssprint_r>
     d14:	2800      	cmp	r0, #0
     d16:	f47f ac48 	bne.w	5aa <_svfprintf_r+0x2e2>
     d1a:	9c23      	ldr	r4, [sp, #140]	@ 0x8c
     d1c:	e4b9      	b.n	692 <_svfprintf_r+0x3ca>
     d1e:	991b      	ldr	r1, [sp, #108]	@ 0x6c
     d20:	2900      	cmp	r1, #0
     d22:	f340 8264 	ble.w	11ee <_svfprintf_r+0xf26>
     d26:	9f0b      	ldr	r7, [sp, #44]	@ 0x2c
     d28:	9b0e      	ldr	r3, [sp, #56]	@ 0x38
     d2a:	429f      	cmp	r7, r3
     d2c:	bfa8      	it	ge
     d2e:	461f      	movge	r7, r3
     d30:	2f00      	cmp	r7, #0
     d32:	dd0b      	ble.n	d4c <_svfprintf_r+0xa84>
     d34:	9b22      	ldr	r3, [sp, #136]	@ 0x88
     d36:	3301      	adds	r3, #1
     d38:	443c      	add	r4, r7
     d3a:	2b07      	cmp	r3, #7
     d3c:	e9c9 5700 	strd	r5, r7, [r9]
     d40:	9423      	str	r4, [sp, #140]	@ 0x8c
     d42:	9322      	str	r3, [sp, #136]	@ 0x88
     d44:	f300 83cf 	bgt.w	14e6 <_svfprintf_r+0x121e>
     d48:	f109 0908 	add.w	r9, r9, #8
     d4c:	9e0b      	ldr	r6, [sp, #44]	@ 0x2c
     d4e:	2f00      	cmp	r7, #0
     d50:	bfa8      	it	ge
     d52:	1bf6      	subge	r6, r6, r7
     d54:	2e00      	cmp	r6, #0
     d56:	f300 8185 	bgt.w	1064 <_svfprintf_r+0xd9c>
     d5a:	9b1b      	ldr	r3, [sp, #108]	@ 0x6c
     d5c:	9a0e      	ldr	r2, [sp, #56]	@ 0x38
     d5e:	4293      	cmp	r3, r2
     d60:	f280 816c 	bge.w	103c <_svfprintf_r+0xd74>
     d64:	9a0f      	ldr	r2, [sp, #60]	@ 0x3c
     d66:	9910      	ldr	r1, [sp, #64]	@ 0x40
     d68:	4414      	add	r4, r2
     d6a:	e9c9 1200 	strd	r1, r2, [r9]
     d6e:	9a22      	ldr	r2, [sp, #136]	@ 0x88
     d70:	9423      	str	r4, [sp, #140]	@ 0x8c
     d72:	3201      	adds	r2, #1
     d74:	2a07      	cmp	r2, #7
     d76:	9222      	str	r2, [sp, #136]	@ 0x88
     d78:	f300 82f2 	bgt.w	1360 <_svfprintf_r+0x1098>
     d7c:	f109 0908 	add.w	r9, r9, #8
     d80:	9a0e      	ldr	r2, [sp, #56]	@ 0x38
     d82:	990b      	ldr	r1, [sp, #44]	@ 0x2c
     d84:	1ad3      	subs	r3, r2, r3
     d86:	1a56      	subs	r6, r2, r1
     d88:	429e      	cmp	r6, r3
     d8a:	bfa8      	it	ge
     d8c:	461e      	movge	r6, r3
     d8e:	2e00      	cmp	r6, #0
     d90:	dd0e      	ble.n	db0 <_svfprintf_r+0xae8>
     d92:	9a22      	ldr	r2, [sp, #136]	@ 0x88
     d94:	f8c9 6004 	str.w	r6, [r9, #4]
     d98:	3201      	adds	r2, #1
     d9a:	440d      	add	r5, r1
     d9c:	4434      	add	r4, r6
     d9e:	2a07      	cmp	r2, #7
     da0:	f8c9 5000 	str.w	r5, [r9]
     da4:	9423      	str	r4, [sp, #140]	@ 0x8c
     da6:	9222      	str	r2, [sp, #136]	@ 0x88
     da8:	f300 83a9 	bgt.w	14fe <_svfprintf_r+0x1236>
     dac:	f109 0908 	add.w	r9, r9, #8
     db0:	2e00      	cmp	r6, #0
     db2:	bfac      	ite	ge
     db4:	1b9d      	subge	r5, r3, r6
     db6:	461d      	movlt	r5, r3
     db8:	2d00      	cmp	r5, #0
     dba:	f77f ac61 	ble.w	680 <_svfprintf_r+0x3b8>
     dbe:	2d10      	cmp	r5, #16
     dc0:	9b22      	ldr	r3, [sp, #136]	@ 0x88
     dc2:	4fbb      	ldr	r7, [pc, #748]	@ (10b0 <_svfprintf_r+0xde8>)
     dc4:	f77f aea7 	ble.w	b16 <_svfprintf_r+0x84e>
     dc8:	e9dd a807 	ldrd	sl, r8, [sp, #28]
     dcc:	2610      	movs	r6, #16
     dce:	e005      	b.n	ddc <_svfprintf_r+0xb14>
     dd0:	f109 0908 	add.w	r9, r9, #8
     dd4:	3d10      	subs	r5, #16
     dd6:	2d10      	cmp	r5, #16
     dd8:	f77f ae9d 	ble.w	b16 <_svfprintf_r+0x84e>
     ddc:	3301      	adds	r3, #1
     dde:	3410      	adds	r4, #16
     de0:	2b07      	cmp	r3, #7
     de2:	e9c9 7600 	strd	r7, r6, [r9]
     de6:	e9cd 3422 	strd	r3, r4, [sp, #136]	@ 0x88
     dea:	ddf1      	ble.n	dd0 <_svfprintf_r+0xb08>
     dec:	aa21      	add	r2, sp, #132	@ 0x84
     dee:	4651      	mov	r1, sl
     df0:	4640      	mov	r0, r8
     df2:	f002 fa15 	bl	3220 <__ssprint_r>
     df6:	2800      	cmp	r0, #0
     df8:	f47f abd7 	bne.w	5aa <_svfprintf_r+0x2e2>
     dfc:	e9dd 3422 	ldrd	r3, r4, [sp, #136]	@ 0x88
     e00:	f10d 09b8 	add.w	r9, sp, #184	@ 0xb8
     e04:	e7e6      	b.n	dd4 <_svfprintf_r+0xb0c>
     e06:	f8cd a018 	str.w	sl, [sp, #24]
     e0a:	ad2e      	add	r5, sp, #184	@ 0xb8
     e0c:	f7ff bb93 	b.w	536 <_svfprintf_r+0x26e>
     e10:	9b02      	ldr	r3, [sp, #8]
     e12:	07d9      	lsls	r1, r3, #31
     e14:	f53f aea1 	bmi.w	b5a <_svfprintf_r+0x892>
     e18:	2301      	movs	r3, #1
     e1a:	2e07      	cmp	r6, #7
     e1c:	e9cd 6422 	strd	r6, r4, [sp, #136]	@ 0x88
     e20:	f8c9 5000 	str.w	r5, [r9]
     e24:	f8c9 3004 	str.w	r3, [r9, #4]
     e28:	f77f aec8 	ble.w	bbc <_svfprintf_r+0x8f4>
     e2c:	e9dd 1007 	ldrd	r1, r0, [sp, #28]
     e30:	aa21      	add	r2, sp, #132	@ 0x84
     e32:	f002 f9f5 	bl	3220 <__ssprint_r>
     e36:	2800      	cmp	r0, #0
     e38:	f47f abb7 	bne.w	5aa <_svfprintf_r+0x2e2>
     e3c:	e9dd 6422 	ldrd	r6, r4, [sp, #136]	@ 0x88
     e40:	f10d 08b8 	add.w	r8, sp, #184	@ 0xb8
     e44:	e6ba      	b.n	bbc <_svfprintf_r+0x8f4>
     e46:	9b0e      	ldr	r3, [sp, #56]	@ 0x38
     e48:	2b01      	cmp	r3, #1
     e4a:	f77f aeb7 	ble.w	bbc <_svfprintf_r+0x8f4>
     e4e:	2b11      	cmp	r3, #17
     e50:	4f97      	ldr	r7, [pc, #604]	@ (10b0 <_svfprintf_r+0xde8>)
     e52:	f340 8265 	ble.w	1320 <_svfprintf_r+0x1058>
     e56:	f8dd a020 	ldr.w	sl, [sp, #32]
     e5a:	2510      	movs	r5, #16
     e5c:	e007      	b.n	e6e <_svfprintf_r+0xba6>
     e5e:	f108 0808 	add.w	r8, r8, #8
     e62:	f1a9 0910 	sub.w	r9, r9, #16
     e66:	f1b9 0f10 	cmp.w	r9, #16
     e6a:	f340 8259 	ble.w	1320 <_svfprintf_r+0x1058>
     e6e:	3601      	adds	r6, #1
     e70:	3410      	adds	r4, #16
     e72:	2e07      	cmp	r6, #7
     e74:	e9c8 7500 	strd	r7, r5, [r8]
     e78:	e9cd 6422 	strd	r6, r4, [sp, #136]	@ 0x88
     e7c:	ddef      	ble.n	e5e <_svfprintf_r+0xb96>
     e7e:	9907      	ldr	r1, [sp, #28]
     e80:	aa21      	add	r2, sp, #132	@ 0x84
     e82:	4650      	mov	r0, sl
     e84:	f002 f9cc 	bl	3220 <__ssprint_r>
     e88:	2800      	cmp	r0, #0
     e8a:	f47f ab8e 	bne.w	5aa <_svfprintf_r+0x2e2>
     e8e:	e9dd 6422 	ldrd	r6, r4, [sp, #136]	@ 0x88
     e92:	f10d 08b8 	add.w	r8, sp, #184	@ 0xb8
     e96:	e7e4      	b.n	e62 <_svfprintf_r+0xb9a>
     e98:	e9dd 1007 	ldrd	r1, r0, [sp, #28]
     e9c:	aa21      	add	r2, sp, #132	@ 0x84
     e9e:	f002 f9bf 	bl	3220 <__ssprint_r>
     ea2:	2800      	cmp	r0, #0
     ea4:	f47f ab81 	bne.w	5aa <_svfprintf_r+0x2e2>
     ea8:	9c23      	ldr	r4, [sp, #140]	@ 0x8c
     eaa:	f10d 09b8 	add.w	r9, sp, #184	@ 0xb8
     eae:	f7ff bbd4 	b.w	65a <_svfprintf_r+0x392>
     eb2:	e9dd 1007 	ldrd	r1, r0, [sp, #28]
     eb6:	aa21      	add	r2, sp, #132	@ 0x84
     eb8:	f002 f9b2 	bl	3220 <__ssprint_r>
     ebc:	2800      	cmp	r0, #0
     ebe:	f47f ab74 	bne.w	5aa <_svfprintf_r+0x2e2>
     ec2:	e9dd 6422 	ldrd	r6, r4, [sp, #136]	@ 0x88
     ec6:	f10d 08b8 	add.w	r8, sp, #184	@ 0xb8
     eca:	e650      	b.n	b6e <_svfprintf_r+0x8a6>
     ecc:	e9dd 1007 	ldrd	r1, r0, [sp, #28]
     ed0:	aa21      	add	r2, sp, #132	@ 0x84
     ed2:	f002 f9a5 	bl	3220 <__ssprint_r>
     ed6:	2800      	cmp	r0, #0
     ed8:	f47f ab67 	bne.w	5aa <_svfprintf_r+0x2e2>
     edc:	e9dd 6422 	ldrd	r6, r4, [sp, #136]	@ 0x88
     ee0:	f10d 08b8 	add.w	r8, sp, #184	@ 0xb8
     ee4:	e650      	b.n	b88 <_svfprintf_r+0x8c0>
     ee6:	9309      	str	r3, [sp, #36]	@ 0x24
     ee8:	f89b 3000 	ldrb.w	r3, [fp]
     eec:	f7ff ba33 	b.w	356 <_svfprintf_r+0x8e>
     ef0:	ad2e      	add	r5, sp, #184	@ 0xb8
     ef2:	f7ff bb20 	b.w	536 <_svfprintf_r+0x26e>
     ef6:	f017 0240 	ands.w	r2, r7, #64	@ 0x40
     efa:	bf1c      	itt	ne
     efc:	460a      	movne	r2, r1
     efe:	b29b      	uxthne	r3, r3
     f00:	2101      	movs	r1, #1
     f02:	f7ff bae8 	b.w	4d6 <_svfprintf_r+0x20e>
     f06:	e9dd 010c 	ldrd	r0, r1, [sp, #48]	@ 0x30
     f0a:	4602      	mov	r2, r0
     f0c:	460b      	mov	r3, r1
     f0e:	f005 faf5 	bl	64fc <__aeabi_dcmpun>
     f12:	2800      	cmp	r0, #0
     f14:	f040 835f 	bne.w	15d6 <_svfprintf_r+0x130e>
     f18:	f1ba 3fff 	cmp.w	sl, #4294967295	@ 0xffffffff
     f1c:	f028 0620 	bic.w	r6, r8, #32
     f20:	f000 82fc 	beq.w	151c <_svfprintf_r+0x1254>
     f24:	2e47      	cmp	r6, #71	@ 0x47
     f26:	d104      	bne.n	f32 <_svfprintf_r+0xc6a>
     f28:	f1ba 0f00 	cmp.w	sl, #0
     f2c:	bf08      	it	eq
     f2e:	f04f 0a01 	moveq.w	sl, #1
     f32:	e9dd 010c 	ldrd	r0, r1, [sp, #48]	@ 0x30
     f36:	f447 7280 	orr.w	r2, r7, #256	@ 0x100
     f3a:	2900      	cmp	r1, #0
     f3c:	9202      	str	r2, [sp, #8]
     f3e:	f2c0 8229 	blt.w	1394 <_svfprintf_r+0x10cc>
     f42:	ed9d 7b0c 	vldr	d7, [sp, #48]	@ 0x30
     f46:	ed8d 7b16 	vstr	d7, [sp, #88]	@ 0x58
     f4a:	2300      	movs	r3, #0
     f4c:	930a      	str	r3, [sp, #40]	@ 0x28
     f4e:	f1b8 0f65 	cmp.w	r8, #101	@ 0x65
     f52:	f000 82f2 	beq.w	153a <_svfprintf_r+0x1272>
     f56:	f300 8224 	bgt.w	13a2 <_svfprintf_r+0x10da>
     f5a:	f1b8 0f45 	cmp.w	r8, #69	@ 0x45
     f5e:	f000 82ec 	beq.w	153a <_svfprintf_r+0x1272>
     f62:	ab1f      	add	r3, sp, #124	@ 0x7c
     f64:	9301      	str	r3, [sp, #4]
     f66:	ab1c      	add	r3, sp, #112	@ 0x70
     f68:	9300      	str	r3, [sp, #0]
     f6a:	2102      	movs	r1, #2
     f6c:	ed9d 0b16 	vldr	d0, [sp, #88]	@ 0x58
     f70:	9808      	ldr	r0, [sp, #32]
     f72:	ab1b      	add	r3, sp, #108	@ 0x6c
     f74:	4652      	mov	r2, sl
     f76:	f000 fecd 	bl	1d14 <_dtoa_r>
     f7a:	07f9      	lsls	r1, r7, #31
     f7c:	4605      	mov	r5, r0
     f7e:	f140 80a8 	bpl.w	10d2 <_svfprintf_r+0xe0a>
     f82:	eb00 040a 	add.w	r4, r0, sl
     f86:	e9dd 0116 	ldrd	r0, r1, [sp, #88]	@ 0x58
     f8a:	2200      	movs	r2, #0
     f8c:	2300      	movs	r3, #0
     f8e:	f005 fa83 	bl	6498 <__aeabi_dcmpeq>
     f92:	2800      	cmp	r0, #0
     f94:	f040 8225 	bne.w	13e2 <_svfprintf_r+0x111a>
     f98:	9b1f      	ldr	r3, [sp, #124]	@ 0x7c
     f9a:	42a3      	cmp	r3, r4
     f9c:	d206      	bcs.n	fac <_svfprintf_r+0xce4>
     f9e:	2130      	movs	r1, #48	@ 0x30
     fa0:	1c5a      	adds	r2, r3, #1
     fa2:	921f      	str	r2, [sp, #124]	@ 0x7c
     fa4:	7019      	strb	r1, [r3, #0]
     fa6:	9b1f      	ldr	r3, [sp, #124]	@ 0x7c
     fa8:	429c      	cmp	r4, r3
     faa:	d8f9      	bhi.n	fa0 <_svfprintf_r+0xcd8>
     fac:	9a1b      	ldr	r2, [sp, #108]	@ 0x6c
     fae:	920b      	str	r2, [sp, #44]	@ 0x2c
     fb0:	1b5b      	subs	r3, r3, r5
     fb2:	2e47      	cmp	r6, #71	@ 0x47
     fb4:	930e      	str	r3, [sp, #56]	@ 0x38
     fb6:	f000 8091 	beq.w	10dc <_svfprintf_r+0xe14>
     fba:	f1b8 0f66 	cmp.w	r8, #102	@ 0x66
     fbe:	f040 8093 	bne.w	10e8 <_svfprintf_r+0xe20>
     fc2:	9a0b      	ldr	r2, [sp, #44]	@ 0x2c
     fc4:	f007 0301 	and.w	r3, r7, #1
     fc8:	2a00      	cmp	r2, #0
     fca:	ea43 030a 	orr.w	r3, r3, sl
     fce:	f340 8261 	ble.w	1494 <_svfprintf_r+0x11cc>
     fd2:	2b00      	cmp	r3, #0
     fd4:	f040 8319 	bne.w	160a <_svfprintf_r+0x1342>
     fd8:	9b0b      	ldr	r3, [sp, #44]	@ 0x2c
     fda:	9303      	str	r3, [sp, #12]
     fdc:	9306      	str	r3, [sp, #24]
     fde:	f04f 0866 	mov.w	r8, #102	@ 0x66
     fe2:	e214      	b.n	140e <_svfprintf_r+0x1146>
     fe4:	06fc      	lsls	r4, r7, #27
     fe6:	d46f      	bmi.n	10c8 <_svfprintf_r+0xe00>
     fe8:	0678      	lsls	r0, r7, #25
     fea:	d56d      	bpl.n	10c8 <_svfprintf_r+0xe00>
     fec:	9b09      	ldr	r3, [sp, #36]	@ 0x24
     fee:	9a05      	ldr	r2, [sp, #20]
     ff0:	681b      	ldr	r3, [r3, #0]
     ff2:	801a      	strh	r2, [r3, #0]
     ff4:	e47b      	b.n	8ee <_svfprintf_r+0x626>
     ff6:	4b2f      	ldr	r3, [pc, #188]	@ (10b4 <_svfprintf_r+0xdec>)
     ff8:	9311      	str	r3, [sp, #68]	@ 0x44
     ffa:	f017 0220 	ands.w	r2, r7, #32
     ffe:	f000 809f 	beq.w	1140 <_svfprintf_r+0xe78>
    1002:	9b09      	ldr	r3, [sp, #36]	@ 0x24
    1004:	3307      	adds	r3, #7
    1006:	f023 0307 	bic.w	r3, r3, #7
    100a:	4619      	mov	r1, r3
    100c:	685a      	ldr	r2, [r3, #4]
    100e:	f851 3b08 	ldr.w	r3, [r1], #8
    1012:	9109      	str	r1, [sp, #36]	@ 0x24
    1014:	07f9      	lsls	r1, r7, #31
    1016:	f140 8090 	bpl.w	113a <_svfprintf_r+0xe72>
    101a:	ea53 0102 	orrs.w	r1, r3, r2
    101e:	f000 808c 	beq.w	113a <_svfprintf_r+0xe72>
    1022:	2130      	movs	r1, #48	@ 0x30
    1024:	f88d 1068 	strb.w	r1, [sp, #104]	@ 0x68
    1028:	f88d 8069 	strb.w	r8, [sp, #105]	@ 0x69
    102c:	f047 0702 	orr.w	r7, r7, #2
    1030:	2102      	movs	r1, #2
    1032:	f7ff ba50 	b.w	4d6 <_svfprintf_r+0x20e>
    1036:	4b20      	ldr	r3, [pc, #128]	@ (10b8 <_svfprintf_r+0xdf0>)
    1038:	9311      	str	r3, [sp, #68]	@ 0x44
    103a:	e7de      	b.n	ffa <_svfprintf_r+0xd32>
    103c:	9a02      	ldr	r2, [sp, #8]
    103e:	07d0      	lsls	r0, r2, #31
    1040:	f57f ae9e 	bpl.w	d80 <_svfprintf_r+0xab8>
    1044:	e68e      	b.n	d64 <_svfprintf_r+0xa9c>
    1046:	9808      	ldr	r0, [sp, #32]
    1048:	2140      	movs	r1, #64	@ 0x40
    104a:	f000 fb23 	bl	1694 <_malloc_r>
    104e:	9b07      	ldr	r3, [sp, #28]
    1050:	6018      	str	r0, [r3, #0]
    1052:	6118      	str	r0, [r3, #16]
    1054:	2800      	cmp	r0, #0
    1056:	f000 82b6 	beq.w	15c6 <_svfprintf_r+0x12fe>
    105a:	9a07      	ldr	r2, [sp, #28]
    105c:	2340      	movs	r3, #64	@ 0x40
    105e:	6153      	str	r3, [r2, #20]
    1060:	f7ff b949 	b.w	2f6 <_svfprintf_r+0x2e>
    1064:	2e10      	cmp	r6, #16
    1066:	9b22      	ldr	r3, [sp, #136]	@ 0x88
    1068:	4f11      	ldr	r7, [pc, #68]	@ (10b0 <_svfprintf_r+0xde8>)
    106a:	f340 8166 	ble.w	133a <_svfprintf_r+0x1072>
    106e:	4622      	mov	r2, r4
    1070:	f04f 0810 	mov.w	r8, #16
    1074:	e9dd 4a07 	ldrd	r4, sl, [sp, #28]
    1078:	e005      	b.n	1086 <_svfprintf_r+0xdbe>
    107a:	f109 0908 	add.w	r9, r9, #8
    107e:	3e10      	subs	r6, #16
    1080:	2e10      	cmp	r6, #16
    1082:	f340 8159 	ble.w	1338 <_svfprintf_r+0x1070>
    1086:	3301      	adds	r3, #1
    1088:	3210      	adds	r2, #16
    108a:	2b07      	cmp	r3, #7
    108c:	e9c9 7800 	strd	r7, r8, [r9]
    1090:	e9cd 3222 	strd	r3, r2, [sp, #136]	@ 0x88
    1094:	ddf1      	ble.n	107a <_svfprintf_r+0xdb2>
    1096:	aa21      	add	r2, sp, #132	@ 0x84
    1098:	4621      	mov	r1, r4
    109a:	4650      	mov	r0, sl
    109c:	f002 f8c0 	bl	3220 <__ssprint_r>
    10a0:	2800      	cmp	r0, #0
    10a2:	f47f aa82 	bne.w	5aa <_svfprintf_r+0x2e2>
    10a6:	e9dd 3222 	ldrd	r3, r2, [sp, #136]	@ 0x88
    10aa:	f10d 09b8 	add.w	r9, sp, #184	@ 0xb8
    10ae:	e7e6      	b.n	107e <_svfprintf_r+0xdb6>
    10b0:	00006cf0 	.word	0x00006cf0
    10b4:	0000787c 	.word	0x0000787c
    10b8:	00007890 	.word	0x00007890
    10bc:	4628      	mov	r0, r5
    10be:	f7ff f81f 	bl	100 <strlen>
    10c2:	4603      	mov	r3, r0
    10c4:	f7ff bbe9 	b.w	89a <_svfprintf_r+0x5d2>
    10c8:	9b09      	ldr	r3, [sp, #36]	@ 0x24
    10ca:	9a05      	ldr	r2, [sp, #20]
    10cc:	681b      	ldr	r3, [r3, #0]
    10ce:	601a      	str	r2, [r3, #0]
    10d0:	e40d      	b.n	8ee <_svfprintf_r+0x626>
    10d2:	9b1f      	ldr	r3, [sp, #124]	@ 0x7c
    10d4:	1a1b      	subs	r3, r3, r0
    10d6:	930e      	str	r3, [sp, #56]	@ 0x38
    10d8:	9b1b      	ldr	r3, [sp, #108]	@ 0x6c
    10da:	930b      	str	r3, [sp, #44]	@ 0x2c
    10dc:	9b0b      	ldr	r3, [sp, #44]	@ 0x2c
    10de:	1cda      	adds	r2, r3, #3
    10e0:	f280 8183 	bge.w	13ea <_svfprintf_r+0x1122>
    10e4:	f1a8 0802 	sub.w	r8, r8, #2
    10e8:	9b0b      	ldr	r3, [sp, #44]	@ 0x2c
    10ea:	f88d 8074 	strb.w	r8, [sp, #116]	@ 0x74
    10ee:	1e59      	subs	r1, r3, #1
    10f0:	2900      	cmp	r1, #0
    10f2:	911b      	str	r1, [sp, #108]	@ 0x6c
    10f4:	bfb6      	itet	lt
    10f6:	f1c3 0101 	rsblt	r1, r3, #1
    10fa:	232b      	movge	r3, #43	@ 0x2b
    10fc:	232d      	movlt	r3, #45	@ 0x2d
    10fe:	2909      	cmp	r1, #9
    1100:	f88d 3075 	strb.w	r3, [sp, #117]	@ 0x75
    1104:	f300 819c 	bgt.w	1440 <_svfprintf_r+0x1178>
    1108:	2330      	movs	r3, #48	@ 0x30
    110a:	3130      	adds	r1, #48	@ 0x30
    110c:	f88d 3076 	strb.w	r3, [sp, #118]	@ 0x76
    1110:	2304      	movs	r3, #4
    1112:	f88d 1077 	strb.w	r1, [sp, #119]	@ 0x77
    1116:	9312      	str	r3, [sp, #72]	@ 0x48
    1118:	9a0e      	ldr	r2, [sp, #56]	@ 0x38
    111a:	9b12      	ldr	r3, [sp, #72]	@ 0x48
    111c:	2a01      	cmp	r2, #1
    111e:	4413      	add	r3, r2
    1120:	9306      	str	r3, [sp, #24]
    1122:	f340 8214 	ble.w	154e <_svfprintf_r+0x1286>
    1126:	9b06      	ldr	r3, [sp, #24]
    1128:	9a0f      	ldr	r2, [sp, #60]	@ 0x3c
    112a:	4413      	add	r3, r2
    112c:	9306      	str	r3, [sp, #24]
    112e:	ea23 73e3 	bic.w	r3, r3, r3, asr #31
    1132:	9303      	str	r3, [sp, #12]
    1134:	2300      	movs	r3, #0
    1136:	930b      	str	r3, [sp, #44]	@ 0x2c
    1138:	e169      	b.n	140e <_svfprintf_r+0x1146>
    113a:	2102      	movs	r1, #2
    113c:	f7ff b9cb 	b.w	4d6 <_svfprintf_r+0x20e>
    1140:	9909      	ldr	r1, [sp, #36]	@ 0x24
    1142:	f851 3b04 	ldr.w	r3, [r1], #4
    1146:	9109      	str	r1, [sp, #36]	@ 0x24
    1148:	f017 0110 	ands.w	r1, r7, #16
    114c:	f47f af62 	bne.w	1014 <_svfprintf_r+0xd4c>
    1150:	f017 0240 	ands.w	r2, r7, #64	@ 0x40
    1154:	bf1c      	itt	ne
    1156:	b29b      	uxthne	r3, r3
    1158:	460a      	movne	r2, r1
    115a:	e75b      	b.n	1014 <_svfprintf_r+0xd4c>
    115c:	e9cd 8702 	strd	r8, r7, [sp, #8]
    1160:	4eb3      	ldr	r6, [pc, #716]	@ (1430 <_svfprintf_r+0x1168>)
    1162:	ad2e      	add	r5, sp, #184	@ 0xb8
    1164:	f04f 0e05 	mov.w	lr, #5
    1168:	1899      	adds	r1, r3, r2
    116a:	f141 0100 	adc.w	r1, r1, #0
    116e:	fba6 0701 	umull	r0, r7, r6, r1
    1172:	f027 0003 	bic.w	r0, r7, #3
    1176:	eb00 0097 	add.w	r0, r0, r7, lsr #2
    117a:	1a09      	subs	r1, r1, r0
    117c:	1a58      	subs	r0, r3, r1
    117e:	4698      	mov	r8, r3
    1180:	4694      	mov	ip, r2
    1182:	f162 0300 	sbc.w	r3, r2, #0
    1186:	f04f 32cc 	mov.w	r2, #3435973836	@ 0xcccccccc
    118a:	fb02 f200 	mul.w	r2, r2, r0
    118e:	fb06 2203 	mla	r2, r6, r3, r2
    1192:	fba0 3006 	umull	r3, r0, r0, r6
    1196:	f003 0701 	and.w	r7, r3, #1
    119a:	4402      	add	r2, r0
    119c:	fba7 070e 	umull	r0, r7, r7, lr
    11a0:	1840      	adds	r0, r0, r1
    11a2:	f1b8 0f0a 	cmp.w	r8, #10
    11a6:	ea4f 0353 	mov.w	r3, r3, lsr #1
    11aa:	f100 0030 	add.w	r0, r0, #48	@ 0x30
    11ae:	f17c 0c00 	sbcs.w	ip, ip, #0
    11b2:	ea43 73c2 	orr.w	r3, r3, r2, lsl #31
    11b6:	f805 0d01 	strb.w	r0, [r5, #-1]!
    11ba:	ea4f 0252 	mov.w	r2, r2, lsr #1
    11be:	d2d3      	bcs.n	1168 <_svfprintf_r+0xea0>
    11c0:	e9dd 8702 	ldrd	r8, r7, [sp, #8]
    11c4:	ab2e      	add	r3, sp, #184	@ 0xb8
    11c6:	1b5b      	subs	r3, r3, r5
    11c8:	9702      	str	r7, [sp, #8]
    11ca:	9306      	str	r3, [sp, #24]
    11cc:	f7ff b9b3 	b.w	536 <_svfprintf_r+0x26e>
    11d0:	e9dd 1007 	ldrd	r1, r0, [sp, #28]
    11d4:	aa21      	add	r2, sp, #132	@ 0x84
    11d6:	9313      	str	r3, [sp, #76]	@ 0x4c
    11d8:	f002 f822 	bl	3220 <__ssprint_r>
    11dc:	2800      	cmp	r0, #0
    11de:	f47f a9e4 	bne.w	5aa <_svfprintf_r+0x2e2>
    11e2:	9c23      	ldr	r4, [sp, #140]	@ 0x8c
    11e4:	9b13      	ldr	r3, [sp, #76]	@ 0x4c
    11e6:	f10d 09b8 	add.w	r9, sp, #184	@ 0xb8
    11ea:	f7ff ba05 	b.w	5f8 <_svfprintf_r+0x330>
    11ee:	9b22      	ldr	r3, [sp, #136]	@ 0x88
    11f0:	4a90      	ldr	r2, [pc, #576]	@ (1434 <_svfprintf_r+0x116c>)
    11f2:	f8c9 2000 	str.w	r2, [r9]
    11f6:	3301      	adds	r3, #1
    11f8:	3401      	adds	r4, #1
    11fa:	2201      	movs	r2, #1
    11fc:	2b07      	cmp	r3, #7
    11fe:	9423      	str	r4, [sp, #140]	@ 0x8c
    1200:	9322      	str	r3, [sp, #136]	@ 0x88
    1202:	f8c9 2004 	str.w	r2, [r9, #4]
    1206:	f300 80b8 	bgt.w	137a <_svfprintf_r+0x10b2>
    120a:	f109 0908 	add.w	r9, r9, #8
    120e:	2900      	cmp	r1, #0
    1210:	d152      	bne.n	12b8 <_svfprintf_r+0xff0>
    1212:	9b02      	ldr	r3, [sp, #8]
    1214:	9a0e      	ldr	r2, [sp, #56]	@ 0x38
    1216:	f003 0301 	and.w	r3, r3, #1
    121a:	4313      	orrs	r3, r2
    121c:	f43f aa30 	beq.w	680 <_svfprintf_r+0x3b8>
    1220:	9b0f      	ldr	r3, [sp, #60]	@ 0x3c
    1222:	9910      	ldr	r1, [sp, #64]	@ 0x40
    1224:	191a      	adds	r2, r3, r4
    1226:	e9c9 1300 	strd	r1, r3, [r9]
    122a:	9b22      	ldr	r3, [sp, #136]	@ 0x88
    122c:	9223      	str	r2, [sp, #140]	@ 0x8c
    122e:	3301      	adds	r3, #1
    1230:	2b07      	cmp	r3, #7
    1232:	9322      	str	r3, [sp, #136]	@ 0x88
    1234:	f300 8137 	bgt.w	14a6 <_svfprintf_r+0x11de>
    1238:	f109 0908 	add.w	r9, r9, #8
    123c:	990e      	ldr	r1, [sp, #56]	@ 0x38
    123e:	f8c9 5000 	str.w	r5, [r9]
    1242:	3301      	adds	r3, #1
    1244:	188c      	adds	r4, r1, r2
    1246:	2b07      	cmp	r3, #7
    1248:	e9cd 3422 	strd	r3, r4, [sp, #136]	@ 0x88
    124c:	f8c9 1004 	str.w	r1, [r9, #4]
    1250:	f77f aa14 	ble.w	67c <_svfprintf_r+0x3b4>
    1254:	e46a      	b.n	b2c <_svfprintf_r+0x864>
    1256:	e9dd 1007 	ldrd	r1, r0, [sp, #28]
    125a:	aa21      	add	r2, sp, #132	@ 0x84
    125c:	f001 ffe0 	bl	3220 <__ssprint_r>
    1260:	2800      	cmp	r0, #0
    1262:	f47f a9a2 	bne.w	5aa <_svfprintf_r+0x2e2>
    1266:	9c23      	ldr	r4, [sp, #140]	@ 0x8c
    1268:	f10d 09b8 	add.w	r9, sp, #184	@ 0xb8
    126c:	f7ff bb60 	b.w	930 <_svfprintf_r+0x668>
    1270:	e9dd 1007 	ldrd	r1, r0, [sp, #28]
    1274:	aa21      	add	r2, sp, #132	@ 0x84
    1276:	f001 ffd3 	bl	3220 <__ssprint_r>
    127a:	2800      	cmp	r0, #0
    127c:	f47f a995 	bne.w	5aa <_svfprintf_r+0x2e2>
    1280:	9c23      	ldr	r4, [sp, #140]	@ 0x8c
    1282:	f10d 09b8 	add.w	r9, sp, #184	@ 0xb8
    1286:	f7ff b9e2 	b.w	64e <_svfprintf_r+0x386>
    128a:	e9dd 1007 	ldrd	r1, r0, [sp, #28]
    128e:	aa21      	add	r2, sp, #132	@ 0x84
    1290:	f001 ffc6 	bl	3220 <__ssprint_r>
    1294:	2800      	cmp	r0, #0
    1296:	f47f a988 	bne.w	5aa <_svfprintf_r+0x2e2>
    129a:	9c23      	ldr	r4, [sp, #140]	@ 0x8c
    129c:	f10d 09b8 	add.w	r9, sp, #184	@ 0xb8
    12a0:	f7ff bb5c 	b.w	95c <_svfprintf_r+0x694>
    12a4:	4653      	mov	r3, sl
    12a6:	2b06      	cmp	r3, #6
    12a8:	bf28      	it	cs
    12aa:	2306      	movcs	r3, #6
    12ac:	4d62      	ldr	r5, [pc, #392]	@ (1438 <_svfprintf_r+0x1170>)
    12ae:	9306      	str	r3, [sp, #24]
    12b0:	9409      	str	r4, [sp, #36]	@ 0x24
    12b2:	9303      	str	r3, [sp, #12]
    12b4:	f7ff b98e 	b.w	5d4 <_svfprintf_r+0x30c>
    12b8:	9b0f      	ldr	r3, [sp, #60]	@ 0x3c
    12ba:	9810      	ldr	r0, [sp, #64]	@ 0x40
    12bc:	191a      	adds	r2, r3, r4
    12be:	e9c9 0300 	strd	r0, r3, [r9]
    12c2:	9b22      	ldr	r3, [sp, #136]	@ 0x88
    12c4:	9223      	str	r2, [sp, #140]	@ 0x8c
    12c6:	3301      	adds	r3, #1
    12c8:	2b07      	cmp	r3, #7
    12ca:	9322      	str	r3, [sp, #136]	@ 0x88
    12cc:	f300 80eb 	bgt.w	14a6 <_svfprintf_r+0x11de>
    12d0:	f109 0908 	add.w	r9, r9, #8
    12d4:	2900      	cmp	r1, #0
    12d6:	dab1      	bge.n	123c <_svfprintf_r+0xf74>
    12d8:	424e      	negs	r6, r1
    12da:	3110      	adds	r1, #16
    12dc:	4f57      	ldr	r7, [pc, #348]	@ (143c <_svfprintf_r+0x1174>)
    12de:	f280 813f 	bge.w	1560 <_svfprintf_r+0x1298>
    12e2:	e9dd a807 	ldrd	sl, r8, [sp, #28]
    12e6:	2410      	movs	r4, #16
    12e8:	e005      	b.n	12f6 <_svfprintf_r+0x102e>
    12ea:	f109 0908 	add.w	r9, r9, #8
    12ee:	3e10      	subs	r6, #16
    12f0:	2e10      	cmp	r6, #16
    12f2:	f340 8135 	ble.w	1560 <_svfprintf_r+0x1298>
    12f6:	3301      	adds	r3, #1
    12f8:	3210      	adds	r2, #16
    12fa:	2b07      	cmp	r3, #7
    12fc:	e9c9 7400 	strd	r7, r4, [r9]
    1300:	e9cd 3222 	strd	r3, r2, [sp, #136]	@ 0x88
    1304:	ddf1      	ble.n	12ea <_svfprintf_r+0x1022>
    1306:	aa21      	add	r2, sp, #132	@ 0x84
    1308:	4651      	mov	r1, sl
    130a:	4640      	mov	r0, r8
    130c:	f001 ff88 	bl	3220 <__ssprint_r>
    1310:	2800      	cmp	r0, #0
    1312:	f47f a94a 	bne.w	5aa <_svfprintf_r+0x2e2>
    1316:	e9dd 3222 	ldrd	r3, r2, [sp, #136]	@ 0x88
    131a:	f10d 09b8 	add.w	r9, sp, #184	@ 0xb8
    131e:	e7e6      	b.n	12ee <_svfprintf_r+0x1026>
    1320:	3601      	adds	r6, #1
    1322:	444c      	add	r4, r9
    1324:	2e07      	cmp	r6, #7
    1326:	e9cd 6422 	strd	r6, r4, [sp, #136]	@ 0x88
    132a:	f8c8 7000 	str.w	r7, [r8]
    132e:	f8c8 9004 	str.w	r9, [r8, #4]
    1332:	f77f ac41 	ble.w	bb8 <_svfprintf_r+0x8f0>
    1336:	e579      	b.n	e2c <_svfprintf_r+0xb64>
    1338:	4614      	mov	r4, r2
    133a:	3301      	adds	r3, #1
    133c:	4434      	add	r4, r6
    133e:	2b07      	cmp	r3, #7
    1340:	e9cd 3422 	strd	r3, r4, [sp, #136]	@ 0x88
    1344:	f8c9 7000 	str.w	r7, [r9]
    1348:	f8c9 6004 	str.w	r6, [r9, #4]
    134c:	f300 80b9 	bgt.w	14c2 <_svfprintf_r+0x11fa>
    1350:	f109 0908 	add.w	r9, r9, #8
    1354:	e501      	b.n	d5a <_svfprintf_r+0xa92>
    1356:	242d      	movs	r4, #45	@ 0x2d
    1358:	f88d 4067 	strb.w	r4, [sp, #103]	@ 0x67
    135c:	f7ff b9d8 	b.w	710 <_svfprintf_r+0x448>
    1360:	e9dd 1007 	ldrd	r1, r0, [sp, #28]
    1364:	aa21      	add	r2, sp, #132	@ 0x84
    1366:	f001 ff5b 	bl	3220 <__ssprint_r>
    136a:	2800      	cmp	r0, #0
    136c:	f47f a91d 	bne.w	5aa <_svfprintf_r+0x2e2>
    1370:	9b1b      	ldr	r3, [sp, #108]	@ 0x6c
    1372:	9c23      	ldr	r4, [sp, #140]	@ 0x8c
    1374:	f10d 09b8 	add.w	r9, sp, #184	@ 0xb8
    1378:	e502      	b.n	d80 <_svfprintf_r+0xab8>
    137a:	e9dd 1007 	ldrd	r1, r0, [sp, #28]
    137e:	aa21      	add	r2, sp, #132	@ 0x84
    1380:	f001 ff4e 	bl	3220 <__ssprint_r>
    1384:	2800      	cmp	r0, #0
    1386:	f47f a910 	bne.w	5aa <_svfprintf_r+0x2e2>
    138a:	991b      	ldr	r1, [sp, #108]	@ 0x6c
    138c:	9c23      	ldr	r4, [sp, #140]	@ 0x8c
    138e:	f10d 09b8 	add.w	r9, sp, #184	@ 0xb8
    1392:	e73c      	b.n	120e <_svfprintf_r+0xf46>
    1394:	f101 4300 	add.w	r3, r1, #2147483648	@ 0x80000000
    1398:	9317      	str	r3, [sp, #92]	@ 0x5c
    139a:	232d      	movs	r3, #45	@ 0x2d
    139c:	9016      	str	r0, [sp, #88]	@ 0x58
    139e:	930a      	str	r3, [sp, #40]	@ 0x28
    13a0:	e5d5      	b.n	f4e <_svfprintf_r+0xc86>
    13a2:	f1b8 0f66 	cmp.w	r8, #102	@ 0x66
    13a6:	f47f addc 	bne.w	f62 <_svfprintf_r+0xc9a>
    13aa:	f8cd a00c 	str.w	sl, [sp, #12]
    13ae:	2103      	movs	r1, #3
    13b0:	9c03      	ldr	r4, [sp, #12]
    13b2:	9808      	ldr	r0, [sp, #32]
    13b4:	ab1f      	add	r3, sp, #124	@ 0x7c
    13b6:	9301      	str	r3, [sp, #4]
    13b8:	ab1c      	add	r3, sp, #112	@ 0x70
    13ba:	9300      	str	r3, [sp, #0]
    13bc:	4622      	mov	r2, r4
    13be:	ed9d 0b16 	vldr	d0, [sp, #88]	@ 0x58
    13c2:	ab1b      	add	r3, sp, #108	@ 0x6c
    13c4:	f000 fca6 	bl	1d14 <_dtoa_r>
    13c8:	f1b8 0f66 	cmp.w	r8, #102	@ 0x66
    13cc:	4605      	mov	r5, r0
    13ce:	4404      	add	r4, r0
    13d0:	f47f add9 	bne.w	f86 <_svfprintf_r+0xcbe>
    13d4:	782b      	ldrb	r3, [r5, #0]
    13d6:	2b30      	cmp	r3, #48	@ 0x30
    13d8:	f000 80e7 	beq.w	15aa <_svfprintf_r+0x12e2>
    13dc:	9b1b      	ldr	r3, [sp, #108]	@ 0x6c
    13de:	441c      	add	r4, r3
    13e0:	e5d1      	b.n	f86 <_svfprintf_r+0xcbe>
    13e2:	9a1b      	ldr	r2, [sp, #108]	@ 0x6c
    13e4:	920b      	str	r2, [sp, #44]	@ 0x2c
    13e6:	4623      	mov	r3, r4
    13e8:	e5e2      	b.n	fb0 <_svfprintf_r+0xce8>
    13ea:	459a      	cmp	sl, r3
    13ec:	f6ff ae7a 	blt.w	10e4 <_svfprintf_r+0xe1c>
    13f0:	9b0e      	ldr	r3, [sp, #56]	@ 0x38
    13f2:	9a0b      	ldr	r2, [sp, #44]	@ 0x2c
    13f4:	4293      	cmp	r3, r2
    13f6:	f300 80cb 	bgt.w	1590 <_svfprintf_r+0x12c8>
    13fa:	07fe      	lsls	r6, r7, #31
    13fc:	9b0b      	ldr	r3, [sp, #44]	@ 0x2c
    13fe:	f100 80fb 	bmi.w	15f8 <_svfprintf_r+0x1330>
    1402:	ea23 72e3 	bic.w	r2, r3, r3, asr #31
    1406:	9203      	str	r2, [sp, #12]
    1408:	9306      	str	r3, [sp, #24]
    140a:	f04f 0867 	mov.w	r8, #103	@ 0x67
    140e:	9b0a      	ldr	r3, [sp, #40]	@ 0x28
    1410:	2b00      	cmp	r3, #0
    1412:	d062      	beq.n	14da <_svfprintf_r+0x1212>
    1414:	232d      	movs	r3, #45	@ 0x2d
    1416:	f88d 3067 	strb.w	r3, [sp, #103]	@ 0x67
    141a:	f04f 0a00 	mov.w	sl, #0
    141e:	f7ff b892 	b.w	546 <_svfprintf_r+0x27e>
    1422:	e9dd 1007 	ldrd	r1, r0, [sp, #28]
    1426:	aa21      	add	r2, sp, #132	@ 0x84
    1428:	f001 fefa 	bl	3220 <__ssprint_r>
    142c:	f7ff b8bd 	b.w	5aa <_svfprintf_r+0x2e2>
    1430:	cccccccd 	.word	0xcccccccd
    1434:	000078ac 	.word	0x000078ac
    1438:	000078a4 	.word	0x000078a4
    143c:	00006cf0 	.word	0x00006cf0
    1440:	f10d 0483 	add.w	r4, sp, #131	@ 0x83
    1444:	4e8d      	ldr	r6, [pc, #564]	@ (167c <_svfprintf_r+0x13b4>)
    1446:	4623      	mov	r3, r4
    1448:	4618      	mov	r0, r3
    144a:	fba6 2301 	umull	r2, r3, r6, r1
    144e:	08db      	lsrs	r3, r3, #3
    1450:	eb03 0283 	add.w	r2, r3, r3, lsl #2
    1454:	eba1 0242 	sub.w	r2, r1, r2, lsl #1
    1458:	3230      	adds	r2, #48	@ 0x30
    145a:	f800 2c01 	strb.w	r2, [r0, #-1]
    145e:	460a      	mov	r2, r1
    1460:	2a63      	cmp	r2, #99	@ 0x63
    1462:	4619      	mov	r1, r3
    1464:	f100 33ff 	add.w	r3, r0, #4294967295	@ 0xffffffff
    1468:	dcee      	bgt.n	1448 <_svfprintf_r+0x1180>
    146a:	3130      	adds	r1, #48	@ 0x30
    146c:	f803 1c01 	strb.w	r1, [r3, #-1]
    1470:	1e83      	subs	r3, r0, #2
    1472:	42a3      	cmp	r3, r4
    1474:	f080 80fe 	bcs.w	1674 <_svfprintf_r+0x13ac>
    1478:	f10d 0275 	add.w	r2, sp, #117	@ 0x75
    147c:	f813 1b01 	ldrb.w	r1, [r3], #1
    1480:	f802 1f01 	strb.w	r1, [r2, #1]!
    1484:	42a3      	cmp	r3, r4
    1486:	d1f9      	bne.n	147c <_svfprintf_r+0x11b4>
    1488:	ab3e      	add	r3, sp, #248	@ 0xf8
    148a:	1a18      	subs	r0, r3, r0
    148c:	f1a0 0371 	sub.w	r3, r0, #113	@ 0x71
    1490:	9312      	str	r3, [sp, #72]	@ 0x48
    1492:	e641      	b.n	1118 <_svfprintf_r+0xe50>
    1494:	2b00      	cmp	r3, #0
    1496:	f040 80d0 	bne.w	163a <_svfprintf_r+0x1372>
    149a:	2301      	movs	r3, #1
    149c:	9303      	str	r3, [sp, #12]
    149e:	f04f 0866 	mov.w	r8, #102	@ 0x66
    14a2:	9306      	str	r3, [sp, #24]
    14a4:	e7b3      	b.n	140e <_svfprintf_r+0x1146>
    14a6:	e9dd 1007 	ldrd	r1, r0, [sp, #28]
    14aa:	aa21      	add	r2, sp, #132	@ 0x84
    14ac:	f001 feb8 	bl	3220 <__ssprint_r>
    14b0:	2800      	cmp	r0, #0
    14b2:	f47f a87a 	bne.w	5aa <_svfprintf_r+0x2e2>
    14b6:	e9dd 3222 	ldrd	r3, r2, [sp, #136]	@ 0x88
    14ba:	991b      	ldr	r1, [sp, #108]	@ 0x6c
    14bc:	f10d 09b8 	add.w	r9, sp, #184	@ 0xb8
    14c0:	e708      	b.n	12d4 <_svfprintf_r+0x100c>
    14c2:	e9dd 1007 	ldrd	r1, r0, [sp, #28]
    14c6:	aa21      	add	r2, sp, #132	@ 0x84
    14c8:	f001 feaa 	bl	3220 <__ssprint_r>
    14cc:	2800      	cmp	r0, #0
    14ce:	f47f a86c 	bne.w	5aa <_svfprintf_r+0x2e2>
    14d2:	9c23      	ldr	r4, [sp, #140]	@ 0x8c
    14d4:	f10d 09b8 	add.w	r9, sp, #184	@ 0xb8
    14d8:	e43f      	b.n	d5a <_svfprintf_r+0xa92>
    14da:	f8dd a028 	ldr.w	sl, [sp, #40]	@ 0x28
    14de:	f89d 4067 	ldrb.w	r4, [sp, #103]	@ 0x67
    14e2:	f7ff b82f 	b.w	544 <_svfprintf_r+0x27c>
    14e6:	e9dd 1007 	ldrd	r1, r0, [sp, #28]
    14ea:	aa21      	add	r2, sp, #132	@ 0x84
    14ec:	f001 fe98 	bl	3220 <__ssprint_r>
    14f0:	2800      	cmp	r0, #0
    14f2:	f47f a85a 	bne.w	5aa <_svfprintf_r+0x2e2>
    14f6:	9c23      	ldr	r4, [sp, #140]	@ 0x8c
    14f8:	f10d 09b8 	add.w	r9, sp, #184	@ 0xb8
    14fc:	e426      	b.n	d4c <_svfprintf_r+0xa84>
    14fe:	e9dd 1007 	ldrd	r1, r0, [sp, #28]
    1502:	aa21      	add	r2, sp, #132	@ 0x84
    1504:	f001 fe8c 	bl	3220 <__ssprint_r>
    1508:	2800      	cmp	r0, #0
    150a:	f47f a84e 	bne.w	5aa <_svfprintf_r+0x2e2>
    150e:	9b1b      	ldr	r3, [sp, #108]	@ 0x6c
    1510:	9a0e      	ldr	r2, [sp, #56]	@ 0x38
    1512:	9c23      	ldr	r4, [sp, #140]	@ 0x8c
    1514:	1ad3      	subs	r3, r2, r3
    1516:	f10d 09b8 	add.w	r9, sp, #184	@ 0xb8
    151a:	e449      	b.n	db0 <_svfprintf_r+0xae8>
    151c:	f04f 0a06 	mov.w	sl, #6
    1520:	e507      	b.n	f32 <_svfprintf_r+0xc6a>
    1522:	9409      	str	r4, [sp, #36]	@ 0x24
    1524:	f8cd a00c 	str.w	sl, [sp, #12]
    1528:	f8cd a018 	str.w	sl, [sp, #24]
    152c:	f89d 4067 	ldrb.w	r4, [sp, #103]	@ 0x67
    1530:	9702      	str	r7, [sp, #8]
    1532:	4682      	mov	sl, r0
    1534:	900b      	str	r0, [sp, #44]	@ 0x2c
    1536:	f7ff b805 	b.w	544 <_svfprintf_r+0x27c>
    153a:	f10a 0301 	add.w	r3, sl, #1
    153e:	9303      	str	r3, [sp, #12]
    1540:	2102      	movs	r1, #2
    1542:	e735      	b.n	13b0 <_svfprintf_r+0x10e8>
    1544:	4693      	mov	fp, r2
    1546:	f04f 0a00 	mov.w	sl, #0
    154a:	f7fe bf07 	b.w	35c <_svfprintf_r+0x94>
    154e:	f017 0201 	ands.w	r2, r7, #1
    1552:	920b      	str	r2, [sp, #44]	@ 0x2c
    1554:	f47f ade7 	bne.w	1126 <_svfprintf_r+0xe5e>
    1558:	ea23 73e3 	bic.w	r3, r3, r3, asr #31
    155c:	9303      	str	r3, [sp, #12]
    155e:	e756      	b.n	140e <_svfprintf_r+0x1146>
    1560:	3301      	adds	r3, #1
    1562:	4432      	add	r2, r6
    1564:	2b07      	cmp	r3, #7
    1566:	e9cd 3222 	strd	r3, r2, [sp, #136]	@ 0x88
    156a:	f8c9 7000 	str.w	r7, [r9]
    156e:	f8c9 6004 	str.w	r6, [r9, #4]
    1572:	f77f ae61 	ble.w	1238 <_svfprintf_r+0xf70>
    1576:	e9dd 1007 	ldrd	r1, r0, [sp, #28]
    157a:	aa21      	add	r2, sp, #132	@ 0x84
    157c:	f001 fe50 	bl	3220 <__ssprint_r>
    1580:	2800      	cmp	r0, #0
    1582:	f47f a812 	bne.w	5aa <_svfprintf_r+0x2e2>
    1586:	e9dd 3222 	ldrd	r3, r2, [sp, #136]	@ 0x88
    158a:	f10d 09b8 	add.w	r9, sp, #184	@ 0xb8
    158e:	e655      	b.n	123c <_svfprintf_r+0xf74>
    1590:	e9dd 320e 	ldrd	r3, r2, [sp, #56]	@ 0x38
    1594:	4413      	add	r3, r2
    1596:	9a0b      	ldr	r2, [sp, #44]	@ 0x2c
    1598:	9306      	str	r3, [sp, #24]
    159a:	2a00      	cmp	r2, #0
    159c:	dd41      	ble.n	1622 <_svfprintf_r+0x135a>
    159e:	ea23 73e3 	bic.w	r3, r3, r3, asr #31
    15a2:	9303      	str	r3, [sp, #12]
    15a4:	f04f 0867 	mov.w	r8, #103	@ 0x67
    15a8:	e731      	b.n	140e <_svfprintf_r+0x1146>
    15aa:	e9dd 0116 	ldrd	r0, r1, [sp, #88]	@ 0x58
    15ae:	2200      	movs	r2, #0
    15b0:	2300      	movs	r3, #0
    15b2:	f004 ff71 	bl	6498 <__aeabi_dcmpeq>
    15b6:	2800      	cmp	r0, #0
    15b8:	d04b      	beq.n	1652 <_svfprintf_r+0x138a>
    15ba:	9b1b      	ldr	r3, [sp, #108]	@ 0x6c
    15bc:	930b      	str	r3, [sp, #44]	@ 0x2c
    15be:	441c      	add	r4, r3
    15c0:	1b63      	subs	r3, r4, r5
    15c2:	930e      	str	r3, [sp, #56]	@ 0x38
    15c4:	e4fd      	b.n	fc2 <_svfprintf_r+0xcfa>
    15c6:	9a08      	ldr	r2, [sp, #32]
    15c8:	230c      	movs	r3, #12
    15ca:	6013      	str	r3, [r2, #0]
    15cc:	f04f 33ff 	mov.w	r3, #4294967295	@ 0xffffffff
    15d0:	9305      	str	r3, [sp, #20]
    15d2:	f7fe bfef 	b.w	5b4 <_svfprintf_r+0x2ec>
    15d6:	9b0d      	ldr	r3, [sp, #52]	@ 0x34
    15d8:	4d29      	ldr	r5, [pc, #164]	@ (1680 <_svfprintf_r+0x13b8>)
    15da:	2b00      	cmp	r3, #0
    15dc:	bfb8      	it	lt
    15de:	242d      	movlt	r4, #45	@ 0x2d
    15e0:	f027 0380 	bic.w	r3, r7, #128	@ 0x80
    15e4:	9302      	str	r3, [sp, #8]
    15e6:	bfa8      	it	ge
    15e8:	f89d 4067 	ldrbge.w	r4, [sp, #103]	@ 0x67
    15ec:	4b25      	ldr	r3, [pc, #148]	@ (1684 <_svfprintf_r+0x13bc>)
    15ee:	bfb8      	it	lt
    15f0:	f88d 4067 	strblt.w	r4, [sp, #103]	@ 0x67
    15f4:	f7ff b891 	b.w	71a <_svfprintf_r+0x452>
    15f8:	9a0f      	ldr	r2, [sp, #60]	@ 0x3c
    15fa:	4413      	add	r3, r2
    15fc:	9306      	str	r3, [sp, #24]
    15fe:	ea23 73e3 	bic.w	r3, r3, r3, asr #31
    1602:	9303      	str	r3, [sp, #12]
    1604:	f04f 0867 	mov.w	r8, #103	@ 0x67
    1608:	e701      	b.n	140e <_svfprintf_r+0x1146>
    160a:	9b0f      	ldr	r3, [sp, #60]	@ 0x3c
    160c:	eb0a 0803 	add.w	r8, sl, r3
    1610:	eb08 0302 	add.w	r3, r8, r2
    1614:	9306      	str	r3, [sp, #24]
    1616:	ea23 73e3 	bic.w	r3, r3, r3, asr #31
    161a:	9303      	str	r3, [sp, #12]
    161c:	f04f 0866 	mov.w	r8, #102	@ 0x66
    1620:	e6f5      	b.n	140e <_svfprintf_r+0x1146>
    1622:	9b0b      	ldr	r3, [sp, #44]	@ 0x2c
    1624:	9a06      	ldr	r2, [sp, #24]
    1626:	f1c3 0301 	rsb	r3, r3, #1
    162a:	441a      	add	r2, r3
    162c:	ea22 73e2 	bic.w	r3, r2, r2, asr #31
    1630:	9206      	str	r2, [sp, #24]
    1632:	9303      	str	r3, [sp, #12]
    1634:	f04f 0867 	mov.w	r8, #103	@ 0x67
    1638:	e6e9      	b.n	140e <_svfprintf_r+0x1146>
    163a:	9b0f      	ldr	r3, [sp, #60]	@ 0x3c
    163c:	f103 0801 	add.w	r8, r3, #1
    1640:	eb08 030a 	add.w	r3, r8, sl
    1644:	9306      	str	r3, [sp, #24]
    1646:	ea23 73e3 	bic.w	r3, r3, r3, asr #31
    164a:	9303      	str	r3, [sp, #12]
    164c:	f04f 0866 	mov.w	r8, #102	@ 0x66
    1650:	e6dd      	b.n	140e <_svfprintf_r+0x1146>
    1652:	9b03      	ldr	r3, [sp, #12]
    1654:	f1c3 0301 	rsb	r3, r3, #1
    1658:	931b      	str	r3, [sp, #108]	@ 0x6c
    165a:	441c      	add	r4, r3
    165c:	e493      	b.n	f86 <_svfprintf_r+0xcbe>
    165e:	9909      	ldr	r1, [sp, #36]	@ 0x24
    1660:	f89b 3001 	ldrb.w	r3, [fp, #1]
    1664:	f851 ab04 	ldr.w	sl, [r1], #4
    1668:	9109      	str	r1, [sp, #36]	@ 0x24
    166a:	4693      	mov	fp, r2
    166c:	ea4a 7aea 	orr.w	sl, sl, sl, asr #31
    1670:	f7fe be71 	b.w	356 <_svfprintf_r+0x8e>
    1674:	2302      	movs	r3, #2
    1676:	9312      	str	r3, [sp, #72]	@ 0x48
    1678:	e54e      	b.n	1118 <_svfprintf_r+0xe50>
    167a:	bf00      	nop
    167c:	cccccccd 	.word	0xcccccccd
    1680:	00007878 	.word	0x00007878
    1684:	00007874 	.word	0x00007874

00001688 <__errno>:
    1688:	4b01      	ldr	r3, [pc, #4]	@ (1690 <__errno+0x8>)
    168a:	6818      	ldr	r0, [r3, #0]
    168c:	4770      	bx	lr
    168e:	bf00      	nop
    1690:	20000000 	.word	0x20000000

00001694 <_malloc_r>:
    1694:	e92d 4ff0 	stmdb	sp!, {r4, r5, r6, r7, r8, r9, sl, fp, lr}
    1698:	f101 050b 	add.w	r5, r1, #11
    169c:	2d16      	cmp	r5, #22
    169e:	b083      	sub	sp, #12
    16a0:	4606      	mov	r6, r0
    16a2:	d823      	bhi.n	16ec <_malloc_r+0x58>
    16a4:	2910      	cmp	r1, #16
    16a6:	f200 80af 	bhi.w	1808 <_malloc_r+0x174>
    16aa:	f001 fca3 	bl	2ff4 <__malloc_lock>
    16ae:	2510      	movs	r5, #16
    16b0:	2318      	movs	r3, #24
    16b2:	2002      	movs	r0, #2
    16b4:	4fc0      	ldr	r7, [pc, #768]	@ (19b8 <_malloc_r+0x324>)
    16b6:	443b      	add	r3, r7
    16b8:	f1a3 0208 	sub.w	r2, r3, #8
    16bc:	685c      	ldr	r4, [r3, #4]
    16be:	4294      	cmp	r4, r2
    16c0:	f000 8124 	beq.w	190c <_malloc_r+0x278>
    16c4:	6863      	ldr	r3, [r4, #4]
    16c6:	68e2      	ldr	r2, [r4, #12]
    16c8:	68a1      	ldr	r1, [r4, #8]
    16ca:	f023 0303 	bic.w	r3, r3, #3
    16ce:	60ca      	str	r2, [r1, #12]
    16d0:	4423      	add	r3, r4
    16d2:	4630      	mov	r0, r6
    16d4:	6091      	str	r1, [r2, #8]
    16d6:	685a      	ldr	r2, [r3, #4]
    16d8:	f042 0201 	orr.w	r2, r2, #1
    16dc:	605a      	str	r2, [r3, #4]
    16de:	f001 fc8b 	bl	2ff8 <__malloc_unlock>
    16e2:	3408      	adds	r4, #8
    16e4:	4620      	mov	r0, r4
    16e6:	b003      	add	sp, #12
    16e8:	e8bd 8ff0 	ldmia.w	sp!, {r4, r5, r6, r7, r8, r9, sl, fp, pc}
    16ec:	f035 0507 	bics.w	r5, r5, #7
    16f0:	f100 808a 	bmi.w	1808 <_malloc_r+0x174>
    16f4:	42a9      	cmp	r1, r5
    16f6:	f200 8087 	bhi.w	1808 <_malloc_r+0x174>
    16fa:	f001 fc7b 	bl	2ff4 <__malloc_lock>
    16fe:	f5b5 7ffc 	cmp.w	r5, #504	@ 0x1f8
    1702:	f0c0 816b 	bcc.w	19dc <_malloc_r+0x348>
    1706:	0a6b      	lsrs	r3, r5, #9
    1708:	f000 8082 	beq.w	1810 <_malloc_r+0x17c>
    170c:	2b04      	cmp	r3, #4
    170e:	f200 8123 	bhi.w	1958 <_malloc_r+0x2c4>
    1712:	09ab      	lsrs	r3, r5, #6
    1714:	f103 0039 	add.w	r0, r3, #57	@ 0x39
    1718:	f103 0e38 	add.w	lr, r3, #56	@ 0x38
    171c:	00c3      	lsls	r3, r0, #3
    171e:	4fa6      	ldr	r7, [pc, #664]	@ (19b8 <_malloc_r+0x324>)
    1720:	443b      	add	r3, r7
    1722:	f1a3 0c08 	sub.w	ip, r3, #8
    1726:	685c      	ldr	r4, [r3, #4]
    1728:	45a4      	cmp	ip, r4
    172a:	d107      	bne.n	173c <_malloc_r+0xa8>
    172c:	e00d      	b.n	174a <_malloc_r+0xb6>
    172e:	2a00      	cmp	r2, #0
    1730:	68e1      	ldr	r1, [r4, #12]
    1732:	f280 80e5 	bge.w	1900 <_malloc_r+0x26c>
    1736:	458c      	cmp	ip, r1
    1738:	d007      	beq.n	174a <_malloc_r+0xb6>
    173a:	460c      	mov	r4, r1
    173c:	6863      	ldr	r3, [r4, #4]
    173e:	f023 0303 	bic.w	r3, r3, #3
    1742:	1b5a      	subs	r2, r3, r5
    1744:	2a0f      	cmp	r2, #15
    1746:	ddf2      	ble.n	172e <_malloc_r+0x9a>
    1748:	4670      	mov	r0, lr
    174a:	f8df 8270 	ldr.w	r8, [pc, #624]	@ 19bc <_malloc_r+0x328>
    174e:	693c      	ldr	r4, [r7, #16]
    1750:	4544      	cmp	r4, r8
    1752:	f000 80c2 	beq.w	18da <_malloc_r+0x246>
    1756:	6863      	ldr	r3, [r4, #4]
    1758:	f023 0c03 	bic.w	ip, r3, #3
    175c:	ebac 0305 	sub.w	r3, ip, r5
    1760:	2b0f      	cmp	r3, #15
    1762:	f300 813f 	bgt.w	19e4 <_malloc_r+0x350>
    1766:	2b00      	cmp	r3, #0
    1768:	e9c7 8804 	strd	r8, r8, [r7, #16]
    176c:	f280 812a 	bge.w	19c4 <_malloc_r+0x330>
    1770:	f5bc 7f00 	cmp.w	ip, #512	@ 0x200
    1774:	f8d7 e004 	ldr.w	lr, [r7, #4]
    1778:	f080 80ce 	bcs.w	1918 <_malloc_r+0x284>
    177c:	ea4f 01dc 	mov.w	r1, ip, lsr #3
    1780:	3101      	adds	r1, #1
    1782:	ea4f 1c5c 	mov.w	ip, ip, lsr #5
    1786:	2301      	movs	r3, #1
    1788:	fa03 f30c 	lsl.w	r3, r3, ip
    178c:	f857 2031 	ldr.w	r2, [r7, r1, lsl #3]
    1790:	60a2      	str	r2, [r4, #8]
    1792:	ea4e 0e03 	orr.w	lr, lr, r3
    1796:	eb07 03c1 	add.w	r3, r7, r1, lsl #3
    179a:	3b08      	subs	r3, #8
    179c:	60e3      	str	r3, [r4, #12]
    179e:	f8c7 e004 	str.w	lr, [r7, #4]
    17a2:	f847 4031 	str.w	r4, [r7, r1, lsl #3]
    17a6:	60d4      	str	r4, [r2, #12]
    17a8:	1083      	asrs	r3, r0, #2
    17aa:	f04f 0c01 	mov.w	ip, #1
    17ae:	fa0c fc03 	lsl.w	ip, ip, r3
    17b2:	45f4      	cmp	ip, lr
    17b4:	d832      	bhi.n	181c <_malloc_r+0x188>
    17b6:	ea1c 0f0e 	tst.w	ip, lr
    17ba:	d108      	bne.n	17ce <_malloc_r+0x13a>
    17bc:	f020 0003 	bic.w	r0, r0, #3
    17c0:	ea4f 0c4c 	mov.w	ip, ip, lsl #1
    17c4:	ea1c 0f0e 	tst.w	ip, lr
    17c8:	f100 0004 	add.w	r0, r0, #4
    17cc:	d0f8      	beq.n	17c0 <_malloc_r+0x12c>
    17ce:	eb07 0ac0 	add.w	sl, r7, r0, lsl #3
    17d2:	46d6      	mov	lr, sl
    17d4:	4681      	mov	r9, r0
    17d6:	f8de 300c 	ldr.w	r3, [lr, #12]
    17da:	e00b      	b.n	17f4 <_malloc_r+0x160>
    17dc:	6859      	ldr	r1, [r3, #4]
    17de:	f021 0103 	bic.w	r1, r1, #3
    17e2:	1b4a      	subs	r2, r1, r5
    17e4:	2a0f      	cmp	r2, #15
    17e6:	461c      	mov	r4, r3
    17e8:	68db      	ldr	r3, [r3, #12]
    17ea:	f300 80c1 	bgt.w	1970 <_malloc_r+0x2dc>
    17ee:	2a00      	cmp	r2, #0
    17f0:	f280 80d5 	bge.w	199e <_malloc_r+0x30a>
    17f4:	459e      	cmp	lr, r3
    17f6:	d1f1      	bne.n	17dc <_malloc_r+0x148>
    17f8:	f109 0901 	add.w	r9, r9, #1
    17fc:	f019 0f03 	tst.w	r9, #3
    1800:	f10e 0e08 	add.w	lr, lr, #8
    1804:	d1e7      	bne.n	17d6 <_malloc_r+0x142>
    1806:	e116      	b.n	1a36 <_malloc_r+0x3a2>
    1808:	230c      	movs	r3, #12
    180a:	6033      	str	r3, [r6, #0]
    180c:	2400      	movs	r4, #0
    180e:	e769      	b.n	16e4 <_malloc_r+0x50>
    1810:	f44f 7300 	mov.w	r3, #512	@ 0x200
    1814:	2040      	movs	r0, #64	@ 0x40
    1816:	f04f 0e3f 	mov.w	lr, #63	@ 0x3f
    181a:	e780      	b.n	171e <_malloc_r+0x8a>
    181c:	68bc      	ldr	r4, [r7, #8]
    181e:	6863      	ldr	r3, [r4, #4]
    1820:	f023 0903 	bic.w	r9, r3, #3
    1824:	45a9      	cmp	r9, r5
    1826:	d303      	bcc.n	1830 <_malloc_r+0x19c>
    1828:	eba9 0305 	sub.w	r3, r9, r5
    182c:	2b0f      	cmp	r3, #15
    182e:	dc57      	bgt.n	18e0 <_malloc_r+0x24c>
    1830:	f8df b18c 	ldr.w	fp, [pc, #396]	@ 19c0 <_malloc_r+0x32c>
    1834:	f8db 2000 	ldr.w	r2, [fp]
    1838:	eb04 0309 	add.w	r3, r4, r9
    183c:	3210      	adds	r2, #16
    183e:	2008      	movs	r0, #8
    1840:	eb02 0805 	add.w	r8, r2, r5
    1844:	9300      	str	r3, [sp, #0]
    1846:	f001 fbc7 	bl	2fd8 <sysconf>
    184a:	f8d7 1408 	ldr.w	r1, [r7, #1032]	@ 0x408
    184e:	3101      	adds	r1, #1
    1850:	4602      	mov	r2, r0
    1852:	d005      	beq.n	1860 <_malloc_r+0x1cc>
    1854:	f108 38ff 	add.w	r8, r8, #4294967295	@ 0xffffffff
    1858:	4480      	add	r8, r0
    185a:	4241      	negs	r1, r0
    185c:	ea01 0808 	and.w	r8, r1, r8
    1860:	4641      	mov	r1, r8
    1862:	4630      	mov	r0, r6
    1864:	9201      	str	r2, [sp, #4]
    1866:	f001 fd07 	bl	3278 <_sbrk_r>
    186a:	f1b0 3fff 	cmp.w	r0, #4294967295	@ 0xffffffff
    186e:	9a01      	ldr	r2, [sp, #4]
    1870:	4682      	mov	sl, r0
    1872:	f000 80d2 	beq.w	1a1a <_malloc_r+0x386>
    1876:	9b00      	ldr	r3, [sp, #0]
    1878:	4283      	cmp	r3, r0
    187a:	f200 80cc 	bhi.w	1a16 <_malloc_r+0x382>
    187e:	f8db 1004 	ldr.w	r1, [fp, #4]
    1882:	4441      	add	r1, r8
    1884:	f8cb 1004 	str.w	r1, [fp, #4]
    1888:	4608      	mov	r0, r1
    188a:	f102 3cff 	add.w	ip, r2, #4294967295	@ 0xffffffff
    188e:	f040 80f4 	bne.w	1a7a <_malloc_r+0x3e6>
    1892:	ea1a 0f0c 	tst.w	sl, ip
    1896:	f040 80f0 	bne.w	1a7a <_malloc_r+0x3e6>
    189a:	f8d7 a008 	ldr.w	sl, [r7, #8]
    189e:	44c8      	add	r8, r9
    18a0:	f048 0001 	orr.w	r0, r8, #1
    18a4:	f8ca 0004 	str.w	r0, [sl, #4]
    18a8:	f8db 202c 	ldr.w	r2, [fp, #44]	@ 0x2c
    18ac:	428a      	cmp	r2, r1
    18ae:	f8db 2030 	ldr.w	r2, [fp, #48]	@ 0x30
    18b2:	bf38      	it	cc
    18b4:	f8cb 102c 	strcc.w	r1, [fp, #44]	@ 0x2c
    18b8:	428a      	cmp	r2, r1
    18ba:	bf38      	it	cc
    18bc:	f8cb 1030 	strcc.w	r1, [fp, #48]	@ 0x30
    18c0:	4654      	mov	r4, sl
    18c2:	f020 0803 	bic.w	r8, r0, #3
    18c6:	45a8      	cmp	r8, r5
    18c8:	eba8 0305 	sub.w	r3, r8, r5
    18cc:	d301      	bcc.n	18d2 <_malloc_r+0x23e>
    18ce:	2b0f      	cmp	r3, #15
    18d0:	dc06      	bgt.n	18e0 <_malloc_r+0x24c>
    18d2:	4630      	mov	r0, r6
    18d4:	f001 fb90 	bl	2ff8 <__malloc_unlock>
    18d8:	e798      	b.n	180c <_malloc_r+0x178>
    18da:	f8d7 e004 	ldr.w	lr, [r7, #4]
    18de:	e763      	b.n	17a8 <_malloc_r+0x114>
    18e0:	1962      	adds	r2, r4, r5
    18e2:	f043 0301 	orr.w	r3, r3, #1
    18e6:	f045 0501 	orr.w	r5, r5, #1
    18ea:	6065      	str	r5, [r4, #4]
    18ec:	4630      	mov	r0, r6
    18ee:	60ba      	str	r2, [r7, #8]
    18f0:	6053      	str	r3, [r2, #4]
    18f2:	f001 fb81 	bl	2ff8 <__malloc_unlock>
    18f6:	3408      	adds	r4, #8
    18f8:	4620      	mov	r0, r4
    18fa:	b003      	add	sp, #12
    18fc:	e8bd 8ff0 	ldmia.w	sp!, {r4, r5, r6, r7, r8, r9, sl, fp, pc}
    1900:	68a2      	ldr	r2, [r4, #8]
    1902:	4423      	add	r3, r4
    1904:	60d1      	str	r1, [r2, #12]
    1906:	4630      	mov	r0, r6
    1908:	608a      	str	r2, [r1, #8]
    190a:	e6e4      	b.n	16d6 <_malloc_r+0x42>
    190c:	68dc      	ldr	r4, [r3, #12]
    190e:	42a3      	cmp	r3, r4
    1910:	f47f aed8 	bne.w	16c4 <_malloc_r+0x30>
    1914:	3002      	adds	r0, #2
    1916:	e718      	b.n	174a <_malloc_r+0xb6>
    1918:	f5bc 6f20 	cmp.w	ip, #2560	@ 0xa00
    191c:	ea4f 225c 	mov.w	r2, ip, lsr #9
    1920:	d372      	bcc.n	1a08 <_malloc_r+0x374>
    1922:	2a14      	cmp	r2, #20
    1924:	f200 8108 	bhi.w	1b38 <_malloc_r+0x4a4>
    1928:	f102 035c 	add.w	r3, r2, #92	@ 0x5c
    192c:	00db      	lsls	r3, r3, #3
    192e:	325b      	adds	r2, #91	@ 0x5b
    1930:	18f9      	adds	r1, r7, r3
    1932:	58fb      	ldr	r3, [r7, r3]
    1934:	3908      	subs	r1, #8
    1936:	4299      	cmp	r1, r3
    1938:	d103      	bne.n	1942 <_malloc_r+0x2ae>
    193a:	e0e4      	b.n	1b06 <_malloc_r+0x472>
    193c:	689b      	ldr	r3, [r3, #8]
    193e:	4299      	cmp	r1, r3
    1940:	d004      	beq.n	194c <_malloc_r+0x2b8>
    1942:	685a      	ldr	r2, [r3, #4]
    1944:	f022 0203 	bic.w	r2, r2, #3
    1948:	4562      	cmp	r2, ip
    194a:	d8f7      	bhi.n	193c <_malloc_r+0x2a8>
    194c:	68d9      	ldr	r1, [r3, #12]
    194e:	e9c4 3102 	strd	r3, r1, [r4, #8]
    1952:	608c      	str	r4, [r1, #8]
    1954:	60dc      	str	r4, [r3, #12]
    1956:	e727      	b.n	17a8 <_malloc_r+0x114>
    1958:	2b14      	cmp	r3, #20
    195a:	d961      	bls.n	1a20 <_malloc_r+0x38c>
    195c:	2b54      	cmp	r3, #84	@ 0x54
    195e:	f200 80f4 	bhi.w	1b4a <_malloc_r+0x4b6>
    1962:	0b2b      	lsrs	r3, r5, #12
    1964:	f103 006f 	add.w	r0, r3, #111	@ 0x6f
    1968:	f103 0e6e 	add.w	lr, r3, #110	@ 0x6e
    196c:	00c3      	lsls	r3, r0, #3
    196e:	e6d6      	b.n	171e <_malloc_r+0x8a>
    1970:	f8d4 c008 	ldr.w	ip, [r4, #8]
    1974:	4630      	mov	r0, r6
    1976:	1966      	adds	r6, r4, r5
    1978:	f045 0501 	orr.w	r5, r5, #1
    197c:	6065      	str	r5, [r4, #4]
    197e:	f8cc 300c 	str.w	r3, [ip, #12]
    1982:	f8c3 c008 	str.w	ip, [r3, #8]
    1986:	f042 0301 	orr.w	r3, r2, #1
    198a:	e9c7 6604 	strd	r6, r6, [r7, #16]
    198e:	e9c6 8802 	strd	r8, r8, [r6, #8]
    1992:	6073      	str	r3, [r6, #4]
    1994:	5062      	str	r2, [r4, r1]
    1996:	f001 fb2f 	bl	2ff8 <__malloc_unlock>
    199a:	3408      	adds	r4, #8
    199c:	e6a2      	b.n	16e4 <_malloc_r+0x50>
    199e:	4421      	add	r1, r4
    19a0:	4630      	mov	r0, r6
    19a2:	684a      	ldr	r2, [r1, #4]
    19a4:	f042 0201 	orr.w	r2, r2, #1
    19a8:	604a      	str	r2, [r1, #4]
    19aa:	f854 2f08 	ldr.w	r2, [r4, #8]!
    19ae:	60d3      	str	r3, [r2, #12]
    19b0:	609a      	str	r2, [r3, #8]
    19b2:	f001 fb21 	bl	2ff8 <__malloc_unlock>
    19b6:	e695      	b.n	16e4 <_malloc_r+0x50>
    19b8:	20000128 	.word	0x20000128
    19bc:	20000130 	.word	0x20000130
    19c0:	200006b0 	.word	0x200006b0
    19c4:	44a4      	add	ip, r4
    19c6:	4630      	mov	r0, r6
    19c8:	f8dc 3004 	ldr.w	r3, [ip, #4]
    19cc:	f043 0301 	orr.w	r3, r3, #1
    19d0:	f8cc 3004 	str.w	r3, [ip, #4]
    19d4:	f001 fb10 	bl	2ff8 <__malloc_unlock>
    19d8:	3408      	adds	r4, #8
    19da:	e683      	b.n	16e4 <_malloc_r+0x50>
    19dc:	08e8      	lsrs	r0, r5, #3
    19de:	f105 0308 	add.w	r3, r5, #8
    19e2:	e667      	b.n	16b4 <_malloc_r+0x20>
    19e4:	1962      	adds	r2, r4, r5
    19e6:	f043 0101 	orr.w	r1, r3, #1
    19ea:	f045 0501 	orr.w	r5, r5, #1
    19ee:	6065      	str	r5, [r4, #4]
    19f0:	4630      	mov	r0, r6
    19f2:	e9c7 2204 	strd	r2, r2, [r7, #16]
    19f6:	e9c2 8802 	strd	r8, r8, [r2, #8]
    19fa:	6051      	str	r1, [r2, #4]
    19fc:	f844 300c 	str.w	r3, [r4, ip]
    1a00:	f001 fafa 	bl	2ff8 <__malloc_unlock>
    1a04:	3408      	adds	r4, #8
    1a06:	e66d      	b.n	16e4 <_malloc_r+0x50>
    1a08:	ea4f 129c 	mov.w	r2, ip, lsr #6
    1a0c:	f102 0339 	add.w	r3, r2, #57	@ 0x39
    1a10:	00db      	lsls	r3, r3, #3
    1a12:	3238      	adds	r2, #56	@ 0x38
    1a14:	e78c      	b.n	1930 <_malloc_r+0x29c>
    1a16:	42bc      	cmp	r4, r7
    1a18:	d028      	beq.n	1a6c <_malloc_r+0x3d8>
    1a1a:	68bc      	ldr	r4, [r7, #8]
    1a1c:	6860      	ldr	r0, [r4, #4]
    1a1e:	e750      	b.n	18c2 <_malloc_r+0x22e>
    1a20:	f103 005c 	add.w	r0, r3, #92	@ 0x5c
    1a24:	f103 0e5b 	add.w	lr, r3, #91	@ 0x5b
    1a28:	00c3      	lsls	r3, r0, #3
    1a2a:	e678      	b.n	171e <_malloc_r+0x8a>
    1a2c:	f85a 3908 	ldr.w	r3, [sl], #-8
    1a30:	4553      	cmp	r3, sl
    1a32:	f040 80d7 	bne.w	1be4 <_malloc_r+0x550>
    1a36:	f010 0f03 	tst.w	r0, #3
    1a3a:	f100 30ff 	add.w	r0, r0, #4294967295	@ 0xffffffff
    1a3e:	d1f5      	bne.n	1a2c <_malloc_r+0x398>
    1a40:	687b      	ldr	r3, [r7, #4]
    1a42:	ea23 030c 	bic.w	r3, r3, ip
    1a46:	607b      	str	r3, [r7, #4]
    1a48:	ea4f 0c4c 	mov.w	ip, ip, lsl #1
    1a4c:	459c      	cmp	ip, r3
    1a4e:	f63f aee5 	bhi.w	181c <_malloc_r+0x188>
    1a52:	f1bc 0f00 	cmp.w	ip, #0
    1a56:	d104      	bne.n	1a62 <_malloc_r+0x3ce>
    1a58:	e6e0      	b.n	181c <_malloc_r+0x188>
    1a5a:	ea4f 0c4c 	mov.w	ip, ip, lsl #1
    1a5e:	f109 0904 	add.w	r9, r9, #4
    1a62:	ea1c 0f03 	tst.w	ip, r3
    1a66:	d0f8      	beq.n	1a5a <_malloc_r+0x3c6>
    1a68:	4648      	mov	r0, r9
    1a6a:	e6b0      	b.n	17ce <_malloc_r+0x13a>
    1a6c:	f8db 0004 	ldr.w	r0, [fp, #4]
    1a70:	4440      	add	r0, r8
    1a72:	f8cb 0004 	str.w	r0, [fp, #4]
    1a76:	f102 3cff 	add.w	ip, r2, #4294967295	@ 0xffffffff
    1a7a:	f8d7 1408 	ldr.w	r1, [r7, #1032]	@ 0x408
    1a7e:	3101      	adds	r1, #1
    1a80:	d06d      	beq.n	1b5e <_malloc_r+0x4ca>
    1a82:	9b00      	ldr	r3, [sp, #0]
    1a84:	ebaa 0303 	sub.w	r3, sl, r3
    1a88:	4418      	add	r0, r3
    1a8a:	f8cb 0004 	str.w	r0, [fp, #4]
    1a8e:	f01a 0307 	ands.w	r3, sl, #7
    1a92:	9300      	str	r3, [sp, #0]
    1a94:	d041      	beq.n	1b1a <_malloc_r+0x486>
    1a96:	f1c3 0108 	rsb	r1, r3, #8
    1a9a:	448a      	add	sl, r1
    1a9c:	44d0      	add	r8, sl
    1a9e:	440a      	add	r2, r1
    1aa0:	ea08 010c 	and.w	r1, r8, ip
    1aa4:	1a52      	subs	r2, r2, r1
    1aa6:	ea02 010c 	and.w	r1, r2, ip
    1aaa:	4630      	mov	r0, r6
    1aac:	9101      	str	r1, [sp, #4]
    1aae:	f001 fbe3 	bl	3278 <_sbrk_r>
    1ab2:	1c42      	adds	r2, r0, #1
    1ab4:	d06f      	beq.n	1b96 <_malloc_r+0x502>
    1ab6:	9901      	ldr	r1, [sp, #4]
    1ab8:	eba0 000a 	sub.w	r0, r0, sl
    1abc:	eb00 0801 	add.w	r8, r0, r1
    1ac0:	f8db 2004 	ldr.w	r2, [fp, #4]
    1ac4:	f8c7 a008 	str.w	sl, [r7, #8]
    1ac8:	f048 0001 	orr.w	r0, r8, #1
    1acc:	4411      	add	r1, r2
    1ace:	42bc      	cmp	r4, r7
    1ad0:	f8ca 0004 	str.w	r0, [sl, #4]
    1ad4:	f8cb 1004 	str.w	r1, [fp, #4]
    1ad8:	f43f aee6 	beq.w	18a8 <_malloc_r+0x214>
    1adc:	f1b9 0f0f 	cmp.w	r9, #15
    1ae0:	d940      	bls.n	1b64 <_malloc_r+0x4d0>
    1ae2:	6862      	ldr	r2, [r4, #4]
    1ae4:	f1a9 000c 	sub.w	r0, r9, #12
    1ae8:	f020 0007 	bic.w	r0, r0, #7
    1aec:	f002 0201 	and.w	r2, r2, #1
    1af0:	4302      	orrs	r2, r0
    1af2:	6062      	str	r2, [r4, #4]
    1af4:	2305      	movs	r3, #5
    1af6:	1822      	adds	r2, r4, r0
    1af8:	280f      	cmp	r0, #15
    1afa:	e9c2 3301 	strd	r3, r3, [r2, #4]
    1afe:	d852      	bhi.n	1ba6 <_malloc_r+0x512>
    1b00:	f8da 0004 	ldr.w	r0, [sl, #4]
    1b04:	e6d0      	b.n	18a8 <_malloc_r+0x214>
    1b06:	1092      	asrs	r2, r2, #2
    1b08:	f04f 0c01 	mov.w	ip, #1
    1b0c:	fa0c f202 	lsl.w	r2, ip, r2
    1b10:	ea4e 0e02 	orr.w	lr, lr, r2
    1b14:	f8c7 e004 	str.w	lr, [r7, #4]
    1b18:	e719      	b.n	194e <_malloc_r+0x2ba>
    1b1a:	eb0a 0108 	add.w	r1, sl, r8
    1b1e:	ea01 010c 	and.w	r1, r1, ip
    1b22:	1a52      	subs	r2, r2, r1
    1b24:	ea02 010c 	and.w	r1, r2, ip
    1b28:	4630      	mov	r0, r6
    1b2a:	9101      	str	r1, [sp, #4]
    1b2c:	f001 fba4 	bl	3278 <_sbrk_r>
    1b30:	1c43      	adds	r3, r0, #1
    1b32:	d1c0      	bne.n	1ab6 <_malloc_r+0x422>
    1b34:	9900      	ldr	r1, [sp, #0]
    1b36:	e7c3      	b.n	1ac0 <_malloc_r+0x42c>
    1b38:	2a54      	cmp	r2, #84	@ 0x54
    1b3a:	d817      	bhi.n	1b6c <_malloc_r+0x4d8>
    1b3c:	ea4f 321c 	mov.w	r2, ip, lsr #12
    1b40:	f102 036f 	add.w	r3, r2, #111	@ 0x6f
    1b44:	00db      	lsls	r3, r3, #3
    1b46:	326e      	adds	r2, #110	@ 0x6e
    1b48:	e6f2      	b.n	1930 <_malloc_r+0x29c>
    1b4a:	f5b3 7faa 	cmp.w	r3, #340	@ 0x154
    1b4e:	d817      	bhi.n	1b80 <_malloc_r+0x4ec>
    1b50:	0beb      	lsrs	r3, r5, #15
    1b52:	f103 0078 	add.w	r0, r3, #120	@ 0x78
    1b56:	f103 0e77 	add.w	lr, r3, #119	@ 0x77
    1b5a:	00c3      	lsls	r3, r0, #3
    1b5c:	e5df      	b.n	171e <_malloc_r+0x8a>
    1b5e:	f8c7 a408 	str.w	sl, [r7, #1032]	@ 0x408
    1b62:	e794      	b.n	1a8e <_malloc_r+0x3fa>
    1b64:	2301      	movs	r3, #1
    1b66:	f8ca 3004 	str.w	r3, [sl, #4]
    1b6a:	e6b2      	b.n	18d2 <_malloc_r+0x23e>
    1b6c:	f5b2 7faa 	cmp.w	r2, #340	@ 0x154
    1b70:	d823      	bhi.n	1bba <_malloc_r+0x526>
    1b72:	ea4f 32dc 	mov.w	r2, ip, lsr #15
    1b76:	f102 0378 	add.w	r3, r2, #120	@ 0x78
    1b7a:	00db      	lsls	r3, r3, #3
    1b7c:	3277      	adds	r2, #119	@ 0x77
    1b7e:	e6d7      	b.n	1930 <_malloc_r+0x29c>
    1b80:	f240 5254 	movw	r2, #1364	@ 0x554
    1b84:	4293      	cmp	r3, r2
    1b86:	d823      	bhi.n	1bd0 <_malloc_r+0x53c>
    1b88:	0cab      	lsrs	r3, r5, #18
    1b8a:	f103 007d 	add.w	r0, r3, #125	@ 0x7d
    1b8e:	f103 0e7c 	add.w	lr, r3, #124	@ 0x7c
    1b92:	00c3      	lsls	r3, r0, #3
    1b94:	e5c3      	b.n	171e <_malloc_r+0x8a>
    1b96:	9b00      	ldr	r3, [sp, #0]
    1b98:	f1a3 0208 	sub.w	r2, r3, #8
    1b9c:	4490      	add	r8, r2
    1b9e:	eba8 080a 	sub.w	r8, r8, sl
    1ba2:	2100      	movs	r1, #0
    1ba4:	e78c      	b.n	1ac0 <_malloc_r+0x42c>
    1ba6:	f104 0108 	add.w	r1, r4, #8
    1baa:	4630      	mov	r0, r6
    1bac:	f001 f850 	bl	2c50 <_free_r>
    1bb0:	f8db 1004 	ldr.w	r1, [fp, #4]
    1bb4:	f8d7 a008 	ldr.w	sl, [r7, #8]
    1bb8:	e7a2      	b.n	1b00 <_malloc_r+0x46c>
    1bba:	f240 5354 	movw	r3, #1364	@ 0x554
    1bbe:	429a      	cmp	r2, r3
    1bc0:	d80c      	bhi.n	1bdc <_malloc_r+0x548>
    1bc2:	ea4f 429c 	mov.w	r2, ip, lsr #18
    1bc6:	f102 037d 	add.w	r3, r2, #125	@ 0x7d
    1bca:	00db      	lsls	r3, r3, #3
    1bcc:	327c      	adds	r2, #124	@ 0x7c
    1bce:	e6af      	b.n	1930 <_malloc_r+0x29c>
    1bd0:	f44f 737e 	mov.w	r3, #1016	@ 0x3f8
    1bd4:	207f      	movs	r0, #127	@ 0x7f
    1bd6:	f04f 0e7e 	mov.w	lr, #126	@ 0x7e
    1bda:	e5a0      	b.n	171e <_malloc_r+0x8a>
    1bdc:	f44f 737e 	mov.w	r3, #1016	@ 0x3f8
    1be0:	227e      	movs	r2, #126	@ 0x7e
    1be2:	e6a5      	b.n	1930 <_malloc_r+0x29c>
    1be4:	687b      	ldr	r3, [r7, #4]
    1be6:	e72f      	b.n	1a48 <_malloc_r+0x3b4>

00001be8 <quorem>:
    1be8:	e92d 4ff0 	stmdb	sp!, {r4, r5, r6, r7, r8, r9, sl, fp, lr}
    1bec:	6903      	ldr	r3, [r0, #16]
    1bee:	690c      	ldr	r4, [r1, #16]
    1bf0:	42a3      	cmp	r3, r4
    1bf2:	b083      	sub	sp, #12
    1bf4:	f2c0 808a 	blt.w	1d0c <quorem+0x124>
    1bf8:	3c01      	subs	r4, #1
    1bfa:	f101 0514 	add.w	r5, r1, #20
    1bfe:	f100 0814 	add.w	r8, r0, #20
    1c02:	f855 3024 	ldr.w	r3, [r5, r4, lsl #2]
    1c06:	f858 2024 	ldr.w	r2, [r8, r4, lsl #2]
    1c0a:	3301      	adds	r3, #1
    1c0c:	429a      	cmp	r2, r3
    1c0e:	468e      	mov	lr, r1
    1c10:	4681      	mov	r9, r0
    1c12:	ea4f 0184 	mov.w	r1, r4, lsl #2
    1c16:	eb05 0784 	add.w	r7, r5, r4, lsl #2
    1c1a:	eb08 0a84 	add.w	sl, r8, r4, lsl #2
    1c1e:	fbb2 f6f3 	udiv	r6, r2, r3
    1c22:	d33a      	bcc.n	1c9a <quorem+0xb2>
    1c24:	e9cd 1500 	strd	r1, r5, [sp]
    1c28:	2200      	movs	r2, #0
    1c2a:	46ac      	mov	ip, r5
    1c2c:	4640      	mov	r0, r8
    1c2e:	4613      	mov	r3, r2
    1c30:	f85c 1b04 	ldr.w	r1, [ip], #4
    1c34:	6805      	ldr	r5, [r0, #0]
    1c36:	fa1f fb81 	uxth.w	fp, r1
    1c3a:	fb06 220b 	mla	r2, r6, fp, r2
    1c3e:	0c09      	lsrs	r1, r1, #16
    1c40:	ea4f 4b12 	mov.w	fp, r2, lsr #16
    1c44:	fb06 bb01 	mla	fp, r6, r1, fp
    1c48:	b292      	uxth	r2, r2
    1c4a:	b2a9      	uxth	r1, r5
    1c4c:	1a89      	subs	r1, r1, r2
    1c4e:	4419      	add	r1, r3
    1c50:	fa1f f38b 	uxth.w	r3, fp
    1c54:	ebc3 4321 	rsb	r3, r3, r1, asr #16
    1c58:	eb03 4315 	add.w	r3, r3, r5, lsr #16
    1c5c:	b289      	uxth	r1, r1
    1c5e:	ea41 4103 	orr.w	r1, r1, r3, lsl #16
    1c62:	4567      	cmp	r7, ip
    1c64:	f840 1b04 	str.w	r1, [r0], #4
    1c68:	ea4f 421b 	mov.w	r2, fp, lsr #16
    1c6c:	ea4f 4323 	mov.w	r3, r3, asr #16
    1c70:	d2de      	bcs.n	1c30 <quorem+0x48>
    1c72:	e9dd 1500 	ldrd	r1, r5, [sp]
    1c76:	f858 3001 	ldr.w	r3, [r8, r1]
    1c7a:	b973      	cbnz	r3, 1c9a <quorem+0xb2>
    1c7c:	f1aa 0a04 	sub.w	sl, sl, #4
    1c80:	45d0      	cmp	r8, sl
    1c82:	d304      	bcc.n	1c8e <quorem+0xa6>
    1c84:	e007      	b.n	1c96 <quorem+0xae>
    1c86:	45d0      	cmp	r8, sl
    1c88:	f104 34ff 	add.w	r4, r4, #4294967295	@ 0xffffffff
    1c8c:	d203      	bcs.n	1c96 <quorem+0xae>
    1c8e:	f85a 3904 	ldr.w	r3, [sl], #-4
    1c92:	2b00      	cmp	r3, #0
    1c94:	d0f7      	beq.n	1c86 <quorem+0x9e>
    1c96:	f8c9 4010 	str.w	r4, [r9, #16]
    1c9a:	4671      	mov	r1, lr
    1c9c:	4648      	mov	r0, r9
    1c9e:	f001 fe57 	bl	3950 <__mcmp>
    1ca2:	2800      	cmp	r0, #0
    1ca4:	db2e      	blt.n	1d04 <quorem+0x11c>
    1ca6:	4641      	mov	r1, r8
    1ca8:	2200      	movs	r2, #0
    1caa:	f855 0b04 	ldr.w	r0, [r5], #4
    1cae:	f8d1 c000 	ldr.w	ip, [r1]
    1cb2:	fa1f fe80 	uxth.w	lr, r0
    1cb6:	fa1f f38c 	uxth.w	r3, ip
    1cba:	eba3 030e 	sub.w	r3, r3, lr
    1cbe:	4413      	add	r3, r2
    1cc0:	0c02      	lsrs	r2, r0, #16
    1cc2:	ebc2 4223 	rsb	r2, r2, r3, asr #16
    1cc6:	eb02 421c 	add.w	r2, r2, ip, lsr #16
    1cca:	b29b      	uxth	r3, r3
    1ccc:	ea43 4302 	orr.w	r3, r3, r2, lsl #16
    1cd0:	42af      	cmp	r7, r5
    1cd2:	f841 3b04 	str.w	r3, [r1], #4
    1cd6:	ea4f 4222 	mov.w	r2, r2, asr #16
    1cda:	d2e6      	bcs.n	1caa <quorem+0xc2>
    1cdc:	f858 2024 	ldr.w	r2, [r8, r4, lsl #2]
    1ce0:	eb08 0384 	add.w	r3, r8, r4, lsl #2
    1ce4:	b96a      	cbnz	r2, 1d02 <quorem+0x11a>
    1ce6:	3b04      	subs	r3, #4
    1ce8:	4543      	cmp	r3, r8
    1cea:	d804      	bhi.n	1cf6 <quorem+0x10e>
    1cec:	e007      	b.n	1cfe <quorem+0x116>
    1cee:	4598      	cmp	r8, r3
    1cf0:	f104 34ff 	add.w	r4, r4, #4294967295	@ 0xffffffff
    1cf4:	d203      	bcs.n	1cfe <quorem+0x116>
    1cf6:	f853 2904 	ldr.w	r2, [r3], #-4
    1cfa:	2a00      	cmp	r2, #0
    1cfc:	d0f7      	beq.n	1cee <quorem+0x106>
    1cfe:	f8c9 4010 	str.w	r4, [r9, #16]
    1d02:	3601      	adds	r6, #1
    1d04:	4630      	mov	r0, r6
    1d06:	b003      	add	sp, #12
    1d08:	e8bd 8ff0 	ldmia.w	sp!, {r4, r5, r6, r7, r8, r9, sl, fp, pc}
    1d0c:	2000      	movs	r0, #0
    1d0e:	b003      	add	sp, #12
    1d10:	e8bd 8ff0 	ldmia.w	sp!, {r4, r5, r6, r7, r8, r9, sl, fp, pc}

00001d14 <_dtoa_r>:
    1d14:	e92d 4ff0 	stmdb	sp!, {r4, r5, r6, r7, r8, r9, sl, fp, lr}
    1d18:	b09d      	sub	sp, #116	@ 0x74
    1d1a:	e9cd 320a 	strd	r3, r2, [sp, #40]	@ 0x28
    1d1e:	9102      	str	r1, [sp, #8]
    1d20:	6b81      	ldr	r1, [r0, #56]	@ 0x38
    1d22:	9d26      	ldr	r5, [sp, #152]	@ 0x98
    1d24:	9004      	str	r0, [sp, #16]
    1d26:	ed8d 0b06 	vstr	d0, [sp, #24]
    1d2a:	ec57 6b10 	vmov	r6, r7, d0
    1d2e:	b149      	cbz	r1, 1d44 <_dtoa_r+0x30>
    1d30:	6bc2      	ldr	r2, [r0, #60]	@ 0x3c
    1d32:	604a      	str	r2, [r1, #4]
    1d34:	2301      	movs	r3, #1
    1d36:	4093      	lsls	r3, r2
    1d38:	4604      	mov	r4, r0
    1d3a:	608b      	str	r3, [r1, #8]
    1d3c:	f001 fb4c 	bl	33d8 <_Bfree>
    1d40:	2300      	movs	r3, #0
    1d42:	63a3      	str	r3, [r4, #56]	@ 0x38
    1d44:	f1b7 0900 	subs.w	r9, r7, #0
    1d48:	bfb4      	ite	lt
    1d4a:	2301      	movlt	r3, #1
    1d4c:	2300      	movge	r3, #0
    1d4e:	602b      	str	r3, [r5, #0]
    1d50:	4b77      	ldr	r3, [pc, #476]	@ (1f30 <_dtoa_r+0x21c>)
    1d52:	bfbc      	itt	lt
    1d54:	f029 4900 	biclt.w	r9, r9, #2147483648	@ 0x80000000
    1d58:	f8cd 901c 	strlt.w	r9, [sp, #28]
    1d5c:	ea33 0309 	bics.w	r3, r3, r9
    1d60:	f000 80aa 	beq.w	1eb8 <_dtoa_r+0x1a4>
    1d64:	ed9d 7b06 	vldr	d7, [sp, #24]
    1d68:	2200      	movs	r2, #0
    1d6a:	ec51 0b17 	vmov	r0, r1, d7
    1d6e:	2300      	movs	r3, #0
    1d70:	ed8d 7b00 	vstr	d7, [sp]
    1d74:	f004 fb90 	bl	6498 <__aeabi_dcmpeq>
    1d78:	4680      	mov	r8, r0
    1d7a:	b168      	cbz	r0, 1d98 <_dtoa_r+0x84>
    1d7c:	9a0a      	ldr	r2, [sp, #40]	@ 0x28
    1d7e:	2301      	movs	r3, #1
    1d80:	6013      	str	r3, [r2, #0]
    1d82:	9b27      	ldr	r3, [sp, #156]	@ 0x9c
    1d84:	b113      	cbz	r3, 1d8c <_dtoa_r+0x78>
    1d86:	9a27      	ldr	r2, [sp, #156]	@ 0x9c
    1d88:	4b6a      	ldr	r3, [pc, #424]	@ (1f34 <_dtoa_r+0x220>)
    1d8a:	6013      	str	r3, [r2, #0]
    1d8c:	4b6a      	ldr	r3, [pc, #424]	@ (1f38 <_dtoa_r+0x224>)
    1d8e:	9305      	str	r3, [sp, #20]
    1d90:	9805      	ldr	r0, [sp, #20]
    1d92:	b01d      	add	sp, #116	@ 0x74
    1d94:	e8bd 8ff0 	ldmia.w	sp!, {r4, r5, r6, r7, r8, r9, sl, fp, pc}
    1d98:	ed9d 0b00 	vldr	d0, [sp]
    1d9c:	9804      	ldr	r0, [sp, #16]
    1d9e:	aa1a      	add	r2, sp, #104	@ 0x68
    1da0:	a91b      	add	r1, sp, #108	@ 0x6c
    1da2:	f001 ff43 	bl	3c2c <__d2b>
    1da6:	ea5f 5519 	movs.w	r5, r9, lsr #20
    1daa:	4682      	mov	sl, r0
    1dac:	f040 809a 	bne.w	1ee4 <_dtoa_r+0x1d0>
    1db0:	e9dd 851a 	ldrd	r8, r5, [sp, #104]	@ 0x68
    1db4:	4445      	add	r5, r8
    1db6:	f205 4332 	addw	r3, r5, #1074	@ 0x432
    1dba:	2b20      	cmp	r3, #32
    1dbc:	f340 838c 	ble.w	24d8 <_dtoa_r+0x7c4>
    1dc0:	f1c3 0340 	rsb	r3, r3, #64	@ 0x40
    1dc4:	fa09 f903 	lsl.w	r9, r9, r3
    1dc8:	f205 4312 	addw	r3, r5, #1042	@ 0x412
    1dcc:	fa26 f303 	lsr.w	r3, r6, r3
    1dd0:	ea49 0003 	orr.w	r0, r9, r3
    1dd4:	f004 f87e 	bl	5ed4 <__aeabi_ui2d>
    1dd8:	2301      	movs	r3, #1
    1dda:	3d01      	subs	r5, #1
    1ddc:	f1a1 71f8 	sub.w	r1, r1, #32505856	@ 0x1f00000
    1de0:	9312      	str	r3, [sp, #72]	@ 0x48
    1de2:	4b56      	ldr	r3, [pc, #344]	@ (1f3c <_dtoa_r+0x228>)
    1de4:	2200      	movs	r2, #0
    1de6:	f003 ff37 	bl	5c58 <__aeabi_dsub>
    1dea:	a34b      	add	r3, pc, #300	@ (adr r3, 1f18 <_dtoa_r+0x204>)
    1dec:	e9d3 2300 	ldrd	r2, r3, [r3]
    1df0:	f004 f8ea 	bl	5fc8 <__aeabi_dmul>
    1df4:	a34a      	add	r3, pc, #296	@ (adr r3, 1f20 <_dtoa_r+0x20c>)
    1df6:	e9d3 2300 	ldrd	r2, r3, [r3]
    1dfa:	f003 ff2f 	bl	5c5c <__adddf3>
    1dfe:	4606      	mov	r6, r0
    1e00:	4628      	mov	r0, r5
    1e02:	460f      	mov	r7, r1
    1e04:	f004 f876 	bl	5ef4 <__aeabi_i2d>
    1e08:	a347      	add	r3, pc, #284	@ (adr r3, 1f28 <_dtoa_r+0x214>)
    1e0a:	e9d3 2300 	ldrd	r2, r3, [r3]
    1e0e:	f004 f8db 	bl	5fc8 <__aeabi_dmul>
    1e12:	4602      	mov	r2, r0
    1e14:	460b      	mov	r3, r1
    1e16:	4630      	mov	r0, r6
    1e18:	4639      	mov	r1, r7
    1e1a:	f003 ff1f 	bl	5c5c <__adddf3>
    1e1e:	4606      	mov	r6, r0
    1e20:	460f      	mov	r7, r1
    1e22:	f004 fb81 	bl	6528 <__aeabi_d2iz>
    1e26:	2200      	movs	r2, #0
    1e28:	4604      	mov	r4, r0
    1e2a:	9009      	str	r0, [sp, #36]	@ 0x24
    1e2c:	2300      	movs	r3, #0
    1e2e:	4630      	mov	r0, r6
    1e30:	4639      	mov	r1, r7
    1e32:	f004 fb3b 	bl	64ac <__aeabi_dcmplt>
    1e36:	2800      	cmp	r0, #0
    1e38:	f040 8324 	bne.w	2484 <_dtoa_r+0x770>
    1e3c:	9c09      	ldr	r4, [sp, #36]	@ 0x24
    1e3e:	eba8 0805 	sub.w	r8, r8, r5
    1e42:	f108 33ff 	add.w	r3, r8, #4294967295	@ 0xffffffff
    1e46:	2c16      	cmp	r4, #22
    1e48:	9308      	str	r3, [sp, #32]
    1e4a:	f200 818c 	bhi.w	2166 <_dtoa_r+0x452>
    1e4e:	4b3c      	ldr	r3, [pc, #240]	@ (1f40 <_dtoa_r+0x22c>)
    1e50:	eb03 03c4 	add.w	r3, r3, r4, lsl #3
    1e54:	e9d3 2300 	ldrd	r2, r3, [r3]
    1e58:	e9dd 0100 	ldrd	r0, r1, [sp]
    1e5c:	f004 fb26 	bl	64ac <__aeabi_dcmplt>
    1e60:	2800      	cmp	r0, #0
    1e62:	d073      	beq.n	1f4c <_dtoa_r+0x238>
    1e64:	1e63      	subs	r3, r4, #1
    1e66:	9309      	str	r3, [sp, #36]	@ 0x24
    1e68:	2300      	movs	r3, #0
    1e6a:	9311      	str	r3, [sp, #68]	@ 0x44
    1e6c:	9b08      	ldr	r3, [sp, #32]
    1e6e:	2b00      	cmp	r3, #0
    1e70:	f2c0 817f 	blt.w	2172 <_dtoa_r+0x45e>
    1e74:	2300      	movs	r3, #0
    1e76:	930c      	str	r3, [sp, #48]	@ 0x30
    1e78:	9b09      	ldr	r3, [sp, #36]	@ 0x24
    1e7a:	2b00      	cmp	r3, #0
    1e7c:	da6c      	bge.n	1f58 <_dtoa_r+0x244>
    1e7e:	9b09      	ldr	r3, [sp, #36]	@ 0x24
    1e80:	9a0c      	ldr	r2, [sp, #48]	@ 0x30
    1e82:	930d      	str	r3, [sp, #52]	@ 0x34
    1e84:	1ad2      	subs	r2, r2, r3
    1e86:	920c      	str	r2, [sp, #48]	@ 0x30
    1e88:	425a      	negs	r2, r3
    1e8a:	2300      	movs	r3, #0
    1e8c:	9309      	str	r3, [sp, #36]	@ 0x24
    1e8e:	9b02      	ldr	r3, [sp, #8]
    1e90:	9210      	str	r2, [sp, #64]	@ 0x40
    1e92:	2b09      	cmp	r3, #9
    1e94:	d86a      	bhi.n	1f6c <_dtoa_r+0x258>
    1e96:	2b05      	cmp	r3, #5
    1e98:	f340 8323 	ble.w	24e2 <_dtoa_r+0x7ce>
    1e9c:	3b04      	subs	r3, #4
    1e9e:	9302      	str	r3, [sp, #8]
    1ea0:	2500      	movs	r5, #0
    1ea2:	9b02      	ldr	r3, [sp, #8]
    1ea4:	3b02      	subs	r3, #2
    1ea6:	2b03      	cmp	r3, #3
    1ea8:	f200 8638 	bhi.w	2b1c <_dtoa_r+0xe08>
    1eac:	e8df f013 	tbh	[pc, r3, lsl #1]
    1eb0:	046d0470 	.word	0x046d0470
    1eb4:	04490465 	.word	0x04490465
    1eb8:	9a0a      	ldr	r2, [sp, #40]	@ 0x28
    1eba:	f3c9 0913 	ubfx	r9, r9, #0, #20
    1ebe:	f242 730f 	movw	r3, #9999	@ 0x270f
    1ec2:	ea59 0906 	orrs.w	r9, r9, r6
    1ec6:	6013      	str	r3, [r2, #0]
    1ec8:	d11c      	bne.n	1f04 <_dtoa_r+0x1f0>
    1eca:	9b27      	ldr	r3, [sp, #156]	@ 0x9c
    1ecc:	2b00      	cmp	r3, #0
    1ece:	f000 8645 	beq.w	2b5c <_dtoa_r+0xe48>
    1ed2:	4b1c      	ldr	r3, [pc, #112]	@ (1f44 <_dtoa_r+0x230>)
    1ed4:	9305      	str	r3, [sp, #20]
    1ed6:	3308      	adds	r3, #8
    1ed8:	9a27      	ldr	r2, [sp, #156]	@ 0x9c
    1eda:	9805      	ldr	r0, [sp, #20]
    1edc:	6013      	str	r3, [r2, #0]
    1ede:	b01d      	add	sp, #116	@ 0x74
    1ee0:	e8bd 8ff0 	ldmia.w	sp!, {r4, r5, r6, r7, r8, r9, sl, fp, pc}
    1ee4:	e9dd 1200 	ldrd	r1, r2, [sp]
    1ee8:	f3c2 0313 	ubfx	r3, r2, #0, #20
    1eec:	4608      	mov	r0, r1
    1eee:	f043 517f 	orr.w	r1, r3, #1069547520	@ 0x3fc00000
    1ef2:	f8cd 8048 	str.w	r8, [sp, #72]	@ 0x48
    1ef6:	f2a5 35ff 	subw	r5, r5, #1023	@ 0x3ff
    1efa:	f8dd 8068 	ldr.w	r8, [sp, #104]	@ 0x68
    1efe:	f441 1140 	orr.w	r1, r1, #3145728	@ 0x300000
    1f02:	e76e      	b.n	1de2 <_dtoa_r+0xce>
    1f04:	9b27      	ldr	r3, [sp, #156]	@ 0x9c
    1f06:	2b00      	cmp	r3, #0
    1f08:	f040 83f6 	bne.w	26f8 <_dtoa_r+0x9e4>
    1f0c:	4b0e      	ldr	r3, [pc, #56]	@ (1f48 <_dtoa_r+0x234>)
    1f0e:	9305      	str	r3, [sp, #20]
    1f10:	e73e      	b.n	1d90 <_dtoa_r+0x7c>
    1f12:	bf00      	nop
    1f14:	f3af 8000 	nop.w
    1f18:	636f4361 	.word	0x636f4361
    1f1c:	3fd287a7 	.word	0x3fd287a7
    1f20:	8b60c8b3 	.word	0x8b60c8b3
    1f24:	3fc68a28 	.word	0x3fc68a28
    1f28:	509f79fb 	.word	0x509f79fb
    1f2c:	3fd34413 	.word	0x3fd34413
    1f30:	7ff00000 	.word	0x7ff00000
    1f34:	000078ad 	.word	0x000078ad
    1f38:	000078ac 	.word	0x000078ac
    1f3c:	3ff80000 	.word	0x3ff80000
    1f40:	00006d10 	.word	0x00006d10
    1f44:	000078b0 	.word	0x000078b0
    1f48:	000078bc 	.word	0x000078bc
    1f4c:	f1b8 0f00 	cmp.w	r8, #0
    1f50:	f340 84a3 	ble.w	289a <_dtoa_r+0xb86>
    1f54:	9011      	str	r0, [sp, #68]	@ 0x44
    1f56:	900c      	str	r0, [sp, #48]	@ 0x30
    1f58:	e9dd 3208 	ldrd	r3, r2, [sp, #32]
    1f5c:	4413      	add	r3, r2
    1f5e:	9308      	str	r3, [sp, #32]
    1f60:	2300      	movs	r3, #0
    1f62:	9310      	str	r3, [sp, #64]	@ 0x40
    1f64:	9b02      	ldr	r3, [sp, #8]
    1f66:	920d      	str	r2, [sp, #52]	@ 0x34
    1f68:	2b09      	cmp	r3, #9
    1f6a:	d994      	bls.n	1e96 <_dtoa_r+0x182>
    1f6c:	2300      	movs	r3, #0
    1f6e:	2501      	movs	r5, #1
    1f70:	9302      	str	r3, [sp, #8]
    1f72:	950e      	str	r5, [sp, #56]	@ 0x38
    1f74:	f04f 3bff 	mov.w	fp, #4294967295	@ 0xffffffff
    1f78:	930b      	str	r3, [sp, #44]	@ 0x2c
    1f7a:	9b04      	ldr	r3, [sp, #16]
    1f7c:	f8cd b04c 	str.w	fp, [sp, #76]	@ 0x4c
    1f80:	2100      	movs	r1, #0
    1f82:	63d9      	str	r1, [r3, #60]	@ 0x3c
    1f84:	9804      	ldr	r0, [sp, #16]
    1f86:	f001 fa01 	bl	338c <_Balloc>
    1f8a:	9005      	str	r0, [sp, #20]
    1f8c:	2800      	cmp	r0, #0
    1f8e:	f000 85ce 	beq.w	2b2e <_dtoa_r+0xe1a>
    1f92:	e9dd 3204 	ldrd	r3, r2, [sp, #16]
    1f96:	f1bb 0f0e 	cmp.w	fp, #14
    1f9a:	639a      	str	r2, [r3, #56]	@ 0x38
    1f9c:	f200 8118 	bhi.w	21d0 <_dtoa_r+0x4bc>
    1fa0:	2d00      	cmp	r5, #0
    1fa2:	f000 8115 	beq.w	21d0 <_dtoa_r+0x4bc>
    1fa6:	990d      	ldr	r1, [sp, #52]	@ 0x34
    1fa8:	2900      	cmp	r1, #0
    1faa:	f340 8446 	ble.w	283a <_dtoa_r+0xb26>
    1fae:	4bb3      	ldr	r3, [pc, #716]	@ (227c <_dtoa_r+0x568>)
    1fb0:	f001 020f 	and.w	r2, r1, #15
    1fb4:	eb03 03c2 	add.w	r3, r3, r2, lsl #3
    1fb8:	05c8      	lsls	r0, r1, #23
    1fba:	e9d3 8900 	ldrd	r8, r9, [r3]
    1fbe:	ea4f 1521 	mov.w	r5, r1, asr #4
    1fc2:	f140 8408 	bpl.w	27d6 <_dtoa_r+0xac2>
    1fc6:	4bae      	ldr	r3, [pc, #696]	@ (2280 <_dtoa_r+0x56c>)
    1fc8:	e9dd 0100 	ldrd	r0, r1, [sp]
    1fcc:	e9d3 2308 	ldrd	r2, r3, [r3, #32]
    1fd0:	f004 f924 	bl	621c <__aeabi_ddiv>
    1fd4:	e9cd 0114 	strd	r0, r1, [sp, #80]	@ 0x50
    1fd8:	f005 050f 	and.w	r5, r5, #15
    1fdc:	2703      	movs	r7, #3
    1fde:	b17d      	cbz	r5, 2000 <_dtoa_r+0x2ec>
    1fe0:	4ea7      	ldr	r6, [pc, #668]	@ (2280 <_dtoa_r+0x56c>)
    1fe2:	07e9      	lsls	r1, r5, #31
    1fe4:	d508      	bpl.n	1ff8 <_dtoa_r+0x2e4>
    1fe6:	4640      	mov	r0, r8
    1fe8:	4649      	mov	r1, r9
    1fea:	e9d6 2300 	ldrd	r2, r3, [r6]
    1fee:	f003 ffeb 	bl	5fc8 <__aeabi_dmul>
    1ff2:	3701      	adds	r7, #1
    1ff4:	4680      	mov	r8, r0
    1ff6:	4689      	mov	r9, r1
    1ff8:	106d      	asrs	r5, r5, #1
    1ffa:	f106 0608 	add.w	r6, r6, #8
    1ffe:	d1f0      	bne.n	1fe2 <_dtoa_r+0x2ce>
    2000:	4642      	mov	r2, r8
    2002:	464b      	mov	r3, r9
    2004:	e9dd 0114 	ldrd	r0, r1, [sp, #80]	@ 0x50
    2008:	f004 f908 	bl	621c <__aeabi_ddiv>
    200c:	4680      	mov	r8, r0
    200e:	4689      	mov	r9, r1
    2010:	9b11      	ldr	r3, [sp, #68]	@ 0x44
    2012:	b143      	cbz	r3, 2026 <_dtoa_r+0x312>
    2014:	4b9b      	ldr	r3, [pc, #620]	@ (2284 <_dtoa_r+0x570>)
    2016:	2200      	movs	r2, #0
    2018:	4640      	mov	r0, r8
    201a:	4649      	mov	r1, r9
    201c:	f004 fa46 	bl	64ac <__aeabi_dcmplt>
    2020:	2800      	cmp	r0, #0
    2022:	f040 850b 	bne.w	2a3c <_dtoa_r+0xd28>
    2026:	4638      	mov	r0, r7
    2028:	f003 ff64 	bl	5ef4 <__aeabi_i2d>
    202c:	4642      	mov	r2, r8
    202e:	464b      	mov	r3, r9
    2030:	f003 ffca 	bl	5fc8 <__aeabi_dmul>
    2034:	4b94      	ldr	r3, [pc, #592]	@ (2288 <_dtoa_r+0x574>)
    2036:	2200      	movs	r2, #0
    2038:	f003 fe10 	bl	5c5c <__adddf3>
    203c:	f1a1 7350 	sub.w	r3, r1, #54525952	@ 0x3400000
    2040:	e9cd 0114 	strd	r0, r1, [sp, #80]	@ 0x50
    2044:	9315      	str	r3, [sp, #84]	@ 0x54
    2046:	f1bb 0f00 	cmp.w	fp, #0
    204a:	f000 80a8 	beq.w	219e <_dtoa_r+0x48a>
    204e:	9b0d      	ldr	r3, [sp, #52]	@ 0x34
    2050:	e9cd b318 	strd	fp, r3, [sp, #96]	@ 0x60
    2054:	4649      	mov	r1, r9
    2056:	4640      	mov	r0, r8
    2058:	f004 fa66 	bl	6528 <__aeabi_d2iz>
    205c:	9a18      	ldr	r2, [sp, #96]	@ 0x60
    205e:	4b87      	ldr	r3, [pc, #540]	@ (227c <_dtoa_r+0x568>)
    2060:	eb03 03c2 	add.w	r3, r3, r2, lsl #3
    2064:	ed13 7b02 	vldr	d7, [r3, #-8]
    2068:	4605      	mov	r5, r0
    206a:	ed8d 7b16 	vstr	d7, [sp, #88]	@ 0x58
    206e:	f003 ff41 	bl	5ef4 <__aeabi_i2d>
    2072:	460b      	mov	r3, r1
    2074:	4602      	mov	r2, r0
    2076:	4649      	mov	r1, r9
    2078:	4640      	mov	r0, r8
    207a:	f003 fded 	bl	5c58 <__aeabi_dsub>
    207e:	9f05      	ldr	r7, [sp, #20]
    2080:	9b0e      	ldr	r3, [sp, #56]	@ 0x38
    2082:	3530      	adds	r5, #48	@ 0x30
    2084:	1c7e      	adds	r6, r7, #1
    2086:	b2ec      	uxtb	r4, r5
    2088:	4680      	mov	r8, r0
    208a:	4689      	mov	r9, r1
    208c:	4635      	mov	r5, r6
    208e:	2b00      	cmp	r3, #0
    2090:	f000 846c 	beq.w	296c <_dtoa_r+0xc58>
    2094:	e9dd 2316 	ldrd	r2, r3, [sp, #88]	@ 0x58
    2098:	497c      	ldr	r1, [pc, #496]	@ (228c <_dtoa_r+0x578>)
    209a:	2000      	movs	r0, #0
    209c:	f004 f8be 	bl	621c <__aeabi_ddiv>
    20a0:	e9dd 2314 	ldrd	r2, r3, [sp, #80]	@ 0x50
    20a4:	f003 fdd8 	bl	5c58 <__aeabi_dsub>
    20a8:	703c      	strb	r4, [r7, #0]
    20aa:	4642      	mov	r2, r8
    20ac:	464b      	mov	r3, r9
    20ae:	4604      	mov	r4, r0
    20b0:	460d      	mov	r5, r1
    20b2:	f004 fa19 	bl	64e8 <__aeabi_dcmpgt>
    20b6:	2800      	cmp	r0, #0
    20b8:	f040 84b8 	bne.w	2a2c <_dtoa_r+0xd18>
    20bc:	f8cd a050 	str.w	sl, [sp, #80]	@ 0x50
    20c0:	f8cd b058 	str.w	fp, [sp, #88]	@ 0x58
    20c4:	2700      	movs	r7, #0
    20c6:	46ab      	mov	fp, r5
    20c8:	46a2      	mov	sl, r4
    20ca:	9d18      	ldr	r5, [sp, #96]	@ 0x60
    20cc:	e02a      	b.n	2124 <_dtoa_r+0x410>
    20ce:	3701      	adds	r7, #1
    20d0:	42af      	cmp	r7, r5
    20d2:	f280 84fd 	bge.w	2ad0 <_dtoa_r+0xdbc>
    20d6:	4b6e      	ldr	r3, [pc, #440]	@ (2290 <_dtoa_r+0x57c>)
    20d8:	4650      	mov	r0, sl
    20da:	4659      	mov	r1, fp
    20dc:	2200      	movs	r2, #0
    20de:	f003 ff73 	bl	5fc8 <__aeabi_dmul>
    20e2:	4b6b      	ldr	r3, [pc, #428]	@ (2290 <_dtoa_r+0x57c>)
    20e4:	2200      	movs	r2, #0
    20e6:	4682      	mov	sl, r0
    20e8:	468b      	mov	fp, r1
    20ea:	4640      	mov	r0, r8
    20ec:	4649      	mov	r1, r9
    20ee:	f003 ff6b 	bl	5fc8 <__aeabi_dmul>
    20f2:	4689      	mov	r9, r1
    20f4:	4680      	mov	r8, r0
    20f6:	f004 fa17 	bl	6528 <__aeabi_d2iz>
    20fa:	4604      	mov	r4, r0
    20fc:	f003 fefa 	bl	5ef4 <__aeabi_i2d>
    2100:	4602      	mov	r2, r0
    2102:	460b      	mov	r3, r1
    2104:	4640      	mov	r0, r8
    2106:	4649      	mov	r1, r9
    2108:	f003 fda6 	bl	5c58 <__aeabi_dsub>
    210c:	3430      	adds	r4, #48	@ 0x30
    210e:	f806 4b01 	strb.w	r4, [r6], #1
    2112:	4652      	mov	r2, sl
    2114:	465b      	mov	r3, fp
    2116:	4680      	mov	r8, r0
    2118:	4689      	mov	r9, r1
    211a:	f004 f9c7 	bl	64ac <__aeabi_dcmplt>
    211e:	2800      	cmp	r0, #0
    2120:	f040 84d3 	bne.w	2aca <_dtoa_r+0xdb6>
    2124:	4642      	mov	r2, r8
    2126:	464b      	mov	r3, r9
    2128:	4956      	ldr	r1, [pc, #344]	@ (2284 <_dtoa_r+0x570>)
    212a:	2000      	movs	r0, #0
    212c:	f003 fd94 	bl	5c58 <__aeabi_dsub>
    2130:	4652      	mov	r2, sl
    2132:	465b      	mov	r3, fp
    2134:	f004 f9ba 	bl	64ac <__aeabi_dcmplt>
    2138:	2800      	cmp	r0, #0
    213a:	d0c8      	beq.n	20ce <_dtoa_r+0x3ba>
    213c:	9b19      	ldr	r3, [sp, #100]	@ 0x64
    213e:	f8dd a050 	ldr.w	sl, [sp, #80]	@ 0x50
    2142:	9a05      	ldr	r2, [sp, #20]
    2144:	4637      	mov	r7, r6
    2146:	f103 0801 	add.w	r8, r3, #1
    214a:	e002      	b.n	2152 <_dtoa_r+0x43e>
    214c:	4297      	cmp	r7, r2
    214e:	f000 849b 	beq.w	2a88 <_dtoa_r+0xd74>
    2152:	463e      	mov	r6, r7
    2154:	f817 3d01 	ldrb.w	r3, [r7, #-1]!
    2158:	2b39      	cmp	r3, #57	@ 0x39
    215a:	d0f7      	beq.n	214c <_dtoa_r+0x438>
    215c:	3301      	adds	r3, #1
    215e:	b2db      	uxtb	r3, r3
    2160:	703b      	strb	r3, [r7, #0]
    2162:	4645      	mov	r5, r8
    2164:	e17d      	b.n	2462 <_dtoa_r+0x74e>
    2166:	2301      	movs	r3, #1
    2168:	9311      	str	r3, [sp, #68]	@ 0x44
    216a:	9b08      	ldr	r3, [sp, #32]
    216c:	2b00      	cmp	r3, #0
    216e:	f6bf ae81 	bge.w	1e74 <_dtoa_r+0x160>
    2172:	f1c8 0301 	rsb	r3, r8, #1
    2176:	930c      	str	r3, [sp, #48]	@ 0x30
    2178:	2300      	movs	r3, #0
    217a:	9308      	str	r3, [sp, #32]
    217c:	e67c      	b.n	1e78 <_dtoa_r+0x164>
    217e:	4638      	mov	r0, r7
    2180:	f003 feb8 	bl	5ef4 <__aeabi_i2d>
    2184:	4642      	mov	r2, r8
    2186:	464b      	mov	r3, r9
    2188:	f003 ff1e 	bl	5fc8 <__aeabi_dmul>
    218c:	4b3e      	ldr	r3, [pc, #248]	@ (2288 <_dtoa_r+0x574>)
    218e:	2200      	movs	r2, #0
    2190:	f003 fd64 	bl	5c5c <__adddf3>
    2194:	f1a1 7350 	sub.w	r3, r1, #54525952	@ 0x3400000
    2198:	e9cd 0114 	strd	r0, r1, [sp, #80]	@ 0x50
    219c:	9315      	str	r3, [sp, #84]	@ 0x54
    219e:	4b3d      	ldr	r3, [pc, #244]	@ (2294 <_dtoa_r+0x580>)
    21a0:	2200      	movs	r2, #0
    21a2:	4640      	mov	r0, r8
    21a4:	4649      	mov	r1, r9
    21a6:	f003 fd57 	bl	5c58 <__aeabi_dsub>
    21aa:	e9dd 4514 	ldrd	r4, r5, [sp, #80]	@ 0x50
    21ae:	4622      	mov	r2, r4
    21b0:	462b      	mov	r3, r5
    21b2:	4606      	mov	r6, r0
    21b4:	460f      	mov	r7, r1
    21b6:	f004 f997 	bl	64e8 <__aeabi_dcmpgt>
    21ba:	2800      	cmp	r0, #0
    21bc:	f040 8473 	bne.w	2aa6 <_dtoa_r+0xd92>
    21c0:	4630      	mov	r0, r6
    21c2:	4639      	mov	r1, r7
    21c4:	4622      	mov	r2, r4
    21c6:	f105 4300 	add.w	r3, r5, #2147483648	@ 0x80000000
    21ca:	f004 f96f 	bl	64ac <__aeabi_dcmplt>
    21ce:	bb28      	cbnz	r0, 221c <_dtoa_r+0x508>
    21d0:	9b1b      	ldr	r3, [sp, #108]	@ 0x6c
    21d2:	2b00      	cmp	r3, #0
    21d4:	f2c0 8090 	blt.w	22f8 <_dtoa_r+0x5e4>
    21d8:	9a0d      	ldr	r2, [sp, #52]	@ 0x34
    21da:	2a0e      	cmp	r2, #14
    21dc:	f300 808c 	bgt.w	22f8 <_dtoa_r+0x5e4>
    21e0:	4b26      	ldr	r3, [pc, #152]	@ (227c <_dtoa_r+0x568>)
    21e2:	9a0d      	ldr	r2, [sp, #52]	@ 0x34
    21e4:	eb03 03c2 	add.w	r3, r3, r2, lsl #3
    21e8:	ed93 7b00 	vldr	d7, [r3]
    21ec:	9b0b      	ldr	r3, [sp, #44]	@ 0x2c
    21ee:	2b00      	cmp	r3, #0
    21f0:	ed8d 7b02 	vstr	d7, [sp, #8]
    21f4:	da19      	bge.n	222a <_dtoa_r+0x516>
    21f6:	f1bb 0f00 	cmp.w	fp, #0
    21fa:	dc16      	bgt.n	222a <_dtoa_r+0x516>
    21fc:	d10e      	bne.n	221c <_dtoa_r+0x508>
    21fe:	4b25      	ldr	r3, [pc, #148]	@ (2294 <_dtoa_r+0x580>)
    2200:	2200      	movs	r2, #0
    2202:	e9dd 0102 	ldrd	r0, r1, [sp, #8]
    2206:	f003 fedf 	bl	5fc8 <__aeabi_dmul>
    220a:	4602      	mov	r2, r0
    220c:	460b      	mov	r3, r1
    220e:	e9dd 0100 	ldrd	r0, r1, [sp]
    2212:	f004 f955 	bl	64c0 <__aeabi_dcmple>
    2216:	2800      	cmp	r0, #0
    2218:	f000 8445 	beq.w	2aa6 <_dtoa_r+0xd92>
    221c:	2300      	movs	r3, #0
    221e:	9e05      	ldr	r6, [sp, #20]
    2220:	9300      	str	r3, [sp, #0]
    2222:	461f      	mov	r7, r3
    2224:	9b0b      	ldr	r3, [sp, #44]	@ 0x2c
    2226:	43dd      	mvns	r5, r3
    2228:	e22d      	b.n	2686 <_dtoa_r+0x972>
    222a:	9b05      	ldr	r3, [sp, #20]
    222c:	1c5d      	adds	r5, r3, #1
    222e:	e9dd 7802 	ldrd	r7, r8, [sp, #8]
    2232:	e9dd 0100 	ldrd	r0, r1, [sp]
    2236:	463a      	mov	r2, r7
    2238:	4643      	mov	r3, r8
    223a:	f003 ffef 	bl	621c <__aeabi_ddiv>
    223e:	f004 f973 	bl	6528 <__aeabi_d2iz>
    2242:	4606      	mov	r6, r0
    2244:	f003 fe56 	bl	5ef4 <__aeabi_i2d>
    2248:	463a      	mov	r2, r7
    224a:	4643      	mov	r3, r8
    224c:	f003 febc 	bl	5fc8 <__aeabi_dmul>
    2250:	4602      	mov	r2, r0
    2252:	460b      	mov	r3, r1
    2254:	e9dd 0100 	ldrd	r0, r1, [sp]
    2258:	f003 fcfe 	bl	5c58 <__aeabi_dsub>
    225c:	9a05      	ldr	r2, [sp, #20]
    225e:	f106 0330 	add.w	r3, r6, #48	@ 0x30
    2262:	f1bb 0f01 	cmp.w	fp, #1
    2266:	462f      	mov	r7, r5
    2268:	7013      	strb	r3, [r2, #0]
    226a:	f000 8321 	beq.w	28b0 <_dtoa_r+0xb9c>
    226e:	2501      	movs	r5, #1
    2270:	f8cd a000 	str.w	sl, [sp]
    2274:	46a8      	mov	r8, r5
    2276:	e9dd 9a02 	ldrd	r9, sl, [sp, #8]
    227a:	e02b      	b.n	22d4 <_dtoa_r+0x5c0>
    227c:	00006d10 	.word	0x00006d10
    2280:	00006e00 	.word	0x00006e00
    2284:	3ff00000 	.word	0x3ff00000
    2288:	401c0000 	.word	0x401c0000
    228c:	3fe00000 	.word	0x3fe00000
    2290:	40240000 	.word	0x40240000
    2294:	40140000 	.word	0x40140000
    2298:	464a      	mov	r2, r9
    229a:	4653      	mov	r3, sl
    229c:	4620      	mov	r0, r4
    229e:	4629      	mov	r1, r5
    22a0:	f003 ffbc 	bl	621c <__aeabi_ddiv>
    22a4:	f004 f940 	bl	6528 <__aeabi_d2iz>
    22a8:	4606      	mov	r6, r0
    22aa:	f003 fe23 	bl	5ef4 <__aeabi_i2d>
    22ae:	464a      	mov	r2, r9
    22b0:	4653      	mov	r3, sl
    22b2:	f003 fe89 	bl	5fc8 <__aeabi_dmul>
    22b6:	f108 0801 	add.w	r8, r8, #1
    22ba:	460b      	mov	r3, r1
    22bc:	4602      	mov	r2, r0
    22be:	4629      	mov	r1, r5
    22c0:	4620      	mov	r0, r4
    22c2:	f003 fcc9 	bl	5c58 <__aeabi_dsub>
    22c6:	f106 0330 	add.w	r3, r6, #48	@ 0x30
    22ca:	45d8      	cmp	r8, fp
    22cc:	f807 3b01 	strb.w	r3, [r7], #1
    22d0:	f000 82ec 	beq.w	28ac <_dtoa_r+0xb98>
    22d4:	4b84      	ldr	r3, [pc, #528]	@ (24e8 <_dtoa_r+0x7d4>)
    22d6:	2200      	movs	r2, #0
    22d8:	f003 fe76 	bl	5fc8 <__aeabi_dmul>
    22dc:	2200      	movs	r2, #0
    22de:	2300      	movs	r3, #0
    22e0:	4604      	mov	r4, r0
    22e2:	460d      	mov	r5, r1
    22e4:	f004 f8d8 	bl	6498 <__aeabi_dcmpeq>
    22e8:	2800      	cmp	r0, #0
    22ea:	d0d5      	beq.n	2298 <_dtoa_r+0x584>
    22ec:	9d0d      	ldr	r5, [sp, #52]	@ 0x34
    22ee:	f8dd a000 	ldr.w	sl, [sp]
    22f2:	3501      	adds	r5, #1
    22f4:	463e      	mov	r6, r7
    22f6:	e0b4      	b.n	2462 <_dtoa_r+0x74e>
    22f8:	9a0e      	ldr	r2, [sp, #56]	@ 0x38
    22fa:	2a00      	cmp	r2, #0
    22fc:	f040 80d8 	bne.w	24b0 <_dtoa_r+0x79c>
    2300:	2300      	movs	r3, #0
    2302:	9e10      	ldr	r6, [sp, #64]	@ 0x40
    2304:	9d0c      	ldr	r5, [sp, #48]	@ 0x30
    2306:	930e      	str	r3, [sp, #56]	@ 0x38
    2308:	461f      	mov	r7, r3
    230a:	b165      	cbz	r5, 2326 <_dtoa_r+0x612>
    230c:	9a08      	ldr	r2, [sp, #32]
    230e:	2a00      	cmp	r2, #0
    2310:	dd09      	ble.n	2326 <_dtoa_r+0x612>
    2312:	990c      	ldr	r1, [sp, #48]	@ 0x30
    2314:	42aa      	cmp	r2, r5
    2316:	4613      	mov	r3, r2
    2318:	bfa8      	it	ge
    231a:	462b      	movge	r3, r5
    231c:	1ac9      	subs	r1, r1, r3
    231e:	1aed      	subs	r5, r5, r3
    2320:	1ad3      	subs	r3, r2, r3
    2322:	910c      	str	r1, [sp, #48]	@ 0x30
    2324:	9308      	str	r3, [sp, #32]
    2326:	9b10      	ldr	r3, [sp, #64]	@ 0x40
    2328:	b153      	cbz	r3, 2340 <_dtoa_r+0x62c>
    232a:	9b0e      	ldr	r3, [sp, #56]	@ 0x38
    232c:	b113      	cbz	r3, 2334 <_dtoa_r+0x620>
    232e:	2e00      	cmp	r6, #0
    2330:	f040 82f7 	bne.w	2922 <_dtoa_r+0xc0e>
    2334:	4651      	mov	r1, sl
    2336:	9a10      	ldr	r2, [sp, #64]	@ 0x40
    2338:	9804      	ldr	r0, [sp, #16]
    233a:	f001 fa37 	bl	37ac <__pow5mult>
    233e:	4682      	mov	sl, r0
    2340:	9804      	ldr	r0, [sp, #16]
    2342:	2101      	movs	r1, #1
    2344:	f001 f94e 	bl	35e4 <__i2b>
    2348:	9b09      	ldr	r3, [sp, #36]	@ 0x24
    234a:	9000      	str	r0, [sp, #0]
    234c:	2b00      	cmp	r3, #0
    234e:	f040 81be 	bne.w	26ce <_dtoa_r+0x9ba>
    2352:	9b02      	ldr	r3, [sp, #8]
    2354:	2b01      	cmp	r3, #1
    2356:	f340 81d4 	ble.w	2702 <_dtoa_r+0x9ee>
    235a:	2001      	movs	r0, #1
    235c:	9a08      	ldr	r2, [sp, #32]
    235e:	4410      	add	r0, r2
    2360:	f010 001f 	ands.w	r0, r0, #31
    2364:	f000 809b 	beq.w	249e <_dtoa_r+0x78a>
    2368:	f1c0 0320 	rsb	r3, r0, #32
    236c:	2b04      	cmp	r3, #4
    236e:	f340 81e3 	ble.w	2738 <_dtoa_r+0xa24>
    2372:	9b0c      	ldr	r3, [sp, #48]	@ 0x30
    2374:	f1c0 001c 	rsb	r0, r0, #28
    2378:	4403      	add	r3, r0
    237a:	4402      	add	r2, r0
    237c:	930c      	str	r3, [sp, #48]	@ 0x30
    237e:	4405      	add	r5, r0
    2380:	9208      	str	r2, [sp, #32]
    2382:	9b0c      	ldr	r3, [sp, #48]	@ 0x30
    2384:	2b00      	cmp	r3, #0
    2386:	dd05      	ble.n	2394 <_dtoa_r+0x680>
    2388:	4651      	mov	r1, sl
    238a:	9804      	ldr	r0, [sp, #16]
    238c:	461a      	mov	r2, r3
    238e:	f001 fa67 	bl	3860 <__lshift>
    2392:	4682      	mov	sl, r0
    2394:	9b08      	ldr	r3, [sp, #32]
    2396:	2b00      	cmp	r3, #0
    2398:	dd05      	ble.n	23a6 <_dtoa_r+0x692>
    239a:	9900      	ldr	r1, [sp, #0]
    239c:	9804      	ldr	r0, [sp, #16]
    239e:	461a      	mov	r2, r3
    23a0:	f001 fa5e 	bl	3860 <__lshift>
    23a4:	9000      	str	r0, [sp, #0]
    23a6:	9b11      	ldr	r3, [sp, #68]	@ 0x44
    23a8:	2b00      	cmp	r3, #0
    23aa:	f040 8175 	bne.w	2698 <_dtoa_r+0x984>
    23ae:	f1bb 0f00 	cmp.w	fp, #0
    23b2:	f340 814c 	ble.w	264e <_dtoa_r+0x93a>
    23b6:	9b0e      	ldr	r3, [sp, #56]	@ 0x38
    23b8:	2b00      	cmp	r3, #0
    23ba:	f040 80a4 	bne.w	2506 <_dtoa_r+0x7f2>
    23be:	9d0d      	ldr	r5, [sp, #52]	@ 0x34
    23c0:	3501      	adds	r5, #1
    23c2:	f8dd 8014 	ldr.w	r8, [sp, #20]
    23c6:	9c00      	ldr	r4, [sp, #0]
    23c8:	f8dd 9010 	ldr.w	r9, [sp, #16]
    23cc:	2601      	movs	r6, #1
    23ce:	e007      	b.n	23e0 <_dtoa_r+0x6cc>
    23d0:	4651      	mov	r1, sl
    23d2:	2300      	movs	r3, #0
    23d4:	220a      	movs	r2, #10
    23d6:	4648      	mov	r0, r9
    23d8:	f001 f808 	bl	33ec <__multadd>
    23dc:	3601      	adds	r6, #1
    23de:	4682      	mov	sl, r0
    23e0:	4621      	mov	r1, r4
    23e2:	4650      	mov	r0, sl
    23e4:	f7ff fc00 	bl	1be8 <quorem>
    23e8:	45b3      	cmp	fp, r6
    23ea:	f100 0030 	add.w	r0, r0, #48	@ 0x30
    23ee:	f808 0b01 	strb.w	r0, [r8], #1
    23f2:	dced      	bgt.n	23d0 <_dtoa_r+0x6bc>
    23f4:	f1bb 0f00 	cmp.w	fp, #0
    23f8:	9b05      	ldr	r3, [sp, #20]
    23fa:	bfcc      	ite	gt
    23fc:	465e      	movgt	r6, fp
    23fe:	2601      	movle	r6, #1
    2400:	4681      	mov	r9, r0
    2402:	eb03 0b06 	add.w	fp, r3, r6
    2406:	2400      	movs	r4, #0
    2408:	4651      	mov	r1, sl
    240a:	2201      	movs	r2, #1
    240c:	9804      	ldr	r0, [sp, #16]
    240e:	f001 fa27 	bl	3860 <__lshift>
    2412:	9900      	ldr	r1, [sp, #0]
    2414:	4682      	mov	sl, r0
    2416:	f001 fa9b 	bl	3950 <__mcmp>
    241a:	2800      	cmp	r0, #0
    241c:	f340 81ee 	ble.w	27fc <_dtoa_r+0xae8>
    2420:	9a05      	ldr	r2, [sp, #20]
    2422:	e002      	b.n	242a <_dtoa_r+0x716>
    2424:	4593      	cmp	fp, r2
    2426:	f000 8203 	beq.w	2830 <_dtoa_r+0xb1c>
    242a:	465e      	mov	r6, fp
    242c:	f10b 3bff 	add.w	fp, fp, #4294967295	@ 0xffffffff
    2430:	f816 3c01 	ldrb.w	r3, [r6, #-1]
    2434:	2b39      	cmp	r3, #57	@ 0x39
    2436:	d0f5      	beq.n	2424 <_dtoa_r+0x710>
    2438:	3301      	adds	r3, #1
    243a:	f88b 3000 	strb.w	r3, [fp]
    243e:	f8dd 8010 	ldr.w	r8, [sp, #16]
    2442:	9900      	ldr	r1, [sp, #0]
    2444:	4640      	mov	r0, r8
    2446:	f000 ffc7 	bl	33d8 <_Bfree>
    244a:	b157      	cbz	r7, 2462 <_dtoa_r+0x74e>
    244c:	b12c      	cbz	r4, 245a <_dtoa_r+0x746>
    244e:	42bc      	cmp	r4, r7
    2450:	d003      	beq.n	245a <_dtoa_r+0x746>
    2452:	4621      	mov	r1, r4
    2454:	4640      	mov	r0, r8
    2456:	f000 ffbf 	bl	33d8 <_Bfree>
    245a:	9804      	ldr	r0, [sp, #16]
    245c:	4639      	mov	r1, r7
    245e:	f000 ffbb 	bl	33d8 <_Bfree>
    2462:	9804      	ldr	r0, [sp, #16]
    2464:	4651      	mov	r1, sl
    2466:	f000 ffb7 	bl	33d8 <_Bfree>
    246a:	2300      	movs	r3, #0
    246c:	7033      	strb	r3, [r6, #0]
    246e:	9b0a      	ldr	r3, [sp, #40]	@ 0x28
    2470:	601d      	str	r5, [r3, #0]
    2472:	9b27      	ldr	r3, [sp, #156]	@ 0x9c
    2474:	2b00      	cmp	r3, #0
    2476:	f43f ac8b 	beq.w	1d90 <_dtoa_r+0x7c>
    247a:	9805      	ldr	r0, [sp, #20]
    247c:	601e      	str	r6, [r3, #0]
    247e:	b01d      	add	sp, #116	@ 0x74
    2480:	e8bd 8ff0 	ldmia.w	sp!, {r4, r5, r6, r7, r8, r9, sl, fp, pc}
    2484:	4620      	mov	r0, r4
    2486:	f003 fd35 	bl	5ef4 <__aeabi_i2d>
    248a:	4632      	mov	r2, r6
    248c:	463b      	mov	r3, r7
    248e:	f004 f803 	bl	6498 <__aeabi_dcmpeq>
    2492:	2800      	cmp	r0, #0
    2494:	f47f acd2 	bne.w	1e3c <_dtoa_r+0x128>
    2498:	1e63      	subs	r3, r4, #1
    249a:	9309      	str	r3, [sp, #36]	@ 0x24
    249c:	e4ce      	b.n	1e3c <_dtoa_r+0x128>
    249e:	231c      	movs	r3, #28
    24a0:	9a0c      	ldr	r2, [sp, #48]	@ 0x30
    24a2:	441a      	add	r2, r3
    24a4:	920c      	str	r2, [sp, #48]	@ 0x30
    24a6:	9a08      	ldr	r2, [sp, #32]
    24a8:	441a      	add	r2, r3
    24aa:	441d      	add	r5, r3
    24ac:	9208      	str	r2, [sp, #32]
    24ae:	e768      	b.n	2382 <_dtoa_r+0x66e>
    24b0:	9a02      	ldr	r2, [sp, #8]
    24b2:	2a01      	cmp	r2, #1
    24b4:	f340 81ad 	ble.w	2812 <_dtoa_r+0xafe>
    24b8:	9b10      	ldr	r3, [sp, #64]	@ 0x40
    24ba:	f10b 36ff 	add.w	r6, fp, #4294967295	@ 0xffffffff
    24be:	42b3      	cmp	r3, r6
    24c0:	f2c0 8169 	blt.w	2796 <_dtoa_r+0xa82>
    24c4:	f1bb 0f00 	cmp.w	fp, #0
    24c8:	eba3 0606 	sub.w	r6, r3, r6
    24cc:	f280 82ef 	bge.w	2aae <_dtoa_r+0xd9a>
    24d0:	9b0c      	ldr	r3, [sp, #48]	@ 0x30
    24d2:	eba3 050b 	sub.w	r5, r3, fp
    24d6:	e16c      	b.n	27b2 <_dtoa_r+0xa9e>
    24d8:	f1c3 0320 	rsb	r3, r3, #32
    24dc:	fa06 f003 	lsl.w	r0, r6, r3
    24e0:	e478      	b.n	1dd4 <_dtoa_r+0xc0>
    24e2:	2501      	movs	r5, #1
    24e4:	e4dd      	b.n	1ea2 <_dtoa_r+0x18e>
    24e6:	bf00      	nop
    24e8:	40240000 	.word	0x40240000
    24ec:	4639      	mov	r1, r7
    24ee:	2300      	movs	r3, #0
    24f0:	9804      	ldr	r0, [sp, #16]
    24f2:	220a      	movs	r2, #10
    24f4:	f000 ff7a 	bl	33ec <__multadd>
    24f8:	9b13      	ldr	r3, [sp, #76]	@ 0x4c
    24fa:	2b00      	cmp	r3, #0
    24fc:	4607      	mov	r7, r0
    24fe:	f340 82ff 	ble.w	2b00 <_dtoa_r+0xdec>
    2502:	960d      	str	r6, [sp, #52]	@ 0x34
    2504:	469b      	mov	fp, r3
    2506:	2d00      	cmp	r5, #0
    2508:	dd05      	ble.n	2516 <_dtoa_r+0x802>
    250a:	4639      	mov	r1, r7
    250c:	9804      	ldr	r0, [sp, #16]
    250e:	462a      	mov	r2, r5
    2510:	f001 f9a6 	bl	3860 <__lshift>
    2514:	4607      	mov	r7, r0
    2516:	9b09      	ldr	r3, [sp, #36]	@ 0x24
    2518:	2b00      	cmp	r3, #0
    251a:	f040 81e6 	bne.w	28ea <_dtoa_r+0xbd6>
    251e:	46b8      	mov	r8, r7
    2520:	9e05      	ldr	r6, [sp, #20]
    2522:	1e73      	subs	r3, r6, #1
    2524:	eb03 040b 	add.w	r4, r3, fp
    2528:	9b06      	ldr	r3, [sp, #24]
    252a:	f003 0301 	and.w	r3, r3, #1
    252e:	e9cd 430b 	strd	r4, r3, [sp, #44]	@ 0x2c
    2532:	9c04      	ldr	r4, [sp, #16]
    2534:	9900      	ldr	r1, [sp, #0]
    2536:	4650      	mov	r0, sl
    2538:	f7ff fb56 	bl	1be8 <quorem>
    253c:	4639      	mov	r1, r7
    253e:	4683      	mov	fp, r0
    2540:	4650      	mov	r0, sl
    2542:	f001 fa05 	bl	3950 <__mcmp>
    2546:	9900      	ldr	r1, [sp, #0]
    2548:	4605      	mov	r5, r0
    254a:	4642      	mov	r2, r8
    254c:	4620      	mov	r0, r4
    254e:	f001 fa21 	bl	3994 <__mdiff>
    2552:	68c3      	ldr	r3, [r0, #12]
    2554:	f10b 0930 	add.w	r9, fp, #48	@ 0x30
    2558:	4601      	mov	r1, r0
    255a:	bbab      	cbnz	r3, 25c8 <_dtoa_r+0x8b4>
    255c:	9009      	str	r0, [sp, #36]	@ 0x24
    255e:	4650      	mov	r0, sl
    2560:	f001 f9f6 	bl	3950 <__mcmp>
    2564:	9909      	ldr	r1, [sp, #36]	@ 0x24
    2566:	9008      	str	r0, [sp, #32]
    2568:	4620      	mov	r0, r4
    256a:	f000 ff35 	bl	33d8 <_Bfree>
    256e:	9a08      	ldr	r2, [sp, #32]
    2570:	2a00      	cmp	r2, #0
    2572:	d154      	bne.n	261e <_dtoa_r+0x90a>
    2574:	9b02      	ldr	r3, [sp, #8]
    2576:	b91b      	cbnz	r3, 2580 <_dtoa_r+0x86c>
    2578:	9b0c      	ldr	r3, [sp, #48]	@ 0x30
    257a:	2b00      	cmp	r3, #0
    257c:	f000 82ae 	beq.w	2adc <_dtoa_r+0xdc8>
    2580:	2d00      	cmp	r5, #0
    2582:	db3f      	blt.n	2604 <_dtoa_r+0x8f0>
    2584:	9b0b      	ldr	r3, [sp, #44]	@ 0x2c
    2586:	46b3      	mov	fp, r6
    2588:	429e      	cmp	r6, r3
    258a:	f80b 9b01 	strb.w	r9, [fp], #1
    258e:	f000 81c3 	beq.w	2918 <_dtoa_r+0xc04>
    2592:	4651      	mov	r1, sl
    2594:	2300      	movs	r3, #0
    2596:	220a      	movs	r2, #10
    2598:	4620      	mov	r0, r4
    259a:	f000 ff27 	bl	33ec <__multadd>
    259e:	4547      	cmp	r7, r8
    25a0:	4682      	mov	sl, r0
    25a2:	4639      	mov	r1, r7
    25a4:	f04f 0300 	mov.w	r3, #0
    25a8:	f04f 020a 	mov.w	r2, #10
    25ac:	4620      	mov	r0, r4
    25ae:	d030      	beq.n	2612 <_dtoa_r+0x8fe>
    25b0:	f000 ff1c 	bl	33ec <__multadd>
    25b4:	4641      	mov	r1, r8
    25b6:	4607      	mov	r7, r0
    25b8:	2300      	movs	r3, #0
    25ba:	220a      	movs	r2, #10
    25bc:	4620      	mov	r0, r4
    25be:	f000 ff15 	bl	33ec <__multadd>
    25c2:	465e      	mov	r6, fp
    25c4:	4680      	mov	r8, r0
    25c6:	e7b5      	b.n	2534 <_dtoa_r+0x820>
    25c8:	9804      	ldr	r0, [sp, #16]
    25ca:	f000 ff05 	bl	33d8 <_Bfree>
    25ce:	2d00      	cmp	r5, #0
    25d0:	db06      	blt.n	25e0 <_dtoa_r+0x8cc>
    25d2:	9b06      	ldr	r3, [sp, #24]
    25d4:	f003 0201 	and.w	r2, r3, #1
    25d8:	9b02      	ldr	r3, [sp, #8]
    25da:	431d      	orrs	r5, r3
    25dc:	432a      	orrs	r2, r5
    25de:	d129      	bne.n	2634 <_dtoa_r+0x920>
    25e0:	4651      	mov	r1, sl
    25e2:	2201      	movs	r2, #1
    25e4:	9804      	ldr	r0, [sp, #16]
    25e6:	f001 f93b 	bl	3860 <__lshift>
    25ea:	9900      	ldr	r1, [sp, #0]
    25ec:	4682      	mov	sl, r0
    25ee:	f001 f9af 	bl	3950 <__mcmp>
    25f2:	2800      	cmp	r0, #0
    25f4:	f340 80f6 	ble.w	27e4 <_dtoa_r+0xad0>
    25f8:	f1b9 0f39 	cmp.w	r9, #57	@ 0x39
    25fc:	f000 8249 	beq.w	2a92 <_dtoa_r+0xd7e>
    2600:	f10b 0931 	add.w	r9, fp, #49	@ 0x31
    2604:	9d0d      	ldr	r5, [sp, #52]	@ 0x34
    2606:	f806 9b01 	strb.w	r9, [r6], #1
    260a:	463c      	mov	r4, r7
    260c:	3501      	adds	r5, #1
    260e:	4647      	mov	r7, r8
    2610:	e715      	b.n	243e <_dtoa_r+0x72a>
    2612:	f000 feeb 	bl	33ec <__multadd>
    2616:	465e      	mov	r6, fp
    2618:	4607      	mov	r7, r0
    261a:	4680      	mov	r8, r0
    261c:	e78a      	b.n	2534 <_dtoa_r+0x820>
    261e:	2d00      	cmp	r5, #0
    2620:	f2c0 8293 	blt.w	2b4a <_dtoa_r+0xe36>
    2624:	9b02      	ldr	r3, [sp, #8]
    2626:	431d      	orrs	r5, r3
    2628:	9b0c      	ldr	r3, [sp, #48]	@ 0x30
    262a:	431d      	orrs	r5, r3
    262c:	f000 828d 	beq.w	2b4a <_dtoa_r+0xe36>
    2630:	2a00      	cmp	r2, #0
    2632:	dda7      	ble.n	2584 <_dtoa_r+0x870>
    2634:	f1b9 0f39 	cmp.w	r9, #57	@ 0x39
    2638:	f000 822b 	beq.w	2a92 <_dtoa_r+0xd7e>
    263c:	9d0d      	ldr	r5, [sp, #52]	@ 0x34
    263e:	f109 0301 	add.w	r3, r9, #1
    2642:	463c      	mov	r4, r7
    2644:	f806 3b01 	strb.w	r3, [r6], #1
    2648:	3501      	adds	r5, #1
    264a:	4647      	mov	r7, r8
    264c:	e6f7      	b.n	243e <_dtoa_r+0x72a>
    264e:	9b02      	ldr	r3, [sp, #8]
    2650:	2b02      	cmp	r3, #2
    2652:	f77f aeb0 	ble.w	23b6 <_dtoa_r+0x6a2>
    2656:	f1bb 0f00 	cmp.w	fp, #0
    265a:	f040 8125 	bne.w	28a8 <_dtoa_r+0xb94>
    265e:	9900      	ldr	r1, [sp, #0]
    2660:	9804      	ldr	r0, [sp, #16]
    2662:	465b      	mov	r3, fp
    2664:	2205      	movs	r2, #5
    2666:	f000 fec1 	bl	33ec <__multadd>
    266a:	4601      	mov	r1, r0
    266c:	9000      	str	r0, [sp, #0]
    266e:	4650      	mov	r0, sl
    2670:	f001 f96e 	bl	3950 <__mcmp>
    2674:	2800      	cmp	r0, #0
    2676:	f340 8117 	ble.w	28a8 <_dtoa_r+0xb94>
    267a:	9e05      	ldr	r6, [sp, #20]
    267c:	9d0d      	ldr	r5, [sp, #52]	@ 0x34
    267e:	2331      	movs	r3, #49	@ 0x31
    2680:	f806 3b01 	strb.w	r3, [r6], #1
    2684:	3501      	adds	r5, #1
    2686:	9900      	ldr	r1, [sp, #0]
    2688:	9804      	ldr	r0, [sp, #16]
    268a:	f000 fea5 	bl	33d8 <_Bfree>
    268e:	3501      	adds	r5, #1
    2690:	2f00      	cmp	r7, #0
    2692:	f47f aee2 	bne.w	245a <_dtoa_r+0x746>
    2696:	e6e4      	b.n	2462 <_dtoa_r+0x74e>
    2698:	9900      	ldr	r1, [sp, #0]
    269a:	4650      	mov	r0, sl
    269c:	f001 f958 	bl	3950 <__mcmp>
    26a0:	2800      	cmp	r0, #0
    26a2:	f6bf ae84 	bge.w	23ae <_dtoa_r+0x69a>
    26a6:	4651      	mov	r1, sl
    26a8:	2300      	movs	r3, #0
    26aa:	9804      	ldr	r0, [sp, #16]
    26ac:	9c0d      	ldr	r4, [sp, #52]	@ 0x34
    26ae:	220a      	movs	r2, #10
    26b0:	f000 fe9c 	bl	33ec <__multadd>
    26b4:	9b0e      	ldr	r3, [sp, #56]	@ 0x38
    26b6:	1e66      	subs	r6, r4, #1
    26b8:	4682      	mov	sl, r0
    26ba:	2b00      	cmp	r3, #0
    26bc:	f47f af16 	bne.w	24ec <_dtoa_r+0x7d8>
    26c0:	9b13      	ldr	r3, [sp, #76]	@ 0x4c
    26c2:	2b00      	cmp	r3, #0
    26c4:	f340 8211 	ble.w	2aea <_dtoa_r+0xdd6>
    26c8:	9d0d      	ldr	r5, [sp, #52]	@ 0x34
    26ca:	469b      	mov	fp, r3
    26cc:	e679      	b.n	23c2 <_dtoa_r+0x6ae>
    26ce:	4601      	mov	r1, r0
    26d0:	461a      	mov	r2, r3
    26d2:	9804      	ldr	r0, [sp, #16]
    26d4:	f001 f86a 	bl	37ac <__pow5mult>
    26d8:	9b02      	ldr	r3, [sp, #8]
    26da:	9000      	str	r0, [sp, #0]
    26dc:	2b01      	cmp	r3, #1
    26de:	dd6e      	ble.n	27be <_dtoa_r+0xaaa>
    26e0:	2300      	movs	r3, #0
    26e2:	9309      	str	r3, [sp, #36]	@ 0x24
    26e4:	9a00      	ldr	r2, [sp, #0]
    26e6:	6913      	ldr	r3, [r2, #16]
    26e8:	eb02 0383 	add.w	r3, r2, r3, lsl #2
    26ec:	6918      	ldr	r0, [r3, #16]
    26ee:	f000 ff27 	bl	3540 <__hi0bits>
    26f2:	f1c0 0020 	rsb	r0, r0, #32
    26f6:	e631      	b.n	235c <_dtoa_r+0x648>
    26f8:	4b98      	ldr	r3, [pc, #608]	@ (295c <_dtoa_r+0xc48>)
    26fa:	9305      	str	r3, [sp, #20]
    26fc:	3303      	adds	r3, #3
    26fe:	f7ff bbeb 	b.w	1ed8 <_dtoa_r+0x1c4>
    2702:	9b06      	ldr	r3, [sp, #24]
    2704:	2b00      	cmp	r3, #0
    2706:	f47f ae28 	bne.w	235a <_dtoa_r+0x646>
    270a:	e9dd 1206 	ldrd	r1, r2, [sp, #24]
    270e:	f3c2 0313 	ubfx	r3, r2, #0, #20
    2712:	2b00      	cmp	r3, #0
    2714:	f47f ae21 	bne.w	235a <_dtoa_r+0x646>
    2718:	4b91      	ldr	r3, [pc, #580]	@ (2960 <_dtoa_r+0xc4c>)
    271a:	4013      	ands	r3, r2
    271c:	b133      	cbz	r3, 272c <_dtoa_r+0xa18>
    271e:	9b0c      	ldr	r3, [sp, #48]	@ 0x30
    2720:	3301      	adds	r3, #1
    2722:	930c      	str	r3, [sp, #48]	@ 0x30
    2724:	9b08      	ldr	r3, [sp, #32]
    2726:	3301      	adds	r3, #1
    2728:	9308      	str	r3, [sp, #32]
    272a:	2301      	movs	r3, #1
    272c:	9a09      	ldr	r2, [sp, #36]	@ 0x24
    272e:	9309      	str	r3, [sp, #36]	@ 0x24
    2730:	2a00      	cmp	r2, #0
    2732:	f43f ae12 	beq.w	235a <_dtoa_r+0x646>
    2736:	e7d5      	b.n	26e4 <_dtoa_r+0x9d0>
    2738:	f43f ae23 	beq.w	2382 <_dtoa_r+0x66e>
    273c:	f1c0 033c 	rsb	r3, r0, #60	@ 0x3c
    2740:	e6ae      	b.n	24a0 <_dtoa_r+0x78c>
    2742:	2301      	movs	r3, #1
    2744:	930e      	str	r3, [sp, #56]	@ 0x38
    2746:	9b0b      	ldr	r3, [sp, #44]	@ 0x2c
    2748:	9a0d      	ldr	r2, [sp, #52]	@ 0x34
    274a:	4413      	add	r3, r2
    274c:	f103 0b01 	add.w	fp, r3, #1
    2750:	465e      	mov	r6, fp
    2752:	2e01      	cmp	r6, #1
    2754:	9313      	str	r3, [sp, #76]	@ 0x4c
    2756:	bfb8      	it	lt
    2758:	2601      	movlt	r6, #1
    275a:	2e17      	cmp	r6, #23
    275c:	f340 81f9 	ble.w	2b52 <_dtoa_r+0xe3e>
    2760:	2201      	movs	r2, #1
    2762:	2304      	movs	r3, #4
    2764:	005b      	lsls	r3, r3, #1
    2766:	f103 0014 	add.w	r0, r3, #20
    276a:	42b0      	cmp	r0, r6
    276c:	4611      	mov	r1, r2
    276e:	f102 0201 	add.w	r2, r2, #1
    2772:	d9f7      	bls.n	2764 <_dtoa_r+0xa50>
    2774:	9b04      	ldr	r3, [sp, #16]
    2776:	63d9      	str	r1, [r3, #60]	@ 0x3c
    2778:	e404      	b.n	1f84 <_dtoa_r+0x270>
    277a:	2301      	movs	r3, #1
    277c:	930e      	str	r3, [sp, #56]	@ 0x38
    277e:	9e0b      	ldr	r6, [sp, #44]	@ 0x2c
    2780:	2e00      	cmp	r6, #0
    2782:	dd36      	ble.n	27f2 <_dtoa_r+0xade>
    2784:	9613      	str	r6, [sp, #76]	@ 0x4c
    2786:	46b3      	mov	fp, r6
    2788:	e7e7      	b.n	275a <_dtoa_r+0xa46>
    278a:	2300      	movs	r3, #0
    278c:	930e      	str	r3, [sp, #56]	@ 0x38
    278e:	e7da      	b.n	2746 <_dtoa_r+0xa32>
    2790:	2300      	movs	r3, #0
    2792:	930e      	str	r3, [sp, #56]	@ 0x38
    2794:	e7f3      	b.n	277e <_dtoa_r+0xa6a>
    2796:	9b10      	ldr	r3, [sp, #64]	@ 0x40
    2798:	9a09      	ldr	r2, [sp, #36]	@ 0x24
    279a:	9610      	str	r6, [sp, #64]	@ 0x40
    279c:	1af3      	subs	r3, r6, r3
    279e:	441a      	add	r2, r3
    27a0:	9b08      	ldr	r3, [sp, #32]
    27a2:	9209      	str	r2, [sp, #36]	@ 0x24
    27a4:	445b      	add	r3, fp
    27a6:	9308      	str	r3, [sp, #32]
    27a8:	9b0c      	ldr	r3, [sp, #48]	@ 0x30
    27aa:	461d      	mov	r5, r3
    27ac:	445b      	add	r3, fp
    27ae:	930c      	str	r3, [sp, #48]	@ 0x30
    27b0:	2600      	movs	r6, #0
    27b2:	9804      	ldr	r0, [sp, #16]
    27b4:	2101      	movs	r1, #1
    27b6:	f000 ff15 	bl	35e4 <__i2b>
    27ba:	4607      	mov	r7, r0
    27bc:	e5a5      	b.n	230a <_dtoa_r+0x5f6>
    27be:	9b06      	ldr	r3, [sp, #24]
    27c0:	2b00      	cmp	r3, #0
    27c2:	d18d      	bne.n	26e0 <_dtoa_r+0x9cc>
    27c4:	e9dd 0106 	ldrd	r0, r1, [sp, #24]
    27c8:	f3c1 0313 	ubfx	r3, r1, #0, #20
    27cc:	460a      	mov	r2, r1
    27ce:	2b00      	cmp	r3, #0
    27d0:	d0a2      	beq.n	2718 <_dtoa_r+0xa04>
    27d2:	9009      	str	r0, [sp, #36]	@ 0x24
    27d4:	e786      	b.n	26e4 <_dtoa_r+0x9d0>
    27d6:	ed9d 7b00 	vldr	d7, [sp]
    27da:	2702      	movs	r7, #2
    27dc:	ed8d 7b14 	vstr	d7, [sp, #80]	@ 0x50
    27e0:	f7ff bbfd 	b.w	1fde <_dtoa_r+0x2ca>
    27e4:	f47f af0e 	bne.w	2604 <_dtoa_r+0x8f0>
    27e8:	f019 0f01 	tst.w	r9, #1
    27ec:	f47f af04 	bne.w	25f8 <_dtoa_r+0x8e4>
    27f0:	e708      	b.n	2604 <_dtoa_r+0x8f0>
    27f2:	2301      	movs	r3, #1
    27f4:	930b      	str	r3, [sp, #44]	@ 0x2c
    27f6:	469b      	mov	fp, r3
    27f8:	f7ff bbbf 	b.w	1f7a <_dtoa_r+0x266>
    27fc:	d103      	bne.n	2806 <_dtoa_r+0xaf2>
    27fe:	f019 0f01 	tst.w	r9, #1
    2802:	f47f ae0d 	bne.w	2420 <_dtoa_r+0x70c>
    2806:	465e      	mov	r6, fp
    2808:	f81b 3d01 	ldrb.w	r3, [fp, #-1]!
    280c:	2b30      	cmp	r3, #48	@ 0x30
    280e:	d0fa      	beq.n	2806 <_dtoa_r+0xaf2>
    2810:	e615      	b.n	243e <_dtoa_r+0x72a>
    2812:	9a12      	ldr	r2, [sp, #72]	@ 0x48
    2814:	2a00      	cmp	r2, #0
    2816:	f000 809c 	beq.w	2952 <_dtoa_r+0xc3e>
    281a:	f203 4333 	addw	r3, r3, #1075	@ 0x433
    281e:	9a08      	ldr	r2, [sp, #32]
    2820:	9e10      	ldr	r6, [sp, #64]	@ 0x40
    2822:	441a      	add	r2, r3
    2824:	9208      	str	r2, [sp, #32]
    2826:	9a0c      	ldr	r2, [sp, #48]	@ 0x30
    2828:	4615      	mov	r5, r2
    282a:	441a      	add	r2, r3
    282c:	920c      	str	r2, [sp, #48]	@ 0x30
    282e:	e7c0      	b.n	27b2 <_dtoa_r+0xa9e>
    2830:	9a05      	ldr	r2, [sp, #20]
    2832:	2331      	movs	r3, #49	@ 0x31
    2834:	3501      	adds	r5, #1
    2836:	7013      	strb	r3, [r2, #0]
    2838:	e601      	b.n	243e <_dtoa_r+0x72a>
    283a:	f000 80fa 	beq.w	2a32 <_dtoa_r+0xd1e>
    283e:	9a0d      	ldr	r2, [sp, #52]	@ 0x34
    2840:	4b48      	ldr	r3, [pc, #288]	@ (2964 <_dtoa_r+0xc50>)
    2842:	4255      	negs	r5, r2
    2844:	f005 020f 	and.w	r2, r5, #15
    2848:	eb03 03c2 	add.w	r3, r3, r2, lsl #3
    284c:	e9d3 2300 	ldrd	r2, r3, [r3]
    2850:	e9dd 0100 	ldrd	r0, r1, [sp]
    2854:	f003 fbb8 	bl	5fc8 <__aeabi_dmul>
    2858:	112d      	asrs	r5, r5, #4
    285a:	e9cd 0114 	strd	r0, r1, [sp, #80]	@ 0x50
    285e:	f000 8158 	beq.w	2b12 <_dtoa_r+0xdfe>
    2862:	4e41      	ldr	r6, [pc, #260]	@ (2968 <_dtoa_r+0xc54>)
    2864:	2300      	movs	r3, #0
    2866:	2702      	movs	r7, #2
    2868:	4680      	mov	r8, r0
    286a:	4689      	mov	r9, r1
    286c:	07ea      	lsls	r2, r5, #31
    286e:	d509      	bpl.n	2884 <_dtoa_r+0xb70>
    2870:	e9d6 2300 	ldrd	r2, r3, [r6]
    2874:	4640      	mov	r0, r8
    2876:	4649      	mov	r1, r9
    2878:	f003 fba6 	bl	5fc8 <__aeabi_dmul>
    287c:	3701      	adds	r7, #1
    287e:	4680      	mov	r8, r0
    2880:	4689      	mov	r9, r1
    2882:	2301      	movs	r3, #1
    2884:	106d      	asrs	r5, r5, #1
    2886:	f106 0608 	add.w	r6, r6, #8
    288a:	d1ef      	bne.n	286c <_dtoa_r+0xb58>
    288c:	2b00      	cmp	r3, #0
    288e:	f47f abbf 	bne.w	2010 <_dtoa_r+0x2fc>
    2892:	e9dd 8914 	ldrd	r8, r9, [sp, #80]	@ 0x50
    2896:	f7ff bbbb 	b.w	2010 <_dtoa_r+0x2fc>
    289a:	f1c8 0301 	rsb	r3, r8, #1
    289e:	9008      	str	r0, [sp, #32]
    28a0:	930c      	str	r3, [sp, #48]	@ 0x30
    28a2:	9011      	str	r0, [sp, #68]	@ 0x44
    28a4:	f7ff bb58 	b.w	1f58 <_dtoa_r+0x244>
    28a8:	9e05      	ldr	r6, [sp, #20]
    28aa:	e4bb      	b.n	2224 <_dtoa_r+0x510>
    28ac:	f8dd a000 	ldr.w	sl, [sp]
    28b0:	4602      	mov	r2, r0
    28b2:	460b      	mov	r3, r1
    28b4:	f003 f9d2 	bl	5c5c <__adddf3>
    28b8:	9d0d      	ldr	r5, [sp, #52]	@ 0x34
    28ba:	e9cd 0100 	strd	r0, r1, [sp]
    28be:	3501      	adds	r5, #1
    28c0:	4602      	mov	r2, r0
    28c2:	460b      	mov	r3, r1
    28c4:	e9dd 0102 	ldrd	r0, r1, [sp, #8]
    28c8:	46a8      	mov	r8, r5
    28ca:	f003 fdef 	bl	64ac <__aeabi_dcmplt>
    28ce:	b940      	cbnz	r0, 28e2 <_dtoa_r+0xbce>
    28d0:	e9dd 2300 	ldrd	r2, r3, [sp]
    28d4:	e9dd 0102 	ldrd	r0, r1, [sp, #8]
    28d8:	f003 fdde 	bl	6498 <__aeabi_dcmpeq>
    28dc:	b118      	cbz	r0, 28e6 <_dtoa_r+0xbd2>
    28de:	07f3      	lsls	r3, r6, #31
    28e0:	d501      	bpl.n	28e6 <_dtoa_r+0xbd2>
    28e2:	9a05      	ldr	r2, [sp, #20]
    28e4:	e435      	b.n	2152 <_dtoa_r+0x43e>
    28e6:	463e      	mov	r6, r7
    28e8:	e5bb      	b.n	2462 <_dtoa_r+0x74e>
    28ea:	6879      	ldr	r1, [r7, #4]
    28ec:	9804      	ldr	r0, [sp, #16]
    28ee:	f000 fd4d 	bl	338c <_Balloc>
    28f2:	4605      	mov	r5, r0
    28f4:	2800      	cmp	r0, #0
    28f6:	f000 8121 	beq.w	2b3c <_dtoa_r+0xe28>
    28fa:	693b      	ldr	r3, [r7, #16]
    28fc:	3302      	adds	r3, #2
    28fe:	009a      	lsls	r2, r3, #2
    2900:	f107 010c 	add.w	r1, r7, #12
    2904:	300c      	adds	r0, #12
    2906:	f000 facd 	bl	2ea4 <memcpy>
    290a:	9804      	ldr	r0, [sp, #16]
    290c:	4629      	mov	r1, r5
    290e:	2201      	movs	r2, #1
    2910:	f000 ffa6 	bl	3860 <__lshift>
    2914:	4680      	mov	r8, r0
    2916:	e603      	b.n	2520 <_dtoa_r+0x80c>
    2918:	9d0d      	ldr	r5, [sp, #52]	@ 0x34
    291a:	463c      	mov	r4, r7
    291c:	3501      	adds	r5, #1
    291e:	4647      	mov	r7, r8
    2920:	e572      	b.n	2408 <_dtoa_r+0x6f4>
    2922:	9c04      	ldr	r4, [sp, #16]
    2924:	4639      	mov	r1, r7
    2926:	4632      	mov	r2, r6
    2928:	4620      	mov	r0, r4
    292a:	f000 ff3f 	bl	37ac <__pow5mult>
    292e:	4652      	mov	r2, sl
    2930:	4601      	mov	r1, r0
    2932:	4607      	mov	r7, r0
    2934:	4620      	mov	r0, r4
    2936:	f000 fe83 	bl	3640 <__multiply>
    293a:	4651      	mov	r1, sl
    293c:	4680      	mov	r8, r0
    293e:	4620      	mov	r0, r4
    2940:	f000 fd4a 	bl	33d8 <_Bfree>
    2944:	9b10      	ldr	r3, [sp, #64]	@ 0x40
    2946:	1b9b      	subs	r3, r3, r6
    2948:	46c2      	mov	sl, r8
    294a:	9310      	str	r3, [sp, #64]	@ 0x40
    294c:	f43f acf8 	beq.w	2340 <_dtoa_r+0x62c>
    2950:	e4f0      	b.n	2334 <_dtoa_r+0x620>
    2952:	9b1a      	ldr	r3, [sp, #104]	@ 0x68
    2954:	f1c3 0336 	rsb	r3, r3, #54	@ 0x36
    2958:	e761      	b.n	281e <_dtoa_r+0xb0a>
    295a:	bf00      	nop
    295c:	000078bc 	.word	0x000078bc
    2960:	7ff00000 	.word	0x7ff00000
    2964:	00006d10 	.word	0x00006d10
    2968:	00006e00 	.word	0x00006e00
    296c:	e9dd 2316 	ldrd	r2, r3, [sp, #88]	@ 0x58
    2970:	e9dd 0114 	ldrd	r0, r1, [sp, #80]	@ 0x50
    2974:	f003 fb28 	bl	5fc8 <__aeabi_dmul>
    2978:	9b05      	ldr	r3, [sp, #20]
    297a:	701c      	strb	r4, [r3, #0]
    297c:	9b18      	ldr	r3, [sp, #96]	@ 0x60
    297e:	2b01      	cmp	r3, #1
    2980:	e9cd 010e 	strd	r0, r1, [sp, #56]	@ 0x38
    2984:	f000 80c3 	beq.w	2b0e <_dtoa_r+0xdfa>
    2988:	9f18      	ldr	r7, [sp, #96]	@ 0x60
    298a:	9b05      	ldr	r3, [sp, #20]
    298c:	9612      	str	r6, [sp, #72]	@ 0x48
    298e:	441f      	add	r7, r3
    2990:	4b7a      	ldr	r3, [pc, #488]	@ (2b7c <_dtoa_r+0xe68>)
    2992:	2200      	movs	r2, #0
    2994:	4640      	mov	r0, r8
    2996:	4649      	mov	r1, r9
    2998:	f003 fb16 	bl	5fc8 <__aeabi_dmul>
    299c:	460d      	mov	r5, r1
    299e:	4604      	mov	r4, r0
    29a0:	f003 fdc2 	bl	6528 <__aeabi_d2iz>
    29a4:	4681      	mov	r9, r0
    29a6:	f003 faa5 	bl	5ef4 <__aeabi_i2d>
    29aa:	f109 0930 	add.w	r9, r9, #48	@ 0x30
    29ae:	4602      	mov	r2, r0
    29b0:	460b      	mov	r3, r1
    29b2:	4620      	mov	r0, r4
    29b4:	4629      	mov	r1, r5
    29b6:	f003 f94f 	bl	5c58 <__aeabi_dsub>
    29ba:	f806 9b01 	strb.w	r9, [r6], #1
    29be:	42be      	cmp	r6, r7
    29c0:	4680      	mov	r8, r0
    29c2:	4689      	mov	r9, r1
    29c4:	d1e4      	bne.n	2990 <_dtoa_r+0xc7c>
    29c6:	9d12      	ldr	r5, [sp, #72]	@ 0x48
    29c8:	4b6d      	ldr	r3, [pc, #436]	@ (2b80 <_dtoa_r+0xe6c>)
    29ca:	2200      	movs	r2, #0
    29cc:	e9dd 010e 	ldrd	r0, r1, [sp, #56]	@ 0x38
    29d0:	f003 f944 	bl	5c5c <__adddf3>
    29d4:	4602      	mov	r2, r0
    29d6:	460b      	mov	r3, r1
    29d8:	4640      	mov	r0, r8
    29da:	4649      	mov	r1, r9
    29dc:	f003 fd84 	bl	64e8 <__aeabi_dcmpgt>
    29e0:	2800      	cmp	r0, #0
    29e2:	d16c      	bne.n	2abe <_dtoa_r+0xdaa>
    29e4:	e9dd 230e 	ldrd	r2, r3, [sp, #56]	@ 0x38
    29e8:	4965      	ldr	r1, [pc, #404]	@ (2b80 <_dtoa_r+0xe6c>)
    29ea:	2000      	movs	r0, #0
    29ec:	f003 f934 	bl	5c58 <__aeabi_dsub>
    29f0:	4602      	mov	r2, r0
    29f2:	460b      	mov	r3, r1
    29f4:	4640      	mov	r0, r8
    29f6:	4649      	mov	r1, r9
    29f8:	f003 fd58 	bl	64ac <__aeabi_dcmplt>
    29fc:	b980      	cbnz	r0, 2a20 <_dtoa_r+0xd0c>
    29fe:	9b1b      	ldr	r3, [sp, #108]	@ 0x6c
    2a00:	2b00      	cmp	r3, #0
    2a02:	f6ff ac7d 	blt.w	2300 <_dtoa_r+0x5ec>
    2a06:	9b0d      	ldr	r3, [sp, #52]	@ 0x34
    2a08:	2b0e      	cmp	r3, #14
    2a0a:	f73f ac79 	bgt.w	2300 <_dtoa_r+0x5ec>
    2a0e:	4b5d      	ldr	r3, [pc, #372]	@ (2b84 <_dtoa_r+0xe70>)
    2a10:	9a0d      	ldr	r2, [sp, #52]	@ 0x34
    2a12:	eb03 03c2 	add.w	r3, r3, r2, lsl #3
    2a16:	ed93 7b00 	vldr	d7, [r3]
    2a1a:	ed8d 7b02 	vstr	d7, [sp, #8]
    2a1e:	e406      	b.n	222e <_dtoa_r+0x51a>
    2a20:	463e      	mov	r6, r7
    2a22:	3f01      	subs	r7, #1
    2a24:	f816 3c01 	ldrb.w	r3, [r6, #-1]
    2a28:	2b30      	cmp	r3, #48	@ 0x30
    2a2a:	d0f9      	beq.n	2a20 <_dtoa_r+0xd0c>
    2a2c:	9d19      	ldr	r5, [sp, #100]	@ 0x64
    2a2e:	3501      	adds	r5, #1
    2a30:	e517      	b.n	2462 <_dtoa_r+0x74e>
    2a32:	e9dd 8900 	ldrd	r8, r9, [sp]
    2a36:	2702      	movs	r7, #2
    2a38:	f7ff baea 	b.w	2010 <_dtoa_r+0x2fc>
    2a3c:	f1bb 0f00 	cmp.w	fp, #0
    2a40:	f43f ab9d 	beq.w	217e <_dtoa_r+0x46a>
    2a44:	9c13      	ldr	r4, [sp, #76]	@ 0x4c
    2a46:	2c00      	cmp	r4, #0
    2a48:	f77f abc2 	ble.w	21d0 <_dtoa_r+0x4bc>
    2a4c:	9b0d      	ldr	r3, [sp, #52]	@ 0x34
    2a4e:	3b01      	subs	r3, #1
    2a50:	2200      	movs	r2, #0
    2a52:	4640      	mov	r0, r8
    2a54:	4649      	mov	r1, r9
    2a56:	9319      	str	r3, [sp, #100]	@ 0x64
    2a58:	4b48      	ldr	r3, [pc, #288]	@ (2b7c <_dtoa_r+0xe68>)
    2a5a:	f003 fab5 	bl	5fc8 <__aeabi_dmul>
    2a5e:	4680      	mov	r8, r0
    2a60:	4689      	mov	r9, r1
    2a62:	1c78      	adds	r0, r7, #1
    2a64:	f003 fa46 	bl	5ef4 <__aeabi_i2d>
    2a68:	4642      	mov	r2, r8
    2a6a:	464b      	mov	r3, r9
    2a6c:	f003 faac 	bl	5fc8 <__aeabi_dmul>
    2a70:	4b45      	ldr	r3, [pc, #276]	@ (2b88 <_dtoa_r+0xe74>)
    2a72:	2200      	movs	r2, #0
    2a74:	f003 f8f2 	bl	5c5c <__adddf3>
    2a78:	f1a1 7350 	sub.w	r3, r1, #54525952	@ 0x3400000
    2a7c:	e9cd 0114 	strd	r0, r1, [sp, #80]	@ 0x50
    2a80:	9418      	str	r4, [sp, #96]	@ 0x60
    2a82:	9315      	str	r3, [sp, #84]	@ 0x54
    2a84:	f7ff bae6 	b.w	2054 <_dtoa_r+0x340>
    2a88:	f108 0801 	add.w	r8, r8, #1
    2a8c:	2331      	movs	r3, #49	@ 0x31
    2a8e:	f7ff bb67 	b.w	2160 <_dtoa_r+0x44c>
    2a92:	9d0d      	ldr	r5, [sp, #52]	@ 0x34
    2a94:	9a05      	ldr	r2, [sp, #20]
    2a96:	46b3      	mov	fp, r6
    2a98:	2339      	movs	r3, #57	@ 0x39
    2a9a:	463c      	mov	r4, r7
    2a9c:	f80b 3b01 	strb.w	r3, [fp], #1
    2aa0:	3501      	adds	r5, #1
    2aa2:	4647      	mov	r7, r8
    2aa4:	e4c1      	b.n	242a <_dtoa_r+0x716>
    2aa6:	2300      	movs	r3, #0
    2aa8:	9300      	str	r3, [sp, #0]
    2aaa:	461f      	mov	r7, r3
    2aac:	e5e5      	b.n	267a <_dtoa_r+0x966>
    2aae:	9b08      	ldr	r3, [sp, #32]
    2ab0:	445b      	add	r3, fp
    2ab2:	9308      	str	r3, [sp, #32]
    2ab4:	9b0c      	ldr	r3, [sp, #48]	@ 0x30
    2ab6:	461d      	mov	r5, r3
    2ab8:	445b      	add	r3, fp
    2aba:	930c      	str	r3, [sp, #48]	@ 0x30
    2abc:	e679      	b.n	27b2 <_dtoa_r+0xa9e>
    2abe:	9b19      	ldr	r3, [sp, #100]	@ 0x64
    2ac0:	9a05      	ldr	r2, [sp, #20]
    2ac2:	f103 0801 	add.w	r8, r3, #1
    2ac6:	f7ff bb44 	b.w	2152 <_dtoa_r+0x43e>
    2aca:	f8dd a050 	ldr.w	sl, [sp, #80]	@ 0x50
    2ace:	e7ad      	b.n	2a2c <_dtoa_r+0xd18>
    2ad0:	f8dd a050 	ldr.w	sl, [sp, #80]	@ 0x50
    2ad4:	f8dd b058 	ldr.w	fp, [sp, #88]	@ 0x58
    2ad8:	f7ff bb7a 	b.w	21d0 <_dtoa_r+0x4bc>
    2adc:	f1b9 0f39 	cmp.w	r9, #57	@ 0x39
    2ae0:	d0d7      	beq.n	2a92 <_dtoa_r+0xd7e>
    2ae2:	2d00      	cmp	r5, #0
    2ae4:	f73f ad8c 	bgt.w	2600 <_dtoa_r+0x8ec>
    2ae8:	e58c      	b.n	2604 <_dtoa_r+0x8f0>
    2aea:	9b02      	ldr	r3, [sp, #8]
    2aec:	2b02      	cmp	r3, #2
    2aee:	dc03      	bgt.n	2af8 <_dtoa_r+0xde4>
    2af0:	9d0d      	ldr	r5, [sp, #52]	@ 0x34
    2af2:	f8dd b04c 	ldr.w	fp, [sp, #76]	@ 0x4c
    2af6:	e464      	b.n	23c2 <_dtoa_r+0x6ae>
    2af8:	f8dd b04c 	ldr.w	fp, [sp, #76]	@ 0x4c
    2afc:	960d      	str	r6, [sp, #52]	@ 0x34
    2afe:	e5aa      	b.n	2656 <_dtoa_r+0x942>
    2b00:	9b02      	ldr	r3, [sp, #8]
    2b02:	2b02      	cmp	r3, #2
    2b04:	dcf8      	bgt.n	2af8 <_dtoa_r+0xde4>
    2b06:	f8dd b04c 	ldr.w	fp, [sp, #76]	@ 0x4c
    2b0a:	960d      	str	r6, [sp, #52]	@ 0x34
    2b0c:	e4fb      	b.n	2506 <_dtoa_r+0x7f2>
    2b0e:	4637      	mov	r7, r6
    2b10:	e75a      	b.n	29c8 <_dtoa_r+0xcb4>
    2b12:	e9dd 8914 	ldrd	r8, r9, [sp, #80]	@ 0x50
    2b16:	2702      	movs	r7, #2
    2b18:	f7ff ba7a 	b.w	2010 <_dtoa_r+0x2fc>
    2b1c:	9b04      	ldr	r3, [sp, #16]
    2b1e:	2500      	movs	r5, #0
    2b20:	63dd      	str	r5, [r3, #60]	@ 0x3c
    2b22:	4629      	mov	r1, r5
    2b24:	4618      	mov	r0, r3
    2b26:	f000 fc31 	bl	338c <_Balloc>
    2b2a:	9005      	str	r0, [sp, #20]
    2b2c:	b9d0      	cbnz	r0, 2b64 <_dtoa_r+0xe50>
    2b2e:	4b17      	ldr	r3, [pc, #92]	@ (2b8c <_dtoa_r+0xe78>)
    2b30:	4817      	ldr	r0, [pc, #92]	@ (2b90 <_dtoa_r+0xe7c>)
    2b32:	2200      	movs	r2, #0
    2b34:	f240 11af 	movw	r1, #431	@ 0x1af
    2b38:	f000 fc02 	bl	3340 <__assert_func>
    2b3c:	4b13      	ldr	r3, [pc, #76]	@ (2b8c <_dtoa_r+0xe78>)
    2b3e:	4814      	ldr	r0, [pc, #80]	@ (2b90 <_dtoa_r+0xe7c>)
    2b40:	462a      	mov	r2, r5
    2b42:	f240 21ef 	movw	r1, #751	@ 0x2ef
    2b46:	f000 fbfb 	bl	3340 <__assert_func>
    2b4a:	2a00      	cmp	r2, #0
    2b4c:	f73f ad48 	bgt.w	25e0 <_dtoa_r+0x8cc>
    2b50:	e558      	b.n	2604 <_dtoa_r+0x8f0>
    2b52:	9b04      	ldr	r3, [sp, #16]
    2b54:	2100      	movs	r1, #0
    2b56:	63d9      	str	r1, [r3, #60]	@ 0x3c
    2b58:	f7ff ba14 	b.w	1f84 <_dtoa_r+0x270>
    2b5c:	4b0d      	ldr	r3, [pc, #52]	@ (2b94 <_dtoa_r+0xe80>)
    2b5e:	9305      	str	r3, [sp, #20]
    2b60:	f7ff b916 	b.w	1d90 <_dtoa_r+0x7c>
    2b64:	e9dd 3204 	ldrd	r3, r2, [sp, #16]
    2b68:	639a      	str	r2, [r3, #56]	@ 0x38
    2b6a:	f04f 33ff 	mov.w	r3, #4294967295	@ 0xffffffff
    2b6e:	2201      	movs	r2, #1
    2b70:	950b      	str	r5, [sp, #44]	@ 0x2c
    2b72:	9313      	str	r3, [sp, #76]	@ 0x4c
    2b74:	920e      	str	r2, [sp, #56]	@ 0x38
    2b76:	469b      	mov	fp, r3
    2b78:	f7ff bb2a 	b.w	21d0 <_dtoa_r+0x4bc>
    2b7c:	40240000 	.word	0x40240000
    2b80:	3fe00000 	.word	0x3fe00000
    2b84:	00006d10 	.word	0x00006d10
    2b88:	401c0000 	.word	0x401c0000
    2b8c:	000078c0 	.word	0x000078c0
    2b90:	000078d4 	.word	0x000078d4
    2b94:	000078b0 	.word	0x000078b0

00002b98 <_malloc_trim_r>:
    2b98:	e92d 43f8 	stmdb	sp!, {r3, r4, r5, r6, r7, r8, r9, lr}
    2b9c:	4606      	mov	r6, r0
    2b9e:	2008      	movs	r0, #8
    2ba0:	4689      	mov	r9, r1
    2ba2:	f000 fa19 	bl	2fd8 <sysconf>
    2ba6:	f8df 80a4 	ldr.w	r8, [pc, #164]	@ 2c4c <_malloc_trim_r+0xb4>
    2baa:	4605      	mov	r5, r0
    2bac:	4630      	mov	r0, r6
    2bae:	f000 fa21 	bl	2ff4 <__malloc_lock>
    2bb2:	f8d8 3008 	ldr.w	r3, [r8, #8]
    2bb6:	685f      	ldr	r7, [r3, #4]
    2bb8:	f027 0703 	bic.w	r7, r7, #3
    2bbc:	f1a7 0411 	sub.w	r4, r7, #17
    2bc0:	eba4 0409 	sub.w	r4, r4, r9
    2bc4:	442c      	add	r4, r5
    2bc6:	fbb4 f4f5 	udiv	r4, r4, r5
    2bca:	3c01      	subs	r4, #1
    2bcc:	fb05 f404 	mul.w	r4, r5, r4
    2bd0:	42a5      	cmp	r5, r4
    2bd2:	dc08      	bgt.n	2be6 <_malloc_trim_r+0x4e>
    2bd4:	2100      	movs	r1, #0
    2bd6:	4630      	mov	r0, r6
    2bd8:	f000 fb4e 	bl	3278 <_sbrk_r>
    2bdc:	f8d8 3008 	ldr.w	r3, [r8, #8]
    2be0:	443b      	add	r3, r7
    2be2:	4298      	cmp	r0, r3
    2be4:	d005      	beq.n	2bf2 <_malloc_trim_r+0x5a>
    2be6:	4630      	mov	r0, r6
    2be8:	f000 fa06 	bl	2ff8 <__malloc_unlock>
    2bec:	2000      	movs	r0, #0
    2bee:	e8bd 83f8 	ldmia.w	sp!, {r3, r4, r5, r6, r7, r8, r9, pc}
    2bf2:	4261      	negs	r1, r4
    2bf4:	4630      	mov	r0, r6
    2bf6:	f000 fb3f 	bl	3278 <_sbrk_r>
    2bfa:	3001      	adds	r0, #1
    2bfc:	d00f      	beq.n	2c1e <_malloc_trim_r+0x86>
    2bfe:	4a11      	ldr	r2, [pc, #68]	@ (2c44 <_malloc_trim_r+0xac>)
    2c00:	f8d8 3008 	ldr.w	r3, [r8, #8]
    2c04:	1b3f      	subs	r7, r7, r4
    2c06:	f047 0701 	orr.w	r7, r7, #1
    2c0a:	605f      	str	r7, [r3, #4]
    2c0c:	6813      	ldr	r3, [r2, #0]
    2c0e:	4630      	mov	r0, r6
    2c10:	1b1b      	subs	r3, r3, r4
    2c12:	6013      	str	r3, [r2, #0]
    2c14:	f000 f9f0 	bl	2ff8 <__malloc_unlock>
    2c18:	2001      	movs	r0, #1
    2c1a:	e8bd 83f8 	ldmia.w	sp!, {r3, r4, r5, r6, r7, r8, r9, pc}
    2c1e:	2100      	movs	r1, #0
    2c20:	4630      	mov	r0, r6
    2c22:	f000 fb29 	bl	3278 <_sbrk_r>
    2c26:	f8d8 2008 	ldr.w	r2, [r8, #8]
    2c2a:	1a83      	subs	r3, r0, r2
    2c2c:	2b0f      	cmp	r3, #15
    2c2e:	ddda      	ble.n	2be6 <_malloc_trim_r+0x4e>
    2c30:	f043 0301 	orr.w	r3, r3, #1
    2c34:	6053      	str	r3, [r2, #4]
    2c36:	4b04      	ldr	r3, [pc, #16]	@ (2c48 <_malloc_trim_r+0xb0>)
    2c38:	4902      	ldr	r1, [pc, #8]	@ (2c44 <_malloc_trim_r+0xac>)
    2c3a:	681b      	ldr	r3, [r3, #0]
    2c3c:	1ac0      	subs	r0, r0, r3
    2c3e:	6008      	str	r0, [r1, #0]
    2c40:	e7d1      	b.n	2be6 <_malloc_trim_r+0x4e>
    2c42:	bf00      	nop
    2c44:	200006b4 	.word	0x200006b4
    2c48:	20000530 	.word	0x20000530
    2c4c:	20000128 	.word	0x20000128

00002c50 <_free_r>:
    2c50:	2900      	cmp	r1, #0
    2c52:	d07c      	beq.n	2d4e <_free_r+0xfe>
    2c54:	e92d 41f0 	stmdb	sp!, {r4, r5, r6, r7, r8, lr}
    2c58:	460c      	mov	r4, r1
    2c5a:	4680      	mov	r8, r0
    2c5c:	f000 f9ca 	bl	2ff4 <__malloc_lock>
    2c60:	f854 3c04 	ldr.w	r3, [r4, #-4]
    2c64:	4f75      	ldr	r7, [pc, #468]	@ (2e3c <_free_r+0x1ec>)
    2c66:	f1a4 0508 	sub.w	r5, r4, #8
    2c6a:	f023 0101 	bic.w	r1, r3, #1
    2c6e:	1868      	adds	r0, r5, r1
    2c70:	68be      	ldr	r6, [r7, #8]
    2c72:	6842      	ldr	r2, [r0, #4]
    2c74:	4286      	cmp	r6, r0
    2c76:	f022 0203 	bic.w	r2, r2, #3
    2c7a:	f000 8083 	beq.w	2d84 <_free_r+0x134>
    2c7e:	07de      	lsls	r6, r3, #31
    2c80:	6042      	str	r2, [r0, #4]
    2c82:	eb00 0c02 	add.w	ip, r0, r2
    2c86:	d433      	bmi.n	2cf0 <_free_r+0xa0>
    2c88:	f854 4c08 	ldr.w	r4, [r4, #-8]
    2c8c:	f8dc 3004 	ldr.w	r3, [ip, #4]
    2c90:	1b2d      	subs	r5, r5, r4
    2c92:	4421      	add	r1, r4
    2c94:	68ac      	ldr	r4, [r5, #8]
    2c96:	f107 0c08 	add.w	ip, r7, #8
    2c9a:	4564      	cmp	r4, ip
    2c9c:	f003 0301 	and.w	r3, r3, #1
    2ca0:	d064      	beq.n	2d6c <_free_r+0x11c>
    2ca2:	f8d5 e00c 	ldr.w	lr, [r5, #12]
    2ca6:	f8c4 e00c 	str.w	lr, [r4, #12]
    2caa:	f8ce 4008 	str.w	r4, [lr, #8]
    2cae:	2b00      	cmp	r3, #0
    2cb0:	f000 8081 	beq.w	2db6 <_free_r+0x166>
    2cb4:	f041 0301 	orr.w	r3, r1, #1
    2cb8:	606b      	str	r3, [r5, #4]
    2cba:	6001      	str	r1, [r0, #0]
    2cbc:	f5b1 7f00 	cmp.w	r1, #512	@ 0x200
    2cc0:	d222      	bcs.n	2d08 <_free_r+0xb8>
    2cc2:	6878      	ldr	r0, [r7, #4]
    2cc4:	08cb      	lsrs	r3, r1, #3
    2cc6:	2201      	movs	r2, #1
    2cc8:	0949      	lsrs	r1, r1, #5
    2cca:	3301      	adds	r3, #1
    2ccc:	408a      	lsls	r2, r1
    2cce:	4302      	orrs	r2, r0
    2cd0:	f857 1033 	ldr.w	r1, [r7, r3, lsl #3]
    2cd4:	607a      	str	r2, [r7, #4]
    2cd6:	eb07 02c3 	add.w	r2, r7, r3, lsl #3
    2cda:	3a08      	subs	r2, #8
    2cdc:	e9c5 1202 	strd	r1, r2, [r5, #8]
    2ce0:	f847 5033 	str.w	r5, [r7, r3, lsl #3]
    2ce4:	60cd      	str	r5, [r1, #12]
    2ce6:	4640      	mov	r0, r8
    2ce8:	e8bd 41f0 	ldmia.w	sp!, {r4, r5, r6, r7, r8, lr}
    2cec:	f000 b984 	b.w	2ff8 <__malloc_unlock>
    2cf0:	f8dc 3004 	ldr.w	r3, [ip, #4]
    2cf4:	07db      	lsls	r3, r3, #31
    2cf6:	d52b      	bpl.n	2d50 <_free_r+0x100>
    2cf8:	f041 0301 	orr.w	r3, r1, #1
    2cfc:	f5b1 7f00 	cmp.w	r1, #512	@ 0x200
    2d00:	f844 3c04 	str.w	r3, [r4, #-4]
    2d04:	6001      	str	r1, [r0, #0]
    2d06:	d3dc      	bcc.n	2cc2 <_free_r+0x72>
    2d08:	f5b1 6f20 	cmp.w	r1, #2560	@ 0xa00
    2d0c:	ea4f 2351 	mov.w	r3, r1, lsr #9
    2d10:	d253      	bcs.n	2dba <_free_r+0x16a>
    2d12:	098b      	lsrs	r3, r1, #6
    2d14:	f103 0039 	add.w	r0, r3, #57	@ 0x39
    2d18:	f103 0238 	add.w	r2, r3, #56	@ 0x38
    2d1c:	00c3      	lsls	r3, r0, #3
    2d1e:	18f8      	adds	r0, r7, r3
    2d20:	58fb      	ldr	r3, [r7, r3]
    2d22:	3808      	subs	r0, #8
    2d24:	4298      	cmp	r0, r3
    2d26:	d103      	bne.n	2d30 <_free_r+0xe0>
    2d28:	e061      	b.n	2dee <_free_r+0x19e>
    2d2a:	689b      	ldr	r3, [r3, #8]
    2d2c:	4298      	cmp	r0, r3
    2d2e:	d004      	beq.n	2d3a <_free_r+0xea>
    2d30:	685a      	ldr	r2, [r3, #4]
    2d32:	f022 0203 	bic.w	r2, r2, #3
    2d36:	428a      	cmp	r2, r1
    2d38:	d8f7      	bhi.n	2d2a <_free_r+0xda>
    2d3a:	68d8      	ldr	r0, [r3, #12]
    2d3c:	e9c5 3002 	strd	r3, r0, [r5, #8]
    2d40:	6085      	str	r5, [r0, #8]
    2d42:	60dd      	str	r5, [r3, #12]
    2d44:	4640      	mov	r0, r8
    2d46:	e8bd 41f0 	ldmia.w	sp!, {r4, r5, r6, r7, r8, lr}
    2d4a:	f000 b955 	b.w	2ff8 <__malloc_unlock>
    2d4e:	4770      	bx	lr
    2d50:	4411      	add	r1, r2
    2d52:	f107 0c08 	add.w	ip, r7, #8
    2d56:	6883      	ldr	r3, [r0, #8]
    2d58:	4563      	cmp	r3, ip
    2d5a:	d03f      	beq.n	2ddc <_free_r+0x18c>
    2d5c:	68c2      	ldr	r2, [r0, #12]
    2d5e:	60da      	str	r2, [r3, #12]
    2d60:	6093      	str	r3, [r2, #8]
    2d62:	f041 0301 	orr.w	r3, r1, #1
    2d66:	606b      	str	r3, [r5, #4]
    2d68:	5069      	str	r1, [r5, r1]
    2d6a:	e7a7      	b.n	2cbc <_free_r+0x6c>
    2d6c:	2b00      	cmp	r3, #0
    2d6e:	d15f      	bne.n	2e30 <_free_r+0x1e0>
    2d70:	440a      	add	r2, r1
    2d72:	e9d0 1302 	ldrd	r1, r3, [r0, #8]
    2d76:	60cb      	str	r3, [r1, #12]
    2d78:	6099      	str	r1, [r3, #8]
    2d7a:	f042 0301 	orr.w	r3, r2, #1
    2d7e:	606b      	str	r3, [r5, #4]
    2d80:	50aa      	str	r2, [r5, r2]
    2d82:	e7b0      	b.n	2ce6 <_free_r+0x96>
    2d84:	07db      	lsls	r3, r3, #31
    2d86:	440a      	add	r2, r1
    2d88:	d407      	bmi.n	2d9a <_free_r+0x14a>
    2d8a:	f854 3c08 	ldr.w	r3, [r4, #-8]
    2d8e:	1aed      	subs	r5, r5, r3
    2d90:	441a      	add	r2, r3
    2d92:	e9d5 1302 	ldrd	r1, r3, [r5, #8]
    2d96:	60cb      	str	r3, [r1, #12]
    2d98:	6099      	str	r1, [r3, #8]
    2d9a:	f042 0301 	orr.w	r3, r2, #1
    2d9e:	606b      	str	r3, [r5, #4]
    2da0:	4b27      	ldr	r3, [pc, #156]	@ (2e40 <_free_r+0x1f0>)
    2da2:	60bd      	str	r5, [r7, #8]
    2da4:	681b      	ldr	r3, [r3, #0]
    2da6:	4293      	cmp	r3, r2
    2da8:	d89d      	bhi.n	2ce6 <_free_r+0x96>
    2daa:	4b26      	ldr	r3, [pc, #152]	@ (2e44 <_free_r+0x1f4>)
    2dac:	4640      	mov	r0, r8
    2dae:	6819      	ldr	r1, [r3, #0]
    2db0:	f7ff fef2 	bl	2b98 <_malloc_trim_r>
    2db4:	e797      	b.n	2ce6 <_free_r+0x96>
    2db6:	4411      	add	r1, r2
    2db8:	e7cd      	b.n	2d56 <_free_r+0x106>
    2dba:	2b14      	cmp	r3, #20
    2dbc:	d908      	bls.n	2dd0 <_free_r+0x180>
    2dbe:	2b54      	cmp	r3, #84	@ 0x54
    2dc0:	d81d      	bhi.n	2dfe <_free_r+0x1ae>
    2dc2:	0b0b      	lsrs	r3, r1, #12
    2dc4:	f103 006f 	add.w	r0, r3, #111	@ 0x6f
    2dc8:	f103 026e 	add.w	r2, r3, #110	@ 0x6e
    2dcc:	00c3      	lsls	r3, r0, #3
    2dce:	e7a6      	b.n	2d1e <_free_r+0xce>
    2dd0:	f103 005c 	add.w	r0, r3, #92	@ 0x5c
    2dd4:	f103 025b 	add.w	r2, r3, #91	@ 0x5b
    2dd8:	00c3      	lsls	r3, r0, #3
    2dda:	e7a0      	b.n	2d1e <_free_r+0xce>
    2ddc:	f041 0301 	orr.w	r3, r1, #1
    2de0:	e9c7 5504 	strd	r5, r5, [r7, #16]
    2de4:	e9c5 cc02 	strd	ip, ip, [r5, #8]
    2de8:	606b      	str	r3, [r5, #4]
    2dea:	5069      	str	r1, [r5, r1]
    2dec:	e77b      	b.n	2ce6 <_free_r+0x96>
    2dee:	6879      	ldr	r1, [r7, #4]
    2df0:	1092      	asrs	r2, r2, #2
    2df2:	2401      	movs	r4, #1
    2df4:	fa04 f202 	lsl.w	r2, r4, r2
    2df8:	430a      	orrs	r2, r1
    2dfa:	607a      	str	r2, [r7, #4]
    2dfc:	e79e      	b.n	2d3c <_free_r+0xec>
    2dfe:	f5b3 7faa 	cmp.w	r3, #340	@ 0x154
    2e02:	d806      	bhi.n	2e12 <_free_r+0x1c2>
    2e04:	0bcb      	lsrs	r3, r1, #15
    2e06:	f103 0078 	add.w	r0, r3, #120	@ 0x78
    2e0a:	f103 0277 	add.w	r2, r3, #119	@ 0x77
    2e0e:	00c3      	lsls	r3, r0, #3
    2e10:	e785      	b.n	2d1e <_free_r+0xce>
    2e12:	f240 5254 	movw	r2, #1364	@ 0x554
    2e16:	4293      	cmp	r3, r2
    2e18:	d806      	bhi.n	2e28 <_free_r+0x1d8>
    2e1a:	0c8b      	lsrs	r3, r1, #18
    2e1c:	f103 007d 	add.w	r0, r3, #125	@ 0x7d
    2e20:	f103 027c 	add.w	r2, r3, #124	@ 0x7c
    2e24:	00c3      	lsls	r3, r0, #3
    2e26:	e77a      	b.n	2d1e <_free_r+0xce>
    2e28:	f44f 737e 	mov.w	r3, #1016	@ 0x3f8
    2e2c:	227e      	movs	r2, #126	@ 0x7e
    2e2e:	e776      	b.n	2d1e <_free_r+0xce>
    2e30:	f041 0301 	orr.w	r3, r1, #1
    2e34:	606b      	str	r3, [r5, #4]
    2e36:	6001      	str	r1, [r0, #0]
    2e38:	e755      	b.n	2ce6 <_free_r+0x96>
    2e3a:	bf00      	nop
    2e3c:	20000128 	.word	0x20000128
    2e40:	20000534 	.word	0x20000534
    2e44:	200006b0 	.word	0x200006b0

00002e48 <memcmp>:
    2e48:	2a03      	cmp	r2, #3
    2e4a:	b430      	push	{r4, r5}
    2e4c:	d915      	bls.n	2e7a <memcmp+0x32>
    2e4e:	ea41 0400 	orr.w	r4, r1, r0
    2e52:	07a4      	lsls	r4, r4, #30
    2e54:	4684      	mov	ip, r0
    2e56:	460b      	mov	r3, r1
    2e58:	d004      	beq.n	2e64 <memcmp+0x1c>
    2e5a:	1e54      	subs	r4, r2, #1
    2e5c:	e00f      	b.n	2e7e <memcmp+0x36>
    2e5e:	3a04      	subs	r2, #4
    2e60:	2a03      	cmp	r2, #3
    2e62:	d908      	bls.n	2e76 <memcmp+0x2e>
    2e64:	4619      	mov	r1, r3
    2e66:	4660      	mov	r0, ip
    2e68:	f853 4b04 	ldr.w	r4, [r3], #4
    2e6c:	f85c 5b04 	ldr.w	r5, [ip], #4
    2e70:	42a5      	cmp	r5, r4
    2e72:	d0f4      	beq.n	2e5e <memcmp+0x16>
    2e74:	e7f1      	b.n	2e5a <memcmp+0x12>
    2e76:	4660      	mov	r0, ip
    2e78:	4619      	mov	r1, r3
    2e7a:	1e54      	subs	r4, r2, #1
    2e7c:	b17a      	cbz	r2, 2e9e <memcmp+0x56>
    2e7e:	1e43      	subs	r3, r0, #1
    2e80:	3901      	subs	r1, #1
    2e82:	1902      	adds	r2, r0, r4
    2e84:	e001      	b.n	2e8a <memcmp+0x42>
    2e86:	429a      	cmp	r2, r3
    2e88:	d009      	beq.n	2e9e <memcmp+0x56>
    2e8a:	f813 0f01 	ldrb.w	r0, [r3, #1]!
    2e8e:	f811 cf01 	ldrb.w	ip, [r1, #1]!
    2e92:	4560      	cmp	r0, ip
    2e94:	d0f7      	beq.n	2e86 <memcmp+0x3e>
    2e96:	eba0 000c 	sub.w	r0, r0, ip
    2e9a:	bc30      	pop	{r4, r5}
    2e9c:	4770      	bx	lr
    2e9e:	2000      	movs	r0, #0
    2ea0:	bc30      	pop	{r4, r5}
    2ea2:	4770      	bx	lr

00002ea4 <memcpy>:
    2ea4:	4684      	mov	ip, r0
    2ea6:	ea41 0300 	orr.w	r3, r1, r0
    2eaa:	f013 0303 	ands.w	r3, r3, #3
    2eae:	d16d      	bne.n	2f8c <memcpy+0xe8>
    2eb0:	3a40      	subs	r2, #64	@ 0x40
    2eb2:	d341      	bcc.n	2f38 <memcpy+0x94>
    2eb4:	f851 3b04 	ldr.w	r3, [r1], #4
    2eb8:	f840 3b04 	str.w	r3, [r0], #4
    2ebc:	f851 3b04 	ldr.w	r3, [r1], #4
    2ec0:	f840 3b04 	str.w	r3, [r0], #4
    2ec4:	f851 3b04 	ldr.w	r3, [r1], #4
    2ec8:	f840 3b04 	str.w	r3, [r0], #4
    2ecc:	f851 3b04 	ldr.w	r3, [r1], #4
    2ed0:	f840 3b04 	str.w	r3, [r0], #4
    2ed4:	f851 3b04 	ldr.w	r3, [r1], #4
    2ed8:	f840 3b04 	str.w	r3, [r0], #4
    2edc:	f851 3b04 	ldr.w	r3, [r1], #4
    2ee0:	f840 3b04 	str.w	r3, [r0], #4
    2ee4:	f851 3b04 	ldr.w	r3, [r1], #4
    2ee8:	f840 3b04 	str.w	r3, [r0], #4
    2eec:	f851 3b04 	ldr.w	r3, [r1], #4
    2ef0:	f840 3b04 	str.w	r3, [r0], #4
    2ef4:	f851 3b04 	ldr.w	r3, [r1], #4
    2ef8:	f840 3b04 	str.w	r3, [r0], #4
    2efc:	f851 3b04 	ldr.w	r3, [r1], #4
    2f00:	f840 3b04 	str.w	r3, [r0], #4
    2f04:	f851 3b04 	ldr.w	r3, [r1], #4
    2f08:	f840 3b04 	str.w	r3, [r0], #4
    2f0c:	f851 3b04 	ldr.w	r3, [r1], #4
    2f10:	f840 3b04 	str.w	r3, [r0], #4
    2f14:	f851 3b04 	ldr.w	r3, [r1], #4
    2f18:	f840 3b04 	str.w	r3, [r0], #4
    2f1c:	f851 3b04 	ldr.w	r3, [r1], #4
    2f20:	f840 3b04 	str.w	r3, [r0], #4
    2f24:	f851 3b04 	ldr.w	r3, [r1], #4
    2f28:	f840 3b04 	str.w	r3, [r0], #4
    2f2c:	f851 3b04 	ldr.w	r3, [r1], #4
    2f30:	f840 3b04 	str.w	r3, [r0], #4
    2f34:	3a40      	subs	r2, #64	@ 0x40
    2f36:	d2bd      	bcs.n	2eb4 <memcpy+0x10>
    2f38:	3230      	adds	r2, #48	@ 0x30
    2f3a:	d311      	bcc.n	2f60 <memcpy+0xbc>
    2f3c:	f851 3b04 	ldr.w	r3, [r1], #4
    2f40:	f840 3b04 	str.w	r3, [r0], #4
    2f44:	f851 3b04 	ldr.w	r3, [r1], #4
    2f48:	f840 3b04 	str.w	r3, [r0], #4
    2f4c:	f851 3b04 	ldr.w	r3, [r1], #4
    2f50:	f840 3b04 	str.w	r3, [r0], #4
    2f54:	f851 3b04 	ldr.w	r3, [r1], #4
    2f58:	f840 3b04 	str.w	r3, [r0], #4
    2f5c:	3a10      	subs	r2, #16
    2f5e:	d2ed      	bcs.n	2f3c <memcpy+0x98>
    2f60:	320c      	adds	r2, #12
    2f62:	d305      	bcc.n	2f70 <memcpy+0xcc>
    2f64:	f851 3b04 	ldr.w	r3, [r1], #4
    2f68:	f840 3b04 	str.w	r3, [r0], #4
    2f6c:	3a04      	subs	r2, #4
    2f6e:	d2f9      	bcs.n	2f64 <memcpy+0xc0>
    2f70:	3204      	adds	r2, #4
    2f72:	d008      	beq.n	2f86 <memcpy+0xe2>
    2f74:	07d2      	lsls	r2, r2, #31
    2f76:	bf1c      	itt	ne
    2f78:	f811 3b01 	ldrbne.w	r3, [r1], #1
    2f7c:	f800 3b01 	strbne.w	r3, [r0], #1
    2f80:	d301      	bcc.n	2f86 <memcpy+0xe2>
    2f82:	880b      	ldrh	r3, [r1, #0]
    2f84:	8003      	strh	r3, [r0, #0]
    2f86:	4660      	mov	r0, ip
    2f88:	4770      	bx	lr
    2f8a:	bf00      	nop
    2f8c:	2a08      	cmp	r2, #8
    2f8e:	d313      	bcc.n	2fb8 <memcpy+0x114>
    2f90:	078b      	lsls	r3, r1, #30
    2f92:	d08d      	beq.n	2eb0 <memcpy+0xc>
    2f94:	f010 0303 	ands.w	r3, r0, #3
    2f98:	d08a      	beq.n	2eb0 <memcpy+0xc>
    2f9a:	f1c3 0304 	rsb	r3, r3, #4
    2f9e:	1ad2      	subs	r2, r2, r3
    2fa0:	07db      	lsls	r3, r3, #31
    2fa2:	bf1c      	itt	ne
    2fa4:	f811 3b01 	ldrbne.w	r3, [r1], #1
    2fa8:	f800 3b01 	strbne.w	r3, [r0], #1
    2fac:	d380      	bcc.n	2eb0 <memcpy+0xc>
    2fae:	f831 3b02 	ldrh.w	r3, [r1], #2
    2fb2:	f820 3b02 	strh.w	r3, [r0], #2
    2fb6:	e77b      	b.n	2eb0 <memcpy+0xc>
    2fb8:	3a04      	subs	r2, #4
    2fba:	d3d9      	bcc.n	2f70 <memcpy+0xcc>
    2fbc:	3a01      	subs	r2, #1
    2fbe:	f811 3b01 	ldrb.w	r3, [r1], #1
    2fc2:	f800 3b01 	strb.w	r3, [r0], #1
    2fc6:	d2f9      	bcs.n	2fbc <memcpy+0x118>
    2fc8:	780b      	ldrb	r3, [r1, #0]
    2fca:	7003      	strb	r3, [r0, #0]
    2fcc:	784b      	ldrb	r3, [r1, #1]
    2fce:	7043      	strb	r3, [r0, #1]
    2fd0:	788b      	ldrb	r3, [r1, #2]
    2fd2:	7083      	strb	r3, [r0, #2]
    2fd4:	4660      	mov	r0, ip
    2fd6:	4770      	bx	lr

00002fd8 <sysconf>:
    2fd8:	2808      	cmp	r0, #8
    2fda:	d102      	bne.n	2fe2 <sysconf+0xa>
    2fdc:	f44f 5080 	mov.w	r0, #4096	@ 0x1000
    2fe0:	4770      	bx	lr
    2fe2:	b508      	push	{r3, lr}
    2fe4:	f7fe fb50 	bl	1688 <__errno>
    2fe8:	2316      	movs	r3, #22
    2fea:	6003      	str	r3, [r0, #0]
    2fec:	f04f 30ff 	mov.w	r0, #4294967295	@ 0xffffffff
    2ff0:	bd08      	pop	{r3, pc}
    2ff2:	bf00      	nop

00002ff4 <__malloc_lock>:
    2ff4:	4770      	bx	lr
    2ff6:	bf00      	nop

00002ff8 <__malloc_unlock>:
    2ff8:	4770      	bx	lr
    2ffa:	bf00      	nop

00002ffc <__fp_lock>:
    2ffc:	2000      	movs	r0, #0
    2ffe:	4770      	bx	lr

00003000 <stdio_exit_handler>:
    3000:	4a02      	ldr	r2, [pc, #8]	@ (300c <stdio_exit_handler+0xc>)
    3002:	4903      	ldr	r1, [pc, #12]	@ (3010 <stdio_exit_handler+0x10>)
    3004:	4803      	ldr	r0, [pc, #12]	@ (3014 <stdio_exit_handler+0x14>)
    3006:	f000 bf1d 	b.w	3e44 <_fwalk_sglue>
    300a:	bf00      	nop
    300c:	20000538 	.word	0x20000538
    3010:	00004101 	.word	0x00004101
    3014:	20000008 	.word	0x20000008

00003018 <cleanup_stdio>:
    3018:	4b0c      	ldr	r3, [pc, #48]	@ (304c <cleanup_stdio+0x34>)
    301a:	6841      	ldr	r1, [r0, #4]
    301c:	4299      	cmp	r1, r3
    301e:	b510      	push	{r4, lr}
    3020:	4604      	mov	r4, r0
    3022:	d001      	beq.n	3028 <cleanup_stdio+0x10>
    3024:	f001 f86c 	bl	4100 <_fclose_r>
    3028:	68a1      	ldr	r1, [r4, #8]
    302a:	4b09      	ldr	r3, [pc, #36]	@ (3050 <cleanup_stdio+0x38>)
    302c:	4299      	cmp	r1, r3
    302e:	d002      	beq.n	3036 <cleanup_stdio+0x1e>
    3030:	4620      	mov	r0, r4
    3032:	f001 f865 	bl	4100 <_fclose_r>
    3036:	68e1      	ldr	r1, [r4, #12]
    3038:	4b06      	ldr	r3, [pc, #24]	@ (3054 <cleanup_stdio+0x3c>)
    303a:	4299      	cmp	r1, r3
    303c:	d004      	beq.n	3048 <cleanup_stdio+0x30>
    303e:	4620      	mov	r0, r4
    3040:	e8bd 4010 	ldmia.w	sp!, {r4, lr}
    3044:	f001 b85c 	b.w	4100 <_fclose_r>
    3048:	bd10      	pop	{r4, pc}
    304a:	bf00      	nop
    304c:	200006e4 	.word	0x200006e4
    3050:	2000074c 	.word	0x2000074c
    3054:	200007b4 	.word	0x200007b4

00003058 <__fp_unlock>:
    3058:	2000      	movs	r0, #0
    305a:	4770      	bx	lr

0000305c <global_stdio_init.part.0>:
    305c:	e92d 43f8 	stmdb	sp!, {r3, r4, r5, r6, r7, r8, r9, lr}
    3060:	4c2a      	ldr	r4, [pc, #168]	@ (310c <global_stdio_init.part.0+0xb0>)
    3062:	492b      	ldr	r1, [pc, #172]	@ (3110 <global_stdio_init.part.0+0xb4>)
    3064:	f8df 90bc 	ldr.w	r9, [pc, #188]	@ 3124 <global_stdio_init.part.0+0xc8>
    3068:	f8df 80bc 	ldr.w	r8, [pc, #188]	@ 3128 <global_stdio_init.part.0+0xcc>
    306c:	4f29      	ldr	r7, [pc, #164]	@ (3114 <global_stdio_init.part.0+0xb8>)
    306e:	f8c4 1138 	str.w	r1, [r4, #312]	@ 0x138
    3072:	2500      	movs	r5, #0
    3074:	2304      	movs	r3, #4
    3076:	2208      	movs	r2, #8
    3078:	4629      	mov	r1, r5
    307a:	f104 005c 	add.w	r0, r4, #92	@ 0x5c
    307e:	4e26      	ldr	r6, [pc, #152]	@ (3118 <global_stdio_init.part.0+0xbc>)
    3080:	60e3      	str	r3, [r4, #12]
    3082:	e9c4 5500 	strd	r5, r5, [r4]
    3086:	e9c4 5504 	strd	r5, r5, [r4, #16]
    308a:	60a5      	str	r5, [r4, #8]
    308c:	6665      	str	r5, [r4, #100]	@ 0x64
    308e:	61a5      	str	r5, [r4, #24]
    3090:	f000 f904 	bl	329c <memset>
    3094:	4b21      	ldr	r3, [pc, #132]	@ (311c <global_stdio_init.part.0+0xc0>)
    3096:	6763      	str	r3, [r4, #116]	@ 0x74
    3098:	2208      	movs	r2, #8
    309a:	4629      	mov	r1, r5
    309c:	f104 00c4 	add.w	r0, r4, #196	@ 0xc4
    30a0:	e9c4 4907 	strd	r4, r9, [r4, #28]
    30a4:	e9c4 8709 	strd	r8, r7, [r4, #36]	@ 0x24
    30a8:	e9c4 551a 	strd	r5, r5, [r4, #104]	@ 0x68
    30ac:	e9c4 551e 	strd	r5, r5, [r4, #120]	@ 0x78
    30b0:	6725      	str	r5, [r4, #112]	@ 0x70
    30b2:	f8c4 50cc 	str.w	r5, [r4, #204]	@ 0xcc
    30b6:	f8c4 5080 	str.w	r5, [r4, #128]	@ 0x80
    30ba:	62e6      	str	r6, [r4, #44]	@ 0x2c
    30bc:	f000 f8ee 	bl	329c <memset>
    30c0:	4b17      	ldr	r3, [pc, #92]	@ (3120 <global_stdio_init.part.0+0xc4>)
    30c2:	f8c4 30dc 	str.w	r3, [r4, #220]	@ 0xdc
    30c6:	4629      	mov	r1, r5
    30c8:	f104 0368 	add.w	r3, r4, #104	@ 0x68
    30cc:	2208      	movs	r2, #8
    30ce:	f504 7096 	add.w	r0, r4, #300	@ 0x12c
    30d2:	f8c4 3084 	str.w	r3, [r4, #132]	@ 0x84
    30d6:	e9c4 9822 	strd	r9, r8, [r4, #136]	@ 0x88
    30da:	e9c4 7624 	strd	r7, r6, [r4, #144]	@ 0x90
    30de:	e9c4 5534 	strd	r5, r5, [r4, #208]	@ 0xd0
    30e2:	e9c4 5538 	strd	r5, r5, [r4, #224]	@ 0xe0
    30e6:	f8c4 50d8 	str.w	r5, [r4, #216]	@ 0xd8
    30ea:	f8c4 5134 	str.w	r5, [r4, #308]	@ 0x134
    30ee:	f8c4 50e8 	str.w	r5, [r4, #232]	@ 0xe8
    30f2:	f000 f8d3 	bl	329c <memset>
    30f6:	f104 03d0 	add.w	r3, r4, #208	@ 0xd0
    30fa:	e9c4 983c 	strd	r9, r8, [r4, #240]	@ 0xf0
    30fe:	e9c4 763e 	strd	r7, r6, [r4, #248]	@ 0xf8
    3102:	f8c4 30ec 	str.w	r3, [r4, #236]	@ 0xec
    3106:	e8bd 83f8 	ldmia.w	sp!, {r3, r4, r5, r6, r7, r8, r9, pc}
    310a:	bf00      	nop
    310c:	200006e4 	.word	0x200006e4
    3110:	00003001 	.word	0x00003001
    3114:	00004229 	.word	0x00004229
    3118:	0000424d 	.word	0x0000424d
    311c:	00010009 	.word	0x00010009
    3120:	00020012 	.word	0x00020012
    3124:	000041c1 	.word	0x000041c1
    3128:	000041e9 	.word	0x000041e9

0000312c <__sfp>:
    312c:	b5f8      	push	{r3, r4, r5, r6, r7, lr}
    312e:	4b25      	ldr	r3, [pc, #148]	@ (31c4 <__sfp+0x98>)
    3130:	f8d3 3138 	ldr.w	r3, [r3, #312]	@ 0x138
    3134:	4606      	mov	r6, r0
    3136:	2b00      	cmp	r3, #0
    3138:	d03c      	beq.n	31b4 <__sfp+0x88>
    313a:	4f23      	ldr	r7, [pc, #140]	@ (31c8 <__sfp+0x9c>)
    313c:	e9d7 3401 	ldrd	r3, r4, [r7, #4]
    3140:	3b01      	subs	r3, #1
    3142:	d504      	bpl.n	314e <__sfp+0x22>
    3144:	e01d      	b.n	3182 <__sfp+0x56>
    3146:	1c5a      	adds	r2, r3, #1
    3148:	f104 0468 	add.w	r4, r4, #104	@ 0x68
    314c:	d019      	beq.n	3182 <__sfp+0x56>
    314e:	f9b4 500c 	ldrsh.w	r5, [r4, #12]
    3152:	3b01      	subs	r3, #1
    3154:	2d00      	cmp	r5, #0
    3156:	d1f6      	bne.n	3146 <__sfp+0x1a>
    3158:	4b1c      	ldr	r3, [pc, #112]	@ (31cc <__sfp+0xa0>)
    315a:	60e3      	str	r3, [r4, #12]
    315c:	e9c4 5501 	strd	r5, r5, [r4, #4]
    3160:	e9c4 5504 	strd	r5, r5, [r4, #16]
    3164:	6665      	str	r5, [r4, #100]	@ 0x64
    3166:	6025      	str	r5, [r4, #0]
    3168:	61a5      	str	r5, [r4, #24]
    316a:	2208      	movs	r2, #8
    316c:	4629      	mov	r1, r5
    316e:	f104 005c 	add.w	r0, r4, #92	@ 0x5c
    3172:	f000 f893 	bl	329c <memset>
    3176:	e9c4 550c 	strd	r5, r5, [r4, #48]	@ 0x30
    317a:	e9c4 5511 	strd	r5, r5, [r4, #68]	@ 0x44
    317e:	4620      	mov	r0, r4
    3180:	bdf8      	pop	{r3, r4, r5, r6, r7, pc}
    3182:	683d      	ldr	r5, [r7, #0]
    3184:	b10d      	cbz	r5, 318a <__sfp+0x5e>
    3186:	462f      	mov	r7, r5
    3188:	e7d8      	b.n	313c <__sfp+0x10>
    318a:	f44f 71d6 	mov.w	r1, #428	@ 0x1ac
    318e:	4630      	mov	r0, r6
    3190:	f7fe fa80 	bl	1694 <_malloc_r>
    3194:	4604      	mov	r4, r0
    3196:	b180      	cbz	r0, 31ba <__sfp+0x8e>
    3198:	2304      	movs	r3, #4
    319a:	e9c0 5300 	strd	r5, r3, [r0]
    319e:	300c      	adds	r0, #12
    31a0:	4629      	mov	r1, r5
    31a2:	60a0      	str	r0, [r4, #8]
    31a4:	f44f 72d0 	mov.w	r2, #416	@ 0x1a0
    31a8:	4625      	mov	r5, r4
    31aa:	f000 f877 	bl	329c <memset>
    31ae:	603c      	str	r4, [r7, #0]
    31b0:	462f      	mov	r7, r5
    31b2:	e7c3      	b.n	313c <__sfp+0x10>
    31b4:	f7ff ff52 	bl	305c <global_stdio_init.part.0>
    31b8:	e7bf      	b.n	313a <__sfp+0xe>
    31ba:	230c      	movs	r3, #12
    31bc:	6038      	str	r0, [r7, #0]
    31be:	6033      	str	r3, [r6, #0]
    31c0:	e7dd      	b.n	317e <__sfp+0x52>
    31c2:	bf00      	nop
    31c4:	200006e4 	.word	0x200006e4
    31c8:	20000538 	.word	0x20000538
    31cc:	ffff0001 	.word	0xffff0001

000031d0 <__sinit>:
    31d0:	6b43      	ldr	r3, [r0, #52]	@ 0x34
    31d2:	b103      	cbz	r3, 31d6 <__sinit+0x6>
    31d4:	4770      	bx	lr
    31d6:	4b04      	ldr	r3, [pc, #16]	@ (31e8 <__sinit+0x18>)
    31d8:	4a04      	ldr	r2, [pc, #16]	@ (31ec <__sinit+0x1c>)
    31da:	f8d3 3138 	ldr.w	r3, [r3, #312]	@ 0x138
    31de:	6342      	str	r2, [r0, #52]	@ 0x34
    31e0:	2b00      	cmp	r3, #0
    31e2:	d1f7      	bne.n	31d4 <__sinit+0x4>
    31e4:	e73a      	b.n	305c <global_stdio_init.part.0>
    31e6:	bf00      	nop
    31e8:	200006e4 	.word	0x200006e4
    31ec:	00003019 	.word	0x00003019

000031f0 <__sfp_lock_acquire>:
    31f0:	4770      	bx	lr
    31f2:	bf00      	nop

000031f4 <__sfp_lock_release>:
    31f4:	4770      	bx	lr
    31f6:	bf00      	nop

000031f8 <__fp_lock_all>:
    31f8:	4a02      	ldr	r2, [pc, #8]	@ (3204 <__fp_lock_all+0xc>)
    31fa:	4903      	ldr	r1, [pc, #12]	@ (3208 <__fp_lock_all+0x10>)
    31fc:	2000      	movs	r0, #0
    31fe:	f000 be21 	b.w	3e44 <_fwalk_sglue>
    3202:	bf00      	nop
    3204:	20000538 	.word	0x20000538
    3208:	00002ffd 	.word	0x00002ffd

0000320c <__fp_unlock_all>:
    320c:	4a02      	ldr	r2, [pc, #8]	@ (3218 <__fp_unlock_all+0xc>)
    320e:	4903      	ldr	r1, [pc, #12]	@ (321c <__fp_unlock_all+0x10>)
    3210:	2000      	movs	r0, #0
    3212:	f000 be17 	b.w	3e44 <_fwalk_sglue>
    3216:	bf00      	nop
    3218:	20000538 	.word	0x20000538
    321c:	00003059 	.word	0x00003059

00003220 <__ssprint_r>:
    3220:	e92d 43f8 	stmdb	sp!, {r3, r4, r5, r6, r7, r8, r9, lr}
    3224:	4615      	mov	r5, r2
    3226:	6892      	ldr	r2, [r2, #8]
    3228:	682c      	ldr	r4, [r5, #0]
    322a:	b1fa      	cbz	r2, 326c <__ssprint_r+0x4c>
    322c:	4680      	mov	r8, r0
    322e:	4689      	mov	r9, r1
    3230:	3408      	adds	r4, #8
    3232:	e001      	b.n	3238 <__ssprint_r+0x18>
    3234:	3408      	adds	r4, #8
    3236:	b1cf      	cbz	r7, 326c <__ssprint_r+0x4c>
    3238:	686b      	ldr	r3, [r5, #4]
    323a:	1e59      	subs	r1, r3, #1
    323c:	2b00      	cmp	r3, #0
    323e:	4617      	mov	r7, r2
    3240:	6069      	str	r1, [r5, #4]
    3242:	dd13      	ble.n	326c <__ssprint_r+0x4c>
    3244:	f854 6c04 	ldr.w	r6, [r4, #-4]
    3248:	2e00      	cmp	r6, #0
    324a:	d0f3      	beq.n	3234 <__ssprint_r+0x14>
    324c:	4633      	mov	r3, r6
    324e:	f854 2c08 	ldr.w	r2, [r4, #-8]
    3252:	4649      	mov	r1, r9
    3254:	4640      	mov	r0, r8
    3256:	f000 fed1 	bl	3ffc <__ssputs_r>
    325a:	1c43      	adds	r3, r0, #1
    325c:	d007      	beq.n	326e <__ssprint_r+0x4e>
    325e:	68aa      	ldr	r2, [r5, #8]
    3260:	1b92      	subs	r2, r2, r6
    3262:	4617      	mov	r7, r2
    3264:	60aa      	str	r2, [r5, #8]
    3266:	3408      	adds	r4, #8
    3268:	2f00      	cmp	r7, #0
    326a:	d1e5      	bne.n	3238 <__ssprint_r+0x18>
    326c:	2000      	movs	r0, #0
    326e:	2300      	movs	r3, #0
    3270:	e9c5 3301 	strd	r3, r3, [r5, #4]
    3274:	e8bd 83f8 	ldmia.w	sp!, {r3, r4, r5, r6, r7, r8, r9, pc}

00003278 <_sbrk_r>:
    3278:	b538      	push	{r3, r4, r5, lr}
    327a:	4d07      	ldr	r5, [pc, #28]	@ (3298 <_sbrk_r+0x20>)
    327c:	2200      	movs	r2, #0
    327e:	4604      	mov	r4, r0
    3280:	4608      	mov	r0, r1
    3282:	602a      	str	r2, [r5, #0]
    3284:	f003 fcda 	bl	6c3c <_sbrk>
    3288:	1c43      	adds	r3, r0, #1
    328a:	d000      	beq.n	328e <_sbrk_r+0x16>
    328c:	bd38      	pop	{r3, r4, r5, pc}
    328e:	682b      	ldr	r3, [r5, #0]
    3290:	2b00      	cmp	r3, #0
    3292:	d0fb      	beq.n	328c <_sbrk_r+0x14>
    3294:	6023      	str	r3, [r4, #0]
    3296:	bd38      	pop	{r3, r4, r5, pc}
    3298:	20000820 	.word	0x20000820

0000329c <memset>:
    329c:	0783      	lsls	r3, r0, #30
    329e:	b530      	push	{r4, r5, lr}
    32a0:	d047      	beq.n	3332 <memset+0x96>
    32a2:	1e54      	subs	r4, r2, #1
    32a4:	2a00      	cmp	r2, #0
    32a6:	d03e      	beq.n	3326 <memset+0x8a>
    32a8:	b2ca      	uxtb	r2, r1
    32aa:	4603      	mov	r3, r0
    32ac:	e001      	b.n	32b2 <memset+0x16>
    32ae:	3c01      	subs	r4, #1
    32b0:	d339      	bcc.n	3326 <memset+0x8a>
    32b2:	f803 2b01 	strb.w	r2, [r3], #1
    32b6:	079d      	lsls	r5, r3, #30
    32b8:	d1f9      	bne.n	32ae <memset+0x12>
    32ba:	2c03      	cmp	r4, #3
    32bc:	d92c      	bls.n	3318 <memset+0x7c>
    32be:	b2cd      	uxtb	r5, r1
    32c0:	eb05 2505 	add.w	r5, r5, r5, lsl #8
    32c4:	2c0f      	cmp	r4, #15
    32c6:	eb05 4505 	add.w	r5, r5, r5, lsl #16
    32ca:	d935      	bls.n	3338 <memset+0x9c>
    32cc:	f1a4 0210 	sub.w	r2, r4, #16
    32d0:	f022 0c0f 	bic.w	ip, r2, #15
    32d4:	f103 0e10 	add.w	lr, r3, #16
    32d8:	44e6      	add	lr, ip
    32da:	ea4f 1c12 	mov.w	ip, r2, lsr #4
    32de:	461a      	mov	r2, r3
    32e0:	e9c2 5500 	strd	r5, r5, [r2]
    32e4:	e9c2 5502 	strd	r5, r5, [r2, #8]
    32e8:	3210      	adds	r2, #16
    32ea:	4572      	cmp	r2, lr
    32ec:	d1f8      	bne.n	32e0 <memset+0x44>
    32ee:	f10c 0201 	add.w	r2, ip, #1
    32f2:	f014 0f0c 	tst.w	r4, #12
    32f6:	eb03 1202 	add.w	r2, r3, r2, lsl #4
    32fa:	f004 0c0f 	and.w	ip, r4, #15
    32fe:	d013      	beq.n	3328 <memset+0x8c>
    3300:	f1ac 0304 	sub.w	r3, ip, #4
    3304:	f023 0303 	bic.w	r3, r3, #3
    3308:	3304      	adds	r3, #4
    330a:	4413      	add	r3, r2
    330c:	f842 5b04 	str.w	r5, [r2], #4
    3310:	4293      	cmp	r3, r2
    3312:	d1fb      	bne.n	330c <memset+0x70>
    3314:	f00c 0403 	and.w	r4, ip, #3
    3318:	b12c      	cbz	r4, 3326 <memset+0x8a>
    331a:	b2c9      	uxtb	r1, r1
    331c:	441c      	add	r4, r3
    331e:	f803 1b01 	strb.w	r1, [r3], #1
    3322:	42a3      	cmp	r3, r4
    3324:	d1fb      	bne.n	331e <memset+0x82>
    3326:	bd30      	pop	{r4, r5, pc}
    3328:	4664      	mov	r4, ip
    332a:	4613      	mov	r3, r2
    332c:	2c00      	cmp	r4, #0
    332e:	d1f4      	bne.n	331a <memset+0x7e>
    3330:	e7f9      	b.n	3326 <memset+0x8a>
    3332:	4603      	mov	r3, r0
    3334:	4614      	mov	r4, r2
    3336:	e7c0      	b.n	32ba <memset+0x1e>
    3338:	461a      	mov	r2, r3
    333a:	46a4      	mov	ip, r4
    333c:	e7e0      	b.n	3300 <memset+0x64>
    333e:	bf00      	nop

00003340 <__assert_func>:
    3340:	b500      	push	{lr}
    3342:	4c0b      	ldr	r4, [pc, #44]	@ (3370 <__assert_func+0x30>)
    3344:	6825      	ldr	r5, [r4, #0]
    3346:	4614      	mov	r4, r2
    3348:	68ee      	ldr	r6, [r5, #12]
    334a:	461a      	mov	r2, r3
    334c:	b085      	sub	sp, #20
    334e:	4603      	mov	r3, r0
    3350:	460d      	mov	r5, r1
    3352:	b14c      	cbz	r4, 3368 <__assert_func+0x28>
    3354:	4907      	ldr	r1, [pc, #28]	@ (3374 <__assert_func+0x34>)
    3356:	9500      	str	r5, [sp, #0]
    3358:	e9cd 1401 	strd	r1, r4, [sp, #4]
    335c:	4630      	mov	r0, r6
    335e:	4906      	ldr	r1, [pc, #24]	@ (3378 <__assert_func+0x38>)
    3360:	f000 feba 	bl	40d8 <fiprintf>
    3364:	f000 fe0c 	bl	3f80 <abort>
    3368:	4904      	ldr	r1, [pc, #16]	@ (337c <__assert_func+0x3c>)
    336a:	460c      	mov	r4, r1
    336c:	e7f3      	b.n	3356 <__assert_func+0x16>
    336e:	bf00      	nop
    3370:	20000000 	.word	0x20000000
    3374:	00007900 	.word	0x00007900
    3378:	00007910 	.word	0x00007910
    337c:	0000790c 	.word	0x0000790c

00003380 <__assert>:
    3380:	b508      	push	{r3, lr}
    3382:	4613      	mov	r3, r2
    3384:	2200      	movs	r2, #0
    3386:	f7ff ffdb 	bl	3340 <__assert_func>
    338a:	bf00      	nop

0000338c <_Balloc>:
    338c:	6c43      	ldr	r3, [r0, #68]	@ 0x44
    338e:	b570      	push	{r4, r5, r6, lr}
    3390:	4605      	mov	r5, r0
    3392:	460c      	mov	r4, r1
    3394:	b14b      	cbz	r3, 33aa <_Balloc+0x1e>
    3396:	f853 0024 	ldr.w	r0, [r3, r4, lsl #2]
    339a:	b180      	cbz	r0, 33be <_Balloc+0x32>
    339c:	6802      	ldr	r2, [r0, #0]
    339e:	f843 2024 	str.w	r2, [r3, r4, lsl #2]
    33a2:	2300      	movs	r3, #0
    33a4:	e9c0 3303 	strd	r3, r3, [r0, #12]
    33a8:	bd70      	pop	{r4, r5, r6, pc}
    33aa:	2221      	movs	r2, #33	@ 0x21
    33ac:	2104      	movs	r1, #4
    33ae:	f000 fdef 	bl	3f90 <_calloc_r>
    33b2:	4603      	mov	r3, r0
    33b4:	6468      	str	r0, [r5, #68]	@ 0x44
    33b6:	2800      	cmp	r0, #0
    33b8:	d1ed      	bne.n	3396 <_Balloc+0xa>
    33ba:	2000      	movs	r0, #0
    33bc:	bd70      	pop	{r4, r5, r6, pc}
    33be:	2101      	movs	r1, #1
    33c0:	fa01 f604 	lsl.w	r6, r1, r4
    33c4:	1d72      	adds	r2, r6, #5
    33c6:	0092      	lsls	r2, r2, #2
    33c8:	4628      	mov	r0, r5
    33ca:	f000 fde1 	bl	3f90 <_calloc_r>
    33ce:	2800      	cmp	r0, #0
    33d0:	d0f3      	beq.n	33ba <_Balloc+0x2e>
    33d2:	e9c0 4601 	strd	r4, r6, [r0, #4]
    33d6:	e7e4      	b.n	33a2 <_Balloc+0x16>

000033d8 <_Bfree>:
    33d8:	b131      	cbz	r1, 33e8 <_Bfree+0x10>
    33da:	6c43      	ldr	r3, [r0, #68]	@ 0x44
    33dc:	684a      	ldr	r2, [r1, #4]
    33de:	f853 0022 	ldr.w	r0, [r3, r2, lsl #2]
    33e2:	6008      	str	r0, [r1, #0]
    33e4:	f843 1022 	str.w	r1, [r3, r2, lsl #2]
    33e8:	4770      	bx	lr
    33ea:	bf00      	nop

000033ec <__multadd>:
    33ec:	e92d 41f0 	stmdb	sp!, {r4, r5, r6, r7, r8, lr}
    33f0:	690d      	ldr	r5, [r1, #16]
    33f2:	4607      	mov	r7, r0
    33f4:	460e      	mov	r6, r1
    33f6:	461c      	mov	r4, r3
    33f8:	f101 0e14 	add.w	lr, r1, #20
    33fc:	2000      	movs	r0, #0
    33fe:	f8de 1000 	ldr.w	r1, [lr]
    3402:	b28b      	uxth	r3, r1
    3404:	fb02 4303 	mla	r3, r2, r3, r4
    3408:	ea4f 4c13 	mov.w	ip, r3, lsr #16
    340c:	0c09      	lsrs	r1, r1, #16
    340e:	fb02 cc01 	mla	ip, r2, r1, ip
    3412:	3001      	adds	r0, #1
    3414:	b29b      	uxth	r3, r3
    3416:	eb03 430c 	add.w	r3, r3, ip, lsl #16
    341a:	4285      	cmp	r5, r0
    341c:	f84e 3b04 	str.w	r3, [lr], #4
    3420:	ea4f 441c 	mov.w	r4, ip, lsr #16
    3424:	dceb      	bgt.n	33fe <__multadd+0x12>
    3426:	b13c      	cbz	r4, 3438 <__multadd+0x4c>
    3428:	68b3      	ldr	r3, [r6, #8]
    342a:	42ab      	cmp	r3, r5
    342c:	dd07      	ble.n	343e <__multadd+0x52>
    342e:	eb06 0385 	add.w	r3, r6, r5, lsl #2
    3432:	3501      	adds	r5, #1
    3434:	615c      	str	r4, [r3, #20]
    3436:	6135      	str	r5, [r6, #16]
    3438:	4630      	mov	r0, r6
    343a:	e8bd 81f0 	ldmia.w	sp!, {r4, r5, r6, r7, r8, pc}
    343e:	6871      	ldr	r1, [r6, #4]
    3440:	4638      	mov	r0, r7
    3442:	3101      	adds	r1, #1
    3444:	f7ff ffa2 	bl	338c <_Balloc>
    3448:	4680      	mov	r8, r0
    344a:	b1a8      	cbz	r0, 3478 <__multadd+0x8c>
    344c:	6932      	ldr	r2, [r6, #16]
    344e:	3202      	adds	r2, #2
    3450:	f106 010c 	add.w	r1, r6, #12
    3454:	0092      	lsls	r2, r2, #2
    3456:	300c      	adds	r0, #12
    3458:	f7ff fd24 	bl	2ea4 <memcpy>
    345c:	6c7b      	ldr	r3, [r7, #68]	@ 0x44
    345e:	6872      	ldr	r2, [r6, #4]
    3460:	f853 1022 	ldr.w	r1, [r3, r2, lsl #2]
    3464:	6031      	str	r1, [r6, #0]
    3466:	f843 6022 	str.w	r6, [r3, r2, lsl #2]
    346a:	4646      	mov	r6, r8
    346c:	eb06 0385 	add.w	r3, r6, r5, lsl #2
    3470:	3501      	adds	r5, #1
    3472:	615c      	str	r4, [r3, #20]
    3474:	6135      	str	r5, [r6, #16]
    3476:	e7df      	b.n	3438 <__multadd+0x4c>
    3478:	4b02      	ldr	r3, [pc, #8]	@ (3484 <__multadd+0x98>)
    347a:	4803      	ldr	r0, [pc, #12]	@ (3488 <__multadd+0x9c>)
    347c:	4642      	mov	r2, r8
    347e:	21ba      	movs	r1, #186	@ 0xba
    3480:	f7ff ff5e 	bl	3340 <__assert_func>
    3484:	000078c0 	.word	0x000078c0
    3488:	00007940 	.word	0x00007940

0000348c <__s2b>:
    348c:	e92d 43f8 	stmdb	sp!, {r3, r4, r5, r6, r7, r8, r9, lr}
    3490:	4617      	mov	r7, r2
    3492:	4a28      	ldr	r2, [pc, #160]	@ (3534 <__s2b+0xa8>)
    3494:	461e      	mov	r6, r3
    3496:	3308      	adds	r3, #8
    3498:	460c      	mov	r4, r1
    349a:	2e09      	cmp	r6, #9
    349c:	fb82 1203 	smull	r1, r2, r2, r3
    34a0:	ea4f 73e3 	mov.w	r3, r3, asr #31
    34a4:	4605      	mov	r5, r0
    34a6:	ebc3 0362 	rsb	r3, r3, r2, asr #1
    34aa:	dd3a      	ble.n	3522 <__s2b+0x96>
    34ac:	f04f 0c01 	mov.w	ip, #1
    34b0:	2100      	movs	r1, #0
    34b2:	ea4f 0c4c 	mov.w	ip, ip, lsl #1
    34b6:	4563      	cmp	r3, ip
    34b8:	f101 0101 	add.w	r1, r1, #1
    34bc:	dcf9      	bgt.n	34b2 <__s2b+0x26>
    34be:	4628      	mov	r0, r5
    34c0:	f7ff ff64 	bl	338c <_Balloc>
    34c4:	4601      	mov	r1, r0
    34c6:	b370      	cbz	r0, 3526 <__s2b+0x9a>
    34c8:	9b08      	ldr	r3, [sp, #32]
    34ca:	6143      	str	r3, [r0, #20]
    34cc:	2f09      	cmp	r7, #9
    34ce:	f04f 0301 	mov.w	r3, #1
    34d2:	6103      	str	r3, [r0, #16]
    34d4:	dc12      	bgt.n	34fc <__s2b+0x70>
    34d6:	340a      	adds	r4, #10
    34d8:	2709      	movs	r7, #9
    34da:	42be      	cmp	r6, r7
    34dc:	dd0b      	ble.n	34f6 <__s2b+0x6a>
    34de:	1bf6      	subs	r6, r6, r7
    34e0:	4426      	add	r6, r4
    34e2:	f814 3b01 	ldrb.w	r3, [r4], #1
    34e6:	220a      	movs	r2, #10
    34e8:	3b30      	subs	r3, #48	@ 0x30
    34ea:	4628      	mov	r0, r5
    34ec:	f7ff ff7e 	bl	33ec <__multadd>
    34f0:	42b4      	cmp	r4, r6
    34f2:	4601      	mov	r1, r0
    34f4:	d1f5      	bne.n	34e2 <__s2b+0x56>
    34f6:	4608      	mov	r0, r1
    34f8:	e8bd 83f8 	ldmia.w	sp!, {r3, r4, r5, r6, r7, r8, r9, pc}
    34fc:	f104 0809 	add.w	r8, r4, #9
    3500:	eb04 0907 	add.w	r9, r4, r7
    3504:	4644      	mov	r4, r8
    3506:	f814 3b01 	ldrb.w	r3, [r4], #1
    350a:	220a      	movs	r2, #10
    350c:	3b30      	subs	r3, #48	@ 0x30
    350e:	4628      	mov	r0, r5
    3510:	f7ff ff6c 	bl	33ec <__multadd>
    3514:	454c      	cmp	r4, r9
    3516:	4601      	mov	r1, r0
    3518:	d1f5      	bne.n	3506 <__s2b+0x7a>
    351a:	f1a7 0408 	sub.w	r4, r7, #8
    351e:	4444      	add	r4, r8
    3520:	e7db      	b.n	34da <__s2b+0x4e>
    3522:	2100      	movs	r1, #0
    3524:	e7cb      	b.n	34be <__s2b+0x32>
    3526:	460a      	mov	r2, r1
    3528:	4b03      	ldr	r3, [pc, #12]	@ (3538 <__s2b+0xac>)
    352a:	4804      	ldr	r0, [pc, #16]	@ (353c <__s2b+0xb0>)
    352c:	21d3      	movs	r1, #211	@ 0xd3
    352e:	f7ff ff07 	bl	3340 <__assert_func>
    3532:	bf00      	nop
    3534:	38e38e39 	.word	0x38e38e39
    3538:	000078c0 	.word	0x000078c0
    353c:	00007940 	.word	0x00007940

00003540 <__hi0bits>:
    3540:	f5b0 3f80 	cmp.w	r0, #65536	@ 0x10000
    3544:	4603      	mov	r3, r0
    3546:	bf36      	itet	cc
    3548:	0403      	lslcc	r3, r0, #16
    354a:	2000      	movcs	r0, #0
    354c:	2010      	movcc	r0, #16
    354e:	f1b3 7f80 	cmp.w	r3, #16777216	@ 0x1000000
    3552:	bf3c      	itt	cc
    3554:	021b      	lslcc	r3, r3, #8
    3556:	3008      	addcc	r0, #8
    3558:	f1b3 5f80 	cmp.w	r3, #268435456	@ 0x10000000
    355c:	bf3c      	itt	cc
    355e:	011b      	lslcc	r3, r3, #4
    3560:	3004      	addcc	r0, #4
    3562:	f1b3 4f80 	cmp.w	r3, #1073741824	@ 0x40000000
    3566:	d303      	bcc.n	3570 <__hi0bits+0x30>
    3568:	2b00      	cmp	r3, #0
    356a:	db06      	blt.n	357a <__hi0bits+0x3a>
    356c:	3001      	adds	r0, #1
    356e:	4770      	bx	lr
    3570:	009b      	lsls	r3, r3, #2
    3572:	d403      	bmi.n	357c <__hi0bits+0x3c>
    3574:	005b      	lsls	r3, r3, #1
    3576:	d403      	bmi.n	3580 <__hi0bits+0x40>
    3578:	2020      	movs	r0, #32
    357a:	4770      	bx	lr
    357c:	3002      	adds	r0, #2
    357e:	4770      	bx	lr
    3580:	3003      	adds	r0, #3
    3582:	4770      	bx	lr

00003584 <__lo0bits>:
    3584:	6803      	ldr	r3, [r0, #0]
    3586:	f013 0207 	ands.w	r2, r3, #7
    358a:	4601      	mov	r1, r0
    358c:	d007      	beq.n	359e <__lo0bits+0x1a>
    358e:	07da      	lsls	r2, r3, #31
    3590:	d41f      	bmi.n	35d2 <__lo0bits+0x4e>
    3592:	0798      	lsls	r0, r3, #30
    3594:	d521      	bpl.n	35da <__lo0bits+0x56>
    3596:	085b      	lsrs	r3, r3, #1
    3598:	600b      	str	r3, [r1, #0]
    359a:	2001      	movs	r0, #1
    359c:	4770      	bx	lr
    359e:	b298      	uxth	r0, r3
    35a0:	b1a0      	cbz	r0, 35cc <__lo0bits+0x48>
    35a2:	4610      	mov	r0, r2
    35a4:	b2da      	uxtb	r2, r3
    35a6:	b90a      	cbnz	r2, 35ac <__lo0bits+0x28>
    35a8:	3008      	adds	r0, #8
    35aa:	0a1b      	lsrs	r3, r3, #8
    35ac:	071a      	lsls	r2, r3, #28
    35ae:	bf04      	itt	eq
    35b0:	091b      	lsreq	r3, r3, #4
    35b2:	3004      	addeq	r0, #4
    35b4:	079a      	lsls	r2, r3, #30
    35b6:	bf04      	itt	eq
    35b8:	089b      	lsreq	r3, r3, #2
    35ba:	3002      	addeq	r0, #2
    35bc:	07da      	lsls	r2, r3, #31
    35be:	d403      	bmi.n	35c8 <__lo0bits+0x44>
    35c0:	085b      	lsrs	r3, r3, #1
    35c2:	f100 0001 	add.w	r0, r0, #1
    35c6:	d006      	beq.n	35d6 <__lo0bits+0x52>
    35c8:	600b      	str	r3, [r1, #0]
    35ca:	4770      	bx	lr
    35cc:	0c1b      	lsrs	r3, r3, #16
    35ce:	2010      	movs	r0, #16
    35d0:	e7e8      	b.n	35a4 <__lo0bits+0x20>
    35d2:	2000      	movs	r0, #0
    35d4:	4770      	bx	lr
    35d6:	2020      	movs	r0, #32
    35d8:	4770      	bx	lr
    35da:	089b      	lsrs	r3, r3, #2
    35dc:	600b      	str	r3, [r1, #0]
    35de:	2002      	movs	r0, #2
    35e0:	4770      	bx	lr
    35e2:	bf00      	nop

000035e4 <__i2b>:
    35e4:	b538      	push	{r3, r4, r5, lr}
    35e6:	6c43      	ldr	r3, [r0, #68]	@ 0x44
    35e8:	4604      	mov	r4, r0
    35ea:	460d      	mov	r5, r1
    35ec:	b14b      	cbz	r3, 3602 <__i2b+0x1e>
    35ee:	6858      	ldr	r0, [r3, #4]
    35f0:	b1b0      	cbz	r0, 3620 <__i2b+0x3c>
    35f2:	6802      	ldr	r2, [r0, #0]
    35f4:	605a      	str	r2, [r3, #4]
    35f6:	2200      	movs	r2, #0
    35f8:	2301      	movs	r3, #1
    35fa:	e9c0 2303 	strd	r2, r3, [r0, #12]
    35fe:	6145      	str	r5, [r0, #20]
    3600:	bd38      	pop	{r3, r4, r5, pc}
    3602:	2221      	movs	r2, #33	@ 0x21
    3604:	2104      	movs	r1, #4
    3606:	f000 fcc3 	bl	3f90 <_calloc_r>
    360a:	4603      	mov	r3, r0
    360c:	6460      	str	r0, [r4, #68]	@ 0x44
    360e:	2800      	cmp	r0, #0
    3610:	d1ed      	bne.n	35ee <__i2b+0xa>
    3612:	4b09      	ldr	r3, [pc, #36]	@ (3638 <__i2b+0x54>)
    3614:	4809      	ldr	r0, [pc, #36]	@ (363c <__i2b+0x58>)
    3616:	2200      	movs	r2, #0
    3618:	f240 1145 	movw	r1, #325	@ 0x145
    361c:	f7ff fe90 	bl	3340 <__assert_func>
    3620:	221c      	movs	r2, #28
    3622:	2101      	movs	r1, #1
    3624:	4620      	mov	r0, r4
    3626:	f000 fcb3 	bl	3f90 <_calloc_r>
    362a:	2800      	cmp	r0, #0
    362c:	d0f1      	beq.n	3612 <__i2b+0x2e>
    362e:	2201      	movs	r2, #1
    3630:	2302      	movs	r3, #2
    3632:	e9c0 2301 	strd	r2, r3, [r0, #4]
    3636:	e7de      	b.n	35f6 <__i2b+0x12>
    3638:	000078c0 	.word	0x000078c0
    363c:	00007940 	.word	0x00007940

00003640 <__multiply>:
    3640:	e92d 4ff0 	stmdb	sp!, {r4, r5, r6, r7, r8, r9, sl, fp, lr}
    3644:	f8d1 8010 	ldr.w	r8, [r1, #16]
    3648:	6915      	ldr	r5, [r2, #16]
    364a:	45a8      	cmp	r8, r5
    364c:	b085      	sub	sp, #20
    364e:	460e      	mov	r6, r1
    3650:	4692      	mov	sl, r2
    3652:	db05      	blt.n	3660 <__multiply+0x20>
    3654:	462a      	mov	r2, r5
    3656:	4653      	mov	r3, sl
    3658:	4645      	mov	r5, r8
    365a:	468a      	mov	sl, r1
    365c:	4690      	mov	r8, r2
    365e:	461e      	mov	r6, r3
    3660:	f8da 3008 	ldr.w	r3, [sl, #8]
    3664:	f8da 1004 	ldr.w	r1, [sl, #4]
    3668:	eb05 0408 	add.w	r4, r5, r8
    366c:	42a3      	cmp	r3, r4
    366e:	bfb8      	it	lt
    3670:	3101      	addlt	r1, #1
    3672:	f7ff fe8b 	bl	338c <_Balloc>
    3676:	4684      	mov	ip, r0
    3678:	2800      	cmp	r0, #0
    367a:	f000 808b 	beq.w	3794 <__multiply+0x154>
    367e:	f100 0714 	add.w	r7, r0, #20
    3682:	eb07 0e84 	add.w	lr, r7, r4, lsl #2
    3686:	4577      	cmp	r7, lr
    3688:	d205      	bcs.n	3696 <__multiply+0x56>
    368a:	463b      	mov	r3, r7
    368c:	2200      	movs	r2, #0
    368e:	f843 2b04 	str.w	r2, [r3], #4
    3692:	459e      	cmp	lr, r3
    3694:	d8fb      	bhi.n	368e <__multiply+0x4e>
    3696:	3614      	adds	r6, #20
    3698:	eb06 0888 	add.w	r8, r6, r8, lsl #2
    369c:	f10a 0914 	add.w	r9, sl, #20
    36a0:	4546      	cmp	r6, r8
    36a2:	eb09 0585 	add.w	r5, r9, r5, lsl #2
    36a6:	d266      	bcs.n	3776 <__multiply+0x136>
    36a8:	eba5 030a 	sub.w	r3, r5, sl
    36ac:	3b15      	subs	r3, #21
    36ae:	f023 0303 	bic.w	r3, r3, #3
    36b2:	f10a 0a15 	add.w	sl, sl, #21
    36b6:	3304      	adds	r3, #4
    36b8:	4555      	cmp	r5, sl
    36ba:	bf2c      	ite	cs
    36bc:	469b      	movcs	fp, r3
    36be:	f04f 0b04 	movcc.w	fp, #4
    36c2:	f8cd e008 	str.w	lr, [sp, #8]
    36c6:	9403      	str	r4, [sp, #12]
    36c8:	46ae      	mov	lr, r5
    36ca:	46e2      	mov	sl, ip
    36cc:	e005      	b.n	36da <__multiply+0x9a>
    36ce:	0c09      	lsrs	r1, r1, #16
    36d0:	d12a      	bne.n	3728 <__multiply+0xe8>
    36d2:	45b0      	cmp	r8, r6
    36d4:	f107 0704 	add.w	r7, r7, #4
    36d8:	d94a      	bls.n	3770 <__multiply+0x130>
    36da:	f856 1b04 	ldr.w	r1, [r6], #4
    36de:	b28d      	uxth	r5, r1
    36e0:	2d00      	cmp	r5, #0
    36e2:	d0f4      	beq.n	36ce <__multiply+0x8e>
    36e4:	46cc      	mov	ip, r9
    36e6:	463c      	mov	r4, r7
    36e8:	2300      	movs	r3, #0
    36ea:	9601      	str	r6, [sp, #4]
    36ec:	f85c 0b04 	ldr.w	r0, [ip], #4
    36f0:	6821      	ldr	r1, [r4, #0]
    36f2:	b286      	uxth	r6, r0
    36f4:	b28a      	uxth	r2, r1
    36f6:	0c00      	lsrs	r0, r0, #16
    36f8:	fb05 2206 	mla	r2, r5, r6, r2
    36fc:	0c09      	lsrs	r1, r1, #16
    36fe:	441a      	add	r2, r3
    3700:	fb05 1100 	mla	r1, r5, r0, r1
    3704:	eb01 4112 	add.w	r1, r1, r2, lsr #16
    3708:	b292      	uxth	r2, r2
    370a:	ea42 4201 	orr.w	r2, r2, r1, lsl #16
    370e:	45e6      	cmp	lr, ip
    3710:	f844 2b04 	str.w	r2, [r4], #4
    3714:	ea4f 4311 	mov.w	r3, r1, lsr #16
    3718:	d8e8      	bhi.n	36ec <__multiply+0xac>
    371a:	9e01      	ldr	r6, [sp, #4]
    371c:	f847 300b 	str.w	r3, [r7, fp]
    3720:	f856 1c04 	ldr.w	r1, [r6, #-4]
    3724:	0c09      	lsrs	r1, r1, #16
    3726:	d0d4      	beq.n	36d2 <__multiply+0x92>
    3728:	683b      	ldr	r3, [r7, #0]
    372a:	2200      	movs	r2, #0
    372c:	4648      	mov	r0, r9
    372e:	461d      	mov	r5, r3
    3730:	463c      	mov	r4, r7
    3732:	4694      	mov	ip, r2
    3734:	8802      	ldrh	r2, [r0, #0]
    3736:	fb01 c202 	mla	r2, r1, r2, ip
    373a:	eb02 4215 	add.w	r2, r2, r5, lsr #16
    373e:	b29b      	uxth	r3, r3
    3740:	ea43 4302 	orr.w	r3, r3, r2, lsl #16
    3744:	f844 3b04 	str.w	r3, [r4], #4
    3748:	f850 3b04 	ldr.w	r3, [r0], #4
    374c:	6825      	ldr	r5, [r4, #0]
    374e:	ea4f 4c13 	mov.w	ip, r3, lsr #16
    3752:	b2ab      	uxth	r3, r5
    3754:	fb01 330c 	mla	r3, r1, ip, r3
    3758:	eb03 4312 	add.w	r3, r3, r2, lsr #16
    375c:	4570      	cmp	r0, lr
    375e:	ea4f 4c13 	mov.w	ip, r3, lsr #16
    3762:	d3e7      	bcc.n	3734 <__multiply+0xf4>
    3764:	45b0      	cmp	r8, r6
    3766:	f847 300b 	str.w	r3, [r7, fp]
    376a:	f107 0704 	add.w	r7, r7, #4
    376e:	d8b4      	bhi.n	36da <__multiply+0x9a>
    3770:	e9dd e402 	ldrd	lr, r4, [sp, #8]
    3774:	46d4      	mov	ip, sl
    3776:	2c00      	cmp	r4, #0
    3778:	dc02      	bgt.n	3780 <__multiply+0x140>
    377a:	e005      	b.n	3788 <__multiply+0x148>
    377c:	3c01      	subs	r4, #1
    377e:	d003      	beq.n	3788 <__multiply+0x148>
    3780:	f85e 3d04 	ldr.w	r3, [lr, #-4]!
    3784:	2b00      	cmp	r3, #0
    3786:	d0f9      	beq.n	377c <__multiply+0x13c>
    3788:	4660      	mov	r0, ip
    378a:	f8cc 4010 	str.w	r4, [ip, #16]
    378e:	b005      	add	sp, #20
    3790:	e8bd 8ff0 	ldmia.w	sp!, {r4, r5, r6, r7, r8, r9, sl, fp, pc}
    3794:	4b03      	ldr	r3, [pc, #12]	@ (37a4 <__multiply+0x164>)
    3796:	4804      	ldr	r0, [pc, #16]	@ (37a8 <__multiply+0x168>)
    3798:	4662      	mov	r2, ip
    379a:	f44f 71b1 	mov.w	r1, #354	@ 0x162
    379e:	f7ff fdcf 	bl	3340 <__assert_func>
    37a2:	bf00      	nop
    37a4:	000078c0 	.word	0x000078c0
    37a8:	00007940 	.word	0x00007940

000037ac <__pow5mult>:
    37ac:	f012 0303 	ands.w	r3, r2, #3
    37b0:	e92d 41f0 	stmdb	sp!, {r4, r5, r6, r7, r8, lr}
    37b4:	4614      	mov	r4, r2
    37b6:	4607      	mov	r7, r0
    37b8:	d12c      	bne.n	3814 <__pow5mult+0x68>
    37ba:	460d      	mov	r5, r1
    37bc:	10a4      	asrs	r4, r4, #2
    37be:	d01c      	beq.n	37fa <__pow5mult+0x4e>
    37c0:	6c3e      	ldr	r6, [r7, #64]	@ 0x40
    37c2:	b386      	cbz	r6, 3826 <__pow5mult+0x7a>
    37c4:	07e3      	lsls	r3, r4, #31
    37c6:	f04f 0800 	mov.w	r8, #0
    37ca:	d406      	bmi.n	37da <__pow5mult+0x2e>
    37cc:	1064      	asrs	r4, r4, #1
    37ce:	d014      	beq.n	37fa <__pow5mult+0x4e>
    37d0:	6830      	ldr	r0, [r6, #0]
    37d2:	b1a8      	cbz	r0, 3800 <__pow5mult+0x54>
    37d4:	4606      	mov	r6, r0
    37d6:	07e3      	lsls	r3, r4, #31
    37d8:	d5f8      	bpl.n	37cc <__pow5mult+0x20>
    37da:	4632      	mov	r2, r6
    37dc:	4629      	mov	r1, r5
    37de:	4638      	mov	r0, r7
    37e0:	f7ff ff2e 	bl	3640 <__multiply>
    37e4:	b135      	cbz	r5, 37f4 <__pow5mult+0x48>
    37e6:	6c7b      	ldr	r3, [r7, #68]	@ 0x44
    37e8:	6869      	ldr	r1, [r5, #4]
    37ea:	f853 2021 	ldr.w	r2, [r3, r1, lsl #2]
    37ee:	602a      	str	r2, [r5, #0]
    37f0:	f843 5021 	str.w	r5, [r3, r1, lsl #2]
    37f4:	1064      	asrs	r4, r4, #1
    37f6:	4605      	mov	r5, r0
    37f8:	d1ea      	bne.n	37d0 <__pow5mult+0x24>
    37fa:	4628      	mov	r0, r5
    37fc:	e8bd 81f0 	ldmia.w	sp!, {r4, r5, r6, r7, r8, pc}
    3800:	4632      	mov	r2, r6
    3802:	4631      	mov	r1, r6
    3804:	4638      	mov	r0, r7
    3806:	f7ff ff1b 	bl	3640 <__multiply>
    380a:	6030      	str	r0, [r6, #0]
    380c:	f8c0 8000 	str.w	r8, [r0]
    3810:	4606      	mov	r6, r0
    3812:	e7e0      	b.n	37d6 <__pow5mult+0x2a>
    3814:	3b01      	subs	r3, #1
    3816:	4a0f      	ldr	r2, [pc, #60]	@ (3854 <__pow5mult+0xa8>)
    3818:	f852 2023 	ldr.w	r2, [r2, r3, lsl #2]
    381c:	2300      	movs	r3, #0
    381e:	f7ff fde5 	bl	33ec <__multadd>
    3822:	4605      	mov	r5, r0
    3824:	e7ca      	b.n	37bc <__pow5mult+0x10>
    3826:	2101      	movs	r1, #1
    3828:	4638      	mov	r0, r7
    382a:	f7ff fdaf 	bl	338c <_Balloc>
    382e:	4606      	mov	r6, r0
    3830:	b140      	cbz	r0, 3844 <__pow5mult+0x98>
    3832:	2301      	movs	r3, #1
    3834:	f240 2271 	movw	r2, #625	@ 0x271
    3838:	e9c0 3204 	strd	r3, r2, [r0, #16]
    383c:	2300      	movs	r3, #0
    383e:	6438      	str	r0, [r7, #64]	@ 0x40
    3840:	6003      	str	r3, [r0, #0]
    3842:	e7bf      	b.n	37c4 <__pow5mult+0x18>
    3844:	4b04      	ldr	r3, [pc, #16]	@ (3858 <__pow5mult+0xac>)
    3846:	4805      	ldr	r0, [pc, #20]	@ (385c <__pow5mult+0xb0>)
    3848:	4632      	mov	r2, r6
    384a:	f240 1145 	movw	r1, #325	@ 0x145
    384e:	f7ff fd77 	bl	3340 <__assert_func>
    3852:	bf00      	nop
    3854:	00006d00 	.word	0x00006d00
    3858:	000078c0 	.word	0x000078c0
    385c:	00007940 	.word	0x00007940

00003860 <__lshift>:
    3860:	e92d 47f0 	stmdb	sp!, {r4, r5, r6, r7, r8, r9, sl, lr}
    3864:	460c      	mov	r4, r1
    3866:	4690      	mov	r8, r2
    3868:	6927      	ldr	r7, [r4, #16]
    386a:	68a3      	ldr	r3, [r4, #8]
    386c:	6849      	ldr	r1, [r1, #4]
    386e:	eb07 1762 	add.w	r7, r7, r2, asr #5
    3872:	1c7d      	adds	r5, r7, #1
    3874:	429d      	cmp	r5, r3
    3876:	4606      	mov	r6, r0
    3878:	ea4f 1962 	mov.w	r9, r2, asr #5
    387c:	dd04      	ble.n	3888 <__lshift+0x28>
    387e:	005b      	lsls	r3, r3, #1
    3880:	429d      	cmp	r5, r3
    3882:	f101 0101 	add.w	r1, r1, #1
    3886:	dcfa      	bgt.n	387e <__lshift+0x1e>
    3888:	4630      	mov	r0, r6
    388a:	f7ff fd7f 	bl	338c <_Balloc>
    388e:	4684      	mov	ip, r0
    3890:	2800      	cmp	r0, #0
    3892:	d051      	beq.n	3938 <__lshift+0xd8>
    3894:	f1b9 0f00 	cmp.w	r9, #0
    3898:	f100 0014 	add.w	r0, r0, #20
    389c:	dd0e      	ble.n	38bc <__lshift+0x5c>
    389e:	f109 0205 	add.w	r2, r9, #5
    38a2:	ea4f 0e82 	mov.w	lr, r2, lsl #2
    38a6:	4603      	mov	r3, r0
    38a8:	eb0c 0282 	add.w	r2, ip, r2, lsl #2
    38ac:	2100      	movs	r1, #0
    38ae:	f843 1b04 	str.w	r1, [r3], #4
    38b2:	4293      	cmp	r3, r2
    38b4:	d1fb      	bne.n	38ae <__lshift+0x4e>
    38b6:	f1ae 0314 	sub.w	r3, lr, #20
    38ba:	4418      	add	r0, r3
    38bc:	6921      	ldr	r1, [r4, #16]
    38be:	f104 0314 	add.w	r3, r4, #20
    38c2:	f018 081f 	ands.w	r8, r8, #31
    38c6:	eb03 0181 	add.w	r1, r3, r1, lsl #2
    38ca:	d02d      	beq.n	3928 <__lshift+0xc8>
    38cc:	f1c8 0920 	rsb	r9, r8, #32
    38d0:	4686      	mov	lr, r0
    38d2:	f04f 0a00 	mov.w	sl, #0
    38d6:	681a      	ldr	r2, [r3, #0]
    38d8:	fa02 f208 	lsl.w	r2, r2, r8
    38dc:	ea42 020a 	orr.w	r2, r2, sl
    38e0:	f84e 2b04 	str.w	r2, [lr], #4
    38e4:	f853 2b04 	ldr.w	r2, [r3], #4
    38e8:	4299      	cmp	r1, r3
    38ea:	fa22 fa09 	lsr.w	sl, r2, r9
    38ee:	d8f2      	bhi.n	38d6 <__lshift+0x76>
    38f0:	1b0b      	subs	r3, r1, r4
    38f2:	3b15      	subs	r3, #21
    38f4:	f023 0303 	bic.w	r3, r3, #3
    38f8:	3304      	adds	r3, #4
    38fa:	f104 0215 	add.w	r2, r4, #21
    38fe:	4291      	cmp	r1, r2
    3900:	bf38      	it	cc
    3902:	2304      	movcc	r3, #4
    3904:	f840 a003 	str.w	sl, [r0, r3]
    3908:	f1ba 0f00 	cmp.w	sl, #0
    390c:	d100      	bne.n	3910 <__lshift+0xb0>
    390e:	463d      	mov	r5, r7
    3910:	6c73      	ldr	r3, [r6, #68]	@ 0x44
    3912:	6862      	ldr	r2, [r4, #4]
    3914:	f8cc 5010 	str.w	r5, [ip, #16]
    3918:	f853 1022 	ldr.w	r1, [r3, r2, lsl #2]
    391c:	6021      	str	r1, [r4, #0]
    391e:	4660      	mov	r0, ip
    3920:	f843 4022 	str.w	r4, [r3, r2, lsl #2]
    3924:	e8bd 87f0 	ldmia.w	sp!, {r4, r5, r6, r7, r8, r9, sl, pc}
    3928:	3804      	subs	r0, #4
    392a:	f853 2b04 	ldr.w	r2, [r3], #4
    392e:	f840 2f04 	str.w	r2, [r0, #4]!
    3932:	4299      	cmp	r1, r3
    3934:	d8f9      	bhi.n	392a <__lshift+0xca>
    3936:	e7ea      	b.n	390e <__lshift+0xae>
    3938:	4b03      	ldr	r3, [pc, #12]	@ (3948 <__lshift+0xe8>)
    393a:	4804      	ldr	r0, [pc, #16]	@ (394c <__lshift+0xec>)
    393c:	4662      	mov	r2, ip
    393e:	f44f 71ef 	mov.w	r1, #478	@ 0x1de
    3942:	f7ff fcfd 	bl	3340 <__assert_func>
    3946:	bf00      	nop
    3948:	000078c0 	.word	0x000078c0
    394c:	00007940 	.word	0x00007940

00003950 <__mcmp>:
    3950:	690b      	ldr	r3, [r1, #16]
    3952:	4684      	mov	ip, r0
    3954:	6900      	ldr	r0, [r0, #16]
    3956:	1ac0      	subs	r0, r0, r3
    3958:	d116      	bne.n	3988 <__mcmp+0x38>
    395a:	f10c 0c14 	add.w	ip, ip, #20
    395e:	3114      	adds	r1, #20
    3960:	eb0c 0283 	add.w	r2, ip, r3, lsl #2
    3964:	b410      	push	{r4}
    3966:	eb01 0383 	add.w	r3, r1, r3, lsl #2
    396a:	e001      	b.n	3970 <__mcmp+0x20>
    396c:	4594      	cmp	ip, r2
    396e:	d208      	bcs.n	3982 <__mcmp+0x32>
    3970:	f852 4d04 	ldr.w	r4, [r2, #-4]!
    3974:	f853 1d04 	ldr.w	r1, [r3, #-4]!
    3978:	428c      	cmp	r4, r1
    397a:	d0f7      	beq.n	396c <__mcmp+0x1c>
    397c:	d205      	bcs.n	398a <__mcmp+0x3a>
    397e:	f04f 30ff 	mov.w	r0, #4294967295	@ 0xffffffff
    3982:	f85d 4b04 	ldr.w	r4, [sp], #4
    3986:	4770      	bx	lr
    3988:	4770      	bx	lr
    398a:	2001      	movs	r0, #1
    398c:	f85d 4b04 	ldr.w	r4, [sp], #4
    3990:	4770      	bx	lr
    3992:	bf00      	nop

00003994 <__mdiff>:
    3994:	e92d 4ff0 	stmdb	sp!, {r4, r5, r6, r7, r8, r9, sl, fp, lr}
    3998:	4615      	mov	r5, r2
    399a:	690a      	ldr	r2, [r1, #16]
    399c:	692b      	ldr	r3, [r5, #16]
    399e:	1ad2      	subs	r2, r2, r3
    39a0:	2a00      	cmp	r2, #0
    39a2:	b083      	sub	sp, #12
    39a4:	4688      	mov	r8, r1
    39a6:	f040 8087 	bne.w	3ab8 <__mdiff+0x124>
    39aa:	f101 0614 	add.w	r6, r1, #20
    39ae:	f105 0114 	add.w	r1, r5, #20
    39b2:	eb01 0183 	add.w	r1, r1, r3, lsl #2
    39b6:	eb06 0383 	add.w	r3, r6, r3, lsl #2
    39ba:	e001      	b.n	39c0 <__mdiff+0x2c>
    39bc:	429e      	cmp	r6, r3
    39be:	d27e      	bcs.n	3abe <__mdiff+0x12a>
    39c0:	f853 4d04 	ldr.w	r4, [r3, #-4]!
    39c4:	f851 2d04 	ldr.w	r2, [r1, #-4]!
    39c8:	4294      	cmp	r4, r2
    39ca:	d0f7      	beq.n	39bc <__mdiff+0x28>
    39cc:	d375      	bcc.n	3aba <__mdiff+0x126>
    39ce:	462b      	mov	r3, r5
    39d0:	2400      	movs	r4, #0
    39d2:	4645      	mov	r5, r8
    39d4:	4698      	mov	r8, r3
    39d6:	6869      	ldr	r1, [r5, #4]
    39d8:	f7ff fcd8 	bl	338c <_Balloc>
    39dc:	4681      	mov	r9, r0
    39de:	2800      	cmp	r0, #0
    39e0:	f000 8089 	beq.w	3af6 <__mdiff+0x162>
    39e4:	692e      	ldr	r6, [r5, #16]
    39e6:	60c4      	str	r4, [r0, #12]
    39e8:	f8d8 0010 	ldr.w	r0, [r8, #16]
    39ec:	f105 0b14 	add.w	fp, r5, #20
    39f0:	f108 0e14 	add.w	lr, r8, #20
    39f4:	f109 0a14 	add.w	sl, r9, #20
    39f8:	f105 0210 	add.w	r2, r5, #16
    39fc:	eb0e 0080 	add.w	r0, lr, r0, lsl #2
    3a00:	eb0b 0186 	add.w	r1, fp, r6, lsl #2
    3a04:	4657      	mov	r7, sl
    3a06:	f04f 0c00 	mov.w	ip, #0
    3a0a:	f8cd b004 	str.w	fp, [sp, #4]
    3a0e:	f85e 4b04 	ldr.w	r4, [lr], #4
    3a12:	f852 5f04 	ldr.w	r5, [r2, #4]!
    3a16:	fa1f fb84 	uxth.w	fp, r4
    3a1a:	b2ab      	uxth	r3, r5
    3a1c:	eba3 030b 	sub.w	r3, r3, fp
    3a20:	0c24      	lsrs	r4, r4, #16
    3a22:	4463      	add	r3, ip
    3a24:	ebc4 4415 	rsb	r4, r4, r5, lsr #16
    3a28:	eb04 4423 	add.w	r4, r4, r3, asr #16
    3a2c:	b29b      	uxth	r3, r3
    3a2e:	ea43 4304 	orr.w	r3, r3, r4, lsl #16
    3a32:	4570      	cmp	r0, lr
    3a34:	f847 3b04 	str.w	r3, [r7], #4
    3a38:	ea4f 4c24 	mov.w	ip, r4, asr #16
    3a3c:	d8e7      	bhi.n	3a0e <__mdiff+0x7a>
    3a3e:	eba0 0208 	sub.w	r2, r0, r8
    3a42:	f108 0815 	add.w	r8, r8, #21
    3a46:	4540      	cmp	r0, r8
    3a48:	f1a2 0215 	sub.w	r2, r2, #21
    3a4c:	bf34      	ite	cc
    3a4e:	2000      	movcc	r0, #0
    3a50:	2001      	movcs	r0, #1
    3a52:	0892      	lsrs	r2, r2, #2
    3a54:	2800      	cmp	r0, #0
    3a56:	f8dd b004 	ldr.w	fp, [sp, #4]
    3a5a:	f102 0401 	add.w	r4, r2, #1
    3a5e:	ea4f 0484 	mov.w	r4, r4, lsl #2
    3a62:	bf08      	it	eq
    3a64:	2404      	moveq	r4, #4
    3a66:	eb0b 0504 	add.w	r5, fp, r4
    3a6a:	42a9      	cmp	r1, r5
    3a6c:	4454      	add	r4, sl
    3a6e:	d933      	bls.n	3ad8 <__mdiff+0x144>
    3a70:	4627      	mov	r7, r4
    3a72:	4628      	mov	r0, r5
    3a74:	f850 3b04 	ldr.w	r3, [r0], #4
    3a78:	fa1c fe83 	uxtah	lr, ip, r3
    3a7c:	0c1a      	lsrs	r2, r3, #16
    3a7e:	4463      	add	r3, ip
    3a80:	eb02 422e 	add.w	r2, r2, lr, asr #16
    3a84:	b29b      	uxth	r3, r3
    3a86:	ea43 4302 	orr.w	r3, r3, r2, lsl #16
    3a8a:	4281      	cmp	r1, r0
    3a8c:	f847 3b04 	str.w	r3, [r7], #4
    3a90:	ea4f 4c22 	mov.w	ip, r2, asr #16
    3a94:	d8ee      	bhi.n	3a74 <__mdiff+0xe0>
    3a96:	3901      	subs	r1, #1
    3a98:	1b49      	subs	r1, r1, r5
    3a9a:	f021 0103 	bic.w	r1, r1, #3
    3a9e:	440c      	add	r4, r1
    3aa0:	b923      	cbnz	r3, 3aac <__mdiff+0x118>
    3aa2:	f854 3d04 	ldr.w	r3, [r4, #-4]!
    3aa6:	3e01      	subs	r6, #1
    3aa8:	2b00      	cmp	r3, #0
    3aaa:	d0fa      	beq.n	3aa2 <__mdiff+0x10e>
    3aac:	4648      	mov	r0, r9
    3aae:	f8c9 6010 	str.w	r6, [r9, #16]
    3ab2:	b003      	add	sp, #12
    3ab4:	e8bd 8ff0 	ldmia.w	sp!, {r4, r5, r6, r7, r8, r9, sl, fp, pc}
    3ab8:	da89      	bge.n	39ce <__mdiff+0x3a>
    3aba:	2401      	movs	r4, #1
    3abc:	e78b      	b.n	39d6 <__mdiff+0x42>
    3abe:	2100      	movs	r1, #0
    3ac0:	f7ff fc64 	bl	338c <_Balloc>
    3ac4:	4681      	mov	r9, r0
    3ac6:	b178      	cbz	r0, 3ae8 <__mdiff+0x154>
    3ac8:	2201      	movs	r2, #1
    3aca:	2300      	movs	r3, #0
    3acc:	e9c0 2304 	strd	r2, r3, [r0, #16]
    3ad0:	4648      	mov	r0, r9
    3ad2:	b003      	add	sp, #12
    3ad4:	e8bd 8ff0 	ldmia.w	sp!, {r4, r5, r6, r7, r8, r9, sl, fp, pc}
    3ad8:	2800      	cmp	r0, #0
    3ada:	ea4f 0282 	mov.w	r2, r2, lsl #2
    3ade:	bf08      	it	eq
    3ae0:	2200      	moveq	r2, #0
    3ae2:	eb0a 0402 	add.w	r4, sl, r2
    3ae6:	e7db      	b.n	3aa0 <__mdiff+0x10c>
    3ae8:	4b06      	ldr	r3, [pc, #24]	@ (3b04 <__mdiff+0x170>)
    3aea:	4807      	ldr	r0, [pc, #28]	@ (3b08 <__mdiff+0x174>)
    3aec:	464a      	mov	r2, r9
    3aee:	f240 2137 	movw	r1, #567	@ 0x237
    3af2:	f7ff fc25 	bl	3340 <__assert_func>
    3af6:	4b03      	ldr	r3, [pc, #12]	@ (3b04 <__mdiff+0x170>)
    3af8:	4803      	ldr	r0, [pc, #12]	@ (3b08 <__mdiff+0x174>)
    3afa:	464a      	mov	r2, r9
    3afc:	f240 2145 	movw	r1, #581	@ 0x245
    3b00:	f7ff fc1e 	bl	3340 <__assert_func>
    3b04:	000078c0 	.word	0x000078c0
    3b08:	00007940 	.word	0x00007940

00003b0c <__ulp>:
    3b0c:	b082      	sub	sp, #8
    3b0e:	ed8d 0b00 	vstr	d0, [sp]
    3b12:	4b16      	ldr	r3, [pc, #88]	@ (3b6c <__ulp+0x60>)
    3b14:	9a01      	ldr	r2, [sp, #4]
    3b16:	4013      	ands	r3, r2
    3b18:	f1a3 7350 	sub.w	r3, r3, #54525952	@ 0x3400000
    3b1c:	2b00      	cmp	r3, #0
    3b1e:	dd06      	ble.n	3b2e <__ulp+0x22>
    3b20:	2200      	movs	r2, #0
    3b22:	4619      	mov	r1, r3
    3b24:	4610      	mov	r0, r2
    3b26:	ec41 0b10 	vmov	d0, r0, r1
    3b2a:	b002      	add	sp, #8
    3b2c:	4770      	bx	lr
    3b2e:	425b      	negs	r3, r3
    3b30:	f1b3 7fa0 	cmp.w	r3, #20971520	@ 0x1400000
    3b34:	ea4f 5223 	mov.w	r2, r3, asr #20
    3b38:	da09      	bge.n	3b4e <__ulp+0x42>
    3b3a:	f44f 2300 	mov.w	r3, #524288	@ 0x80000
    3b3e:	4113      	asrs	r3, r2
    3b40:	2200      	movs	r2, #0
    3b42:	4619      	mov	r1, r3
    3b44:	4610      	mov	r0, r2
    3b46:	ec41 0b10 	vmov	d0, r0, r1
    3b4a:	b002      	add	sp, #8
    3b4c:	4770      	bx	lr
    3b4e:	f1a2 0314 	sub.w	r3, r2, #20
    3b52:	2b1e      	cmp	r3, #30
    3b54:	bfda      	itte	le
    3b56:	f04f 4200 	movle.w	r2, #2147483648	@ 0x80000000
    3b5a:	40da      	lsrle	r2, r3
    3b5c:	2201      	movgt	r2, #1
    3b5e:	2300      	movs	r3, #0
    3b60:	4619      	mov	r1, r3
    3b62:	4610      	mov	r0, r2
    3b64:	ec41 0b10 	vmov	d0, r0, r1
    3b68:	b002      	add	sp, #8
    3b6a:	4770      	bx	lr
    3b6c:	7ff00000 	.word	0x7ff00000

00003b70 <__b2d>:
    3b70:	b5f8      	push	{r3, r4, r5, r6, r7, lr}
    3b72:	6904      	ldr	r4, [r0, #16]
    3b74:	f100 0614 	add.w	r6, r0, #20
    3b78:	eb06 0484 	add.w	r4, r6, r4, lsl #2
    3b7c:	1f27      	subs	r7, r4, #4
    3b7e:	f854 5c04 	ldr.w	r5, [r4, #-4]
    3b82:	4628      	mov	r0, r5
    3b84:	f7ff fcdc 	bl	3540 <__hi0bits>
    3b88:	f1c0 0320 	rsb	r3, r0, #32
    3b8c:	280a      	cmp	r0, #10
    3b8e:	600b      	str	r3, [r1, #0]
    3b90:	dd33      	ble.n	3bfa <__b2d+0x8a>
    3b92:	42be      	cmp	r6, r7
    3b94:	f1a0 010b 	sub.w	r1, r0, #11
    3b98:	d219      	bcs.n	3bce <__b2d+0x5e>
    3b9a:	f854 0c08 	ldr.w	r0, [r4, #-8]
    3b9e:	b321      	cbz	r1, 3bea <__b2d+0x7a>
    3ba0:	f1c1 0720 	rsb	r7, r1, #32
    3ba4:	408d      	lsls	r5, r1
    3ba6:	fa20 f207 	lsr.w	r2, r0, r7
    3baa:	4315      	orrs	r5, r2
    3bac:	4088      	lsls	r0, r1
    3bae:	f1a4 0108 	sub.w	r1, r4, #8
    3bb2:	f045 537f 	orr.w	r3, r5, #1069547520	@ 0x3fc00000
    3bb6:	428e      	cmp	r6, r1
    3bb8:	f443 1340 	orr.w	r3, r3, #3145728	@ 0x300000
    3bbc:	d219      	bcs.n	3bf2 <__b2d+0x82>
    3bbe:	f854 1c0c 	ldr.w	r1, [r4, #-12]
    3bc2:	40f9      	lsrs	r1, r7
    3bc4:	4308      	orrs	r0, r1
    3bc6:	4602      	mov	r2, r0
    3bc8:	ec43 2b10 	vmov	d0, r2, r3
    3bcc:	bdf8      	pop	{r3, r4, r5, r6, r7, pc}
    3bce:	280b      	cmp	r0, #11
    3bd0:	d00a      	beq.n	3be8 <__b2d+0x78>
    3bd2:	fa05 f101 	lsl.w	r1, r5, r1
    3bd6:	f041 537f 	orr.w	r3, r1, #1069547520	@ 0x3fc00000
    3bda:	2000      	movs	r0, #0
    3bdc:	f443 1340 	orr.w	r3, r3, #3145728	@ 0x300000
    3be0:	4602      	mov	r2, r0
    3be2:	ec43 2b10 	vmov	d0, r2, r3
    3be6:	bdf8      	pop	{r3, r4, r5, r6, r7, pc}
    3be8:	2000      	movs	r0, #0
    3bea:	f045 537f 	orr.w	r3, r5, #1069547520	@ 0x3fc00000
    3bee:	f443 1340 	orr.w	r3, r3, #3145728	@ 0x300000
    3bf2:	4602      	mov	r2, r0
    3bf4:	ec43 2b10 	vmov	d0, r2, r3
    3bf8:	bdf8      	pop	{r3, r4, r5, r6, r7, pc}
    3bfa:	f1c0 0c0b 	rsb	ip, r0, #11
    3bfe:	fa25 f10c 	lsr.w	r1, r5, ip
    3c02:	42be      	cmp	r6, r7
    3c04:	f041 537f 	orr.w	r3, r1, #1069547520	@ 0x3fc00000
    3c08:	bf38      	it	cc
    3c0a:	f854 1c08 	ldrcc.w	r1, [r4, #-8]
    3c0e:	f100 0015 	add.w	r0, r0, #21
    3c12:	bf34      	ite	cc
    3c14:	fa21 f10c 	lsrcc.w	r1, r1, ip
    3c18:	2100      	movcs	r1, #0
    3c1a:	fa05 f000 	lsl.w	r0, r5, r0
    3c1e:	4308      	orrs	r0, r1
    3c20:	f443 1340 	orr.w	r3, r3, #3145728	@ 0x300000
    3c24:	4602      	mov	r2, r0
    3c26:	ec43 2b10 	vmov	d0, r2, r3
    3c2a:	bdf8      	pop	{r3, r4, r5, r6, r7, pc}

00003c2c <__d2b>:
    3c2c:	e92d 43f0 	stmdb	sp!, {r4, r5, r6, r7, r8, r9, lr}
    3c30:	460e      	mov	r6, r1
    3c32:	b083      	sub	sp, #12
    3c34:	2101      	movs	r1, #1
    3c36:	ec59 8b10 	vmov	r8, r9, d0
    3c3a:	4615      	mov	r5, r2
    3c3c:	f7ff fba6 	bl	338c <_Balloc>
    3c40:	4604      	mov	r4, r0
    3c42:	2800      	cmp	r0, #0
    3c44:	d046      	beq.n	3cd4 <__d2b+0xa8>
    3c46:	f3c9 570a 	ubfx	r7, r9, #20, #11
    3c4a:	f3c9 0313 	ubfx	r3, r9, #0, #20
    3c4e:	b10f      	cbz	r7, 3c54 <__d2b+0x28>
    3c50:	f443 1380 	orr.w	r3, r3, #1048576	@ 0x100000
    3c54:	9301      	str	r3, [sp, #4]
    3c56:	f1b8 0300 	subs.w	r3, r8, #0
    3c5a:	d113      	bne.n	3c84 <__d2b+0x58>
    3c5c:	a801      	add	r0, sp, #4
    3c5e:	f7ff fc91 	bl	3584 <__lo0bits>
    3c62:	9b01      	ldr	r3, [sp, #4]
    3c64:	6163      	str	r3, [r4, #20]
    3c66:	2201      	movs	r2, #1
    3c68:	3020      	adds	r0, #32
    3c6a:	6122      	str	r2, [r4, #16]
    3c6c:	b30f      	cbz	r7, 3cb2 <__d2b+0x86>
    3c6e:	f2a7 4733 	subw	r7, r7, #1075	@ 0x433
    3c72:	4407      	add	r7, r0
    3c74:	f1c0 0035 	rsb	r0, r0, #53	@ 0x35
    3c78:	6037      	str	r7, [r6, #0]
    3c7a:	6028      	str	r0, [r5, #0]
    3c7c:	4620      	mov	r0, r4
    3c7e:	b003      	add	sp, #12
    3c80:	e8bd 83f0 	ldmia.w	sp!, {r4, r5, r6, r7, r8, r9, pc}
    3c84:	4668      	mov	r0, sp
    3c86:	9300      	str	r3, [sp, #0]
    3c88:	f7ff fc7c 	bl	3584 <__lo0bits>
    3c8c:	9b01      	ldr	r3, [sp, #4]
    3c8e:	b1f8      	cbz	r0, 3cd0 <__d2b+0xa4>
    3c90:	9900      	ldr	r1, [sp, #0]
    3c92:	f1c0 0220 	rsb	r2, r0, #32
    3c96:	fa03 f202 	lsl.w	r2, r3, r2
    3c9a:	40c3      	lsrs	r3, r0
    3c9c:	430a      	orrs	r2, r1
    3c9e:	9301      	str	r3, [sp, #4]
    3ca0:	2b00      	cmp	r3, #0
    3ca2:	6162      	str	r2, [r4, #20]
    3ca4:	bf0c      	ite	eq
    3ca6:	2201      	moveq	r2, #1
    3ca8:	2202      	movne	r2, #2
    3caa:	61a3      	str	r3, [r4, #24]
    3cac:	6122      	str	r2, [r4, #16]
    3cae:	2f00      	cmp	r7, #0
    3cb0:	d1dd      	bne.n	3c6e <__d2b+0x42>
    3cb2:	eb04 0382 	add.w	r3, r4, r2, lsl #2
    3cb6:	f2a0 4032 	subw	r0, r0, #1074	@ 0x432
    3cba:	6030      	str	r0, [r6, #0]
    3cbc:	6918      	ldr	r0, [r3, #16]
    3cbe:	f7ff fc3f 	bl	3540 <__hi0bits>
    3cc2:	ebc0 1042 	rsb	r0, r0, r2, lsl #5
    3cc6:	6028      	str	r0, [r5, #0]
    3cc8:	4620      	mov	r0, r4
    3cca:	b003      	add	sp, #12
    3ccc:	e8bd 83f0 	ldmia.w	sp!, {r4, r5, r6, r7, r8, r9, pc}
    3cd0:	9a00      	ldr	r2, [sp, #0]
    3cd2:	e7e5      	b.n	3ca0 <__d2b+0x74>
    3cd4:	4b03      	ldr	r3, [pc, #12]	@ (3ce4 <__d2b+0xb8>)
    3cd6:	4804      	ldr	r0, [pc, #16]	@ (3ce8 <__d2b+0xbc>)
    3cd8:	4622      	mov	r2, r4
    3cda:	f240 310f 	movw	r1, #783	@ 0x30f
    3cde:	f7ff fb2f 	bl	3340 <__assert_func>
    3ce2:	bf00      	nop
    3ce4:	000078c0 	.word	0x000078c0
    3ce8:	00007940 	.word	0x00007940

00003cec <__ratio>:
    3cec:	e92d 43f0 	stmdb	sp!, {r4, r5, r6, r7, r8, r9, lr}
    3cf0:	b083      	sub	sp, #12
    3cf2:	4688      	mov	r8, r1
    3cf4:	4669      	mov	r1, sp
    3cf6:	4681      	mov	r9, r0
    3cf8:	f7ff ff3a 	bl	3b70 <__b2d>
    3cfc:	a901      	add	r1, sp, #4
    3cfe:	4640      	mov	r0, r8
    3d00:	ec55 4b10 	vmov	r4, r5, d0
    3d04:	f7ff ff34 	bl	3b70 <__b2d>
    3d08:	f8d8 3010 	ldr.w	r3, [r8, #16]
    3d0c:	f8d9 2010 	ldr.w	r2, [r9, #16]
    3d10:	1ad2      	subs	r2, r2, r3
    3d12:	e9dd 3100 	ldrd	r3, r1, [sp]
    3d16:	1a5b      	subs	r3, r3, r1
    3d18:	eb03 1342 	add.w	r3, r3, r2, lsl #5
    3d1c:	2b00      	cmp	r3, #0
    3d1e:	ec59 8b10 	vmov	r8, r9, d0
    3d22:	dd0d      	ble.n	3d40 <__ratio+0x54>
    3d24:	eb05 5703 	add.w	r7, r5, r3, lsl #20
    3d28:	463d      	mov	r5, r7
    3d2a:	4642      	mov	r2, r8
    3d2c:	464b      	mov	r3, r9
    3d2e:	4620      	mov	r0, r4
    3d30:	4629      	mov	r1, r5
    3d32:	f002 fa73 	bl	621c <__aeabi_ddiv>
    3d36:	ec41 0b10 	vmov	d0, r0, r1
    3d3a:	b003      	add	sp, #12
    3d3c:	e8bd 83f0 	ldmia.w	sp!, {r4, r5, r6, r7, r8, r9, pc}
    3d40:	ebc3 3303 	rsb	r3, r3, r3, lsl #12
    3d44:	eb09 5103 	add.w	r1, r9, r3, lsl #20
    3d48:	4689      	mov	r9, r1
    3d4a:	e7ee      	b.n	3d2a <__ratio+0x3e>

00003d4c <_mprec_log10>:
    3d4c:	2817      	cmp	r0, #23
    3d4e:	b570      	push	{r4, r5, r6, lr}
    3d50:	4606      	mov	r6, r0
    3d52:	dd0c      	ble.n	3d6e <_mprec_log10+0x22>
    3d54:	490a      	ldr	r1, [pc, #40]	@ (3d80 <_mprec_log10+0x34>)
    3d56:	4d0b      	ldr	r5, [pc, #44]	@ (3d84 <_mprec_log10+0x38>)
    3d58:	2000      	movs	r0, #0
    3d5a:	2400      	movs	r4, #0
    3d5c:	4622      	mov	r2, r4
    3d5e:	462b      	mov	r3, r5
    3d60:	f002 f932 	bl	5fc8 <__aeabi_dmul>
    3d64:	3e01      	subs	r6, #1
    3d66:	d1f9      	bne.n	3d5c <_mprec_log10+0x10>
    3d68:	ec41 0b10 	vmov	d0, r0, r1
    3d6c:	bd70      	pop	{r4, r5, r6, pc}
    3d6e:	4b06      	ldr	r3, [pc, #24]	@ (3d88 <_mprec_log10+0x3c>)
    3d70:	eb03 03c0 	add.w	r3, r3, r0, lsl #3
    3d74:	e9d3 0104 	ldrd	r0, r1, [r3, #16]
    3d78:	ec41 0b10 	vmov	d0, r0, r1
    3d7c:	bd70      	pop	{r4, r5, r6, pc}
    3d7e:	bf00      	nop
    3d80:	3ff00000 	.word	0x3ff00000
    3d84:	40240000 	.word	0x40240000
    3d88:	00006d00 	.word	0x00006d00

00003d8c <__copybits>:
    3d8c:	3901      	subs	r1, #1
    3d8e:	1149      	asrs	r1, r1, #5
    3d90:	f101 0c01 	add.w	ip, r1, #1
    3d94:	6911      	ldr	r1, [r2, #16]
    3d96:	f102 0314 	add.w	r3, r2, #20
    3d9a:	eb03 0181 	add.w	r1, r3, r1, lsl #2
    3d9e:	428b      	cmp	r3, r1
    3da0:	eb00 0c8c 	add.w	ip, r0, ip, lsl #2
    3da4:	d216      	bcs.n	3dd4 <__copybits+0x48>
    3da6:	b510      	push	{r4, lr}
    3da8:	f1a0 0e04 	sub.w	lr, r0, #4
    3dac:	f853 4b04 	ldr.w	r4, [r3], #4
    3db0:	f84e 4f04 	str.w	r4, [lr, #4]!
    3db4:	4299      	cmp	r1, r3
    3db6:	d8f9      	bhi.n	3dac <__copybits+0x20>
    3db8:	1a8b      	subs	r3, r1, r2
    3dba:	3b15      	subs	r3, #21
    3dbc:	f023 0303 	bic.w	r3, r3, #3
    3dc0:	3304      	adds	r3, #4
    3dc2:	4418      	add	r0, r3
    3dc4:	4584      	cmp	ip, r0
    3dc6:	d904      	bls.n	3dd2 <__copybits+0x46>
    3dc8:	2300      	movs	r3, #0
    3dca:	f840 3b04 	str.w	r3, [r0], #4
    3dce:	4584      	cmp	ip, r0
    3dd0:	d8fb      	bhi.n	3dca <__copybits+0x3e>
    3dd2:	bd10      	pop	{r4, pc}
    3dd4:	4584      	cmp	ip, r0
    3dd6:	d905      	bls.n	3de4 <__copybits+0x58>
    3dd8:	2300      	movs	r3, #0
    3dda:	f840 3b04 	str.w	r3, [r0], #4
    3dde:	4584      	cmp	ip, r0
    3de0:	d8fb      	bhi.n	3dda <__copybits+0x4e>
    3de2:	4770      	bx	lr
    3de4:	4770      	bx	lr
    3de6:	bf00      	nop

00003de8 <__any_on>:
    3de8:	6903      	ldr	r3, [r0, #16]
    3dea:	114a      	asrs	r2, r1, #5
    3dec:	4293      	cmp	r3, r2
    3dee:	f100 0014 	add.w	r0, r0, #20
    3df2:	da09      	bge.n	3e08 <__any_on+0x20>
    3df4:	eb00 0383 	add.w	r3, r0, r3, lsl #2
    3df8:	e002      	b.n	3e00 <__any_on+0x18>
    3dfa:	f853 2d04 	ldr.w	r2, [r3, #-4]!
    3dfe:	b9aa      	cbnz	r2, 3e2c <__any_on+0x44>
    3e00:	4283      	cmp	r3, r0
    3e02:	d8fa      	bhi.n	3dfa <__any_on+0x12>
    3e04:	2000      	movs	r0, #0
    3e06:	4770      	bx	lr
    3e08:	eb00 0382 	add.w	r3, r0, r2, lsl #2
    3e0c:	ddf8      	ble.n	3e00 <__any_on+0x18>
    3e0e:	f011 011f 	ands.w	r1, r1, #31
    3e12:	d0f5      	beq.n	3e00 <__any_on+0x18>
    3e14:	b410      	push	{r4}
    3e16:	f850 4022 	ldr.w	r4, [r0, r2, lsl #2]
    3e1a:	fa24 f201 	lsr.w	r2, r4, r1
    3e1e:	408a      	lsls	r2, r1
    3e20:	4294      	cmp	r4, r2
    3e22:	d009      	beq.n	3e38 <__any_on+0x50>
    3e24:	2001      	movs	r0, #1
    3e26:	f85d 4b04 	ldr.w	r4, [sp], #4
    3e2a:	4770      	bx	lr
    3e2c:	2001      	movs	r0, #1
    3e2e:	4770      	bx	lr
    3e30:	f853 2d04 	ldr.w	r2, [r3, #-4]!
    3e34:	2a00      	cmp	r2, #0
    3e36:	d1f5      	bne.n	3e24 <__any_on+0x3c>
    3e38:	4283      	cmp	r3, r0
    3e3a:	d8f9      	bhi.n	3e30 <__any_on+0x48>
    3e3c:	2000      	movs	r0, #0
    3e3e:	f85d 4b04 	ldr.w	r4, [sp], #4
    3e42:	4770      	bx	lr

00003e44 <_fwalk_sglue>:
    3e44:	e92d 43f8 	stmdb	sp!, {r3, r4, r5, r6, r7, r8, r9, lr}
    3e48:	4607      	mov	r7, r0
    3e4a:	4688      	mov	r8, r1
    3e4c:	4616      	mov	r6, r2
    3e4e:	f04f 0900 	mov.w	r9, #0
    3e52:	e9d6 5401 	ldrd	r5, r4, [r6, #4]
    3e56:	3d01      	subs	r5, #1
    3e58:	d410      	bmi.n	3e7c <_fwalk_sglue+0x38>
    3e5a:	89a3      	ldrh	r3, [r4, #12]
    3e5c:	2b01      	cmp	r3, #1
    3e5e:	d908      	bls.n	3e72 <_fwalk_sglue+0x2e>
    3e60:	f9b4 300e 	ldrsh.w	r3, [r4, #14]
    3e64:	3301      	adds	r3, #1
    3e66:	4621      	mov	r1, r4
    3e68:	4638      	mov	r0, r7
    3e6a:	d002      	beq.n	3e72 <_fwalk_sglue+0x2e>
    3e6c:	47c0      	blx	r8
    3e6e:	ea49 0900 	orr.w	r9, r9, r0
    3e72:	3d01      	subs	r5, #1
    3e74:	1c6b      	adds	r3, r5, #1
    3e76:	f104 0468 	add.w	r4, r4, #104	@ 0x68
    3e7a:	d1ee      	bne.n	3e5a <_fwalk_sglue+0x16>
    3e7c:	6836      	ldr	r6, [r6, #0]
    3e7e:	2e00      	cmp	r6, #0
    3e80:	d1e7      	bne.n	3e52 <_fwalk_sglue+0xe>
    3e82:	4648      	mov	r0, r9
    3e84:	e8bd 83f8 	ldmia.w	sp!, {r3, r4, r5, r6, r7, r8, r9, pc}

00003e88 <__localeconv_l>:
    3e88:	30f0      	adds	r0, #240	@ 0xf0
    3e8a:	4770      	bx	lr

00003e8c <_localeconv_r>:
    3e8c:	4800      	ldr	r0, [pc, #0]	@ (3e90 <_localeconv_r+0x4>)
    3e8e:	4770      	bx	lr
    3e90:	20000634 	.word	0x20000634

00003e94 <localeconv>:
    3e94:	4800      	ldr	r0, [pc, #0]	@ (3e98 <localeconv+0x4>)
    3e96:	4770      	bx	lr
    3e98:	20000634 	.word	0x20000634
    3e9c:	00000000 	.word	0x00000000

00003ea0 <memchr>:
    3ea0:	f001 01ff 	and.w	r1, r1, #255	@ 0xff
    3ea4:	2a10      	cmp	r2, #16
    3ea6:	db2b      	blt.n	3f00 <memchr+0x60>
    3ea8:	f010 0f07 	tst.w	r0, #7
    3eac:	d008      	beq.n	3ec0 <memchr+0x20>
    3eae:	f810 3b01 	ldrb.w	r3, [r0], #1
    3eb2:	3a01      	subs	r2, #1
    3eb4:	428b      	cmp	r3, r1
    3eb6:	d02d      	beq.n	3f14 <memchr+0x74>
    3eb8:	f010 0f07 	tst.w	r0, #7
    3ebc:	b342      	cbz	r2, 3f10 <memchr+0x70>
    3ebe:	d1f6      	bne.n	3eae <memchr+0xe>
    3ec0:	b4f0      	push	{r4, r5, r6, r7}
    3ec2:	ea41 2101 	orr.w	r1, r1, r1, lsl #8
    3ec6:	ea41 4101 	orr.w	r1, r1, r1, lsl #16
    3eca:	f022 0407 	bic.w	r4, r2, #7
    3ece:	f07f 0700 	mvns.w	r7, #0
    3ed2:	2300      	movs	r3, #0
    3ed4:	e8f0 5602 	ldrd	r5, r6, [r0], #8
    3ed8:	3c08      	subs	r4, #8
    3eda:	ea85 0501 	eor.w	r5, r5, r1
    3ede:	ea86 0601 	eor.w	r6, r6, r1
    3ee2:	fa85 f547 	uadd8	r5, r5, r7
    3ee6:	faa3 f587 	sel	r5, r3, r7
    3eea:	fa86 f647 	uadd8	r6, r6, r7
    3eee:	faa5 f687 	sel	r6, r5, r7
    3ef2:	b98e      	cbnz	r6, 3f18 <memchr+0x78>
    3ef4:	d1ee      	bne.n	3ed4 <memchr+0x34>
    3ef6:	bcf0      	pop	{r4, r5, r6, r7}
    3ef8:	f001 01ff 	and.w	r1, r1, #255	@ 0xff
    3efc:	f002 0207 	and.w	r2, r2, #7
    3f00:	b132      	cbz	r2, 3f10 <memchr+0x70>
    3f02:	f810 3b01 	ldrb.w	r3, [r0], #1
    3f06:	3a01      	subs	r2, #1
    3f08:	ea83 0301 	eor.w	r3, r3, r1
    3f0c:	b113      	cbz	r3, 3f14 <memchr+0x74>
    3f0e:	d1f8      	bne.n	3f02 <memchr+0x62>
    3f10:	2000      	movs	r0, #0
    3f12:	4770      	bx	lr
    3f14:	3801      	subs	r0, #1
    3f16:	4770      	bx	lr
    3f18:	2d00      	cmp	r5, #0
    3f1a:	bf06      	itte	eq
    3f1c:	4635      	moveq	r5, r6
    3f1e:	3803      	subeq	r0, #3
    3f20:	3807      	subne	r0, #7
    3f22:	f015 0f01 	tst.w	r5, #1
    3f26:	d107      	bne.n	3f38 <memchr+0x98>
    3f28:	3001      	adds	r0, #1
    3f2a:	f415 7f80 	tst.w	r5, #256	@ 0x100
    3f2e:	bf02      	ittt	eq
    3f30:	3001      	addeq	r0, #1
    3f32:	f415 3fc0 	tsteq.w	r5, #98304	@ 0x18000
    3f36:	3001      	addeq	r0, #1
    3f38:	bcf0      	pop	{r4, r5, r6, r7}
    3f3a:	3801      	subs	r0, #1
    3f3c:	4770      	bx	lr
    3f3e:	bf00      	nop

00003f40 <_mbtowc_r>:
    3f40:	b410      	push	{r4}
    3f42:	4c03      	ldr	r4, [pc, #12]	@ (3f50 <_mbtowc_r+0x10>)
    3f44:	f8d4 40e4 	ldr.w	r4, [r4, #228]	@ 0xe4
    3f48:	46a4      	mov	ip, r4
    3f4a:	f85d 4b04 	ldr.w	r4, [sp], #4
    3f4e:	4760      	bx	ip
    3f50:	20000544 	.word	0x20000544

00003f54 <__ascii_mbtowc>:
    3f54:	b082      	sub	sp, #8
    3f56:	b149      	cbz	r1, 3f6c <__ascii_mbtowc+0x18>
    3f58:	b15a      	cbz	r2, 3f72 <__ascii_mbtowc+0x1e>
    3f5a:	b16b      	cbz	r3, 3f78 <__ascii_mbtowc+0x24>
    3f5c:	7813      	ldrb	r3, [r2, #0]
    3f5e:	600b      	str	r3, [r1, #0]
    3f60:	7812      	ldrb	r2, [r2, #0]
    3f62:	1e10      	subs	r0, r2, #0
    3f64:	bf18      	it	ne
    3f66:	2001      	movne	r0, #1
    3f68:	b002      	add	sp, #8
    3f6a:	4770      	bx	lr
    3f6c:	a901      	add	r1, sp, #4
    3f6e:	2a00      	cmp	r2, #0
    3f70:	d1f3      	bne.n	3f5a <__ascii_mbtowc+0x6>
    3f72:	4610      	mov	r0, r2
    3f74:	b002      	add	sp, #8
    3f76:	4770      	bx	lr
    3f78:	f06f 0001 	mvn.w	r0, #1
    3f7c:	e7f4      	b.n	3f68 <__ascii_mbtowc+0x14>
    3f7e:	bf00      	nop

00003f80 <abort>:
    3f80:	b508      	push	{r3, lr}
    3f82:	2006      	movs	r0, #6
    3f84:	f000 fbcc 	bl	4720 <raise>
    3f88:	2001      	movs	r0, #1
    3f8a:	f002 fe4b 	bl	6c24 <_exit>
    3f8e:	bf00      	nop

00003f90 <_calloc_r>:
    3f90:	b538      	push	{r3, r4, r5, lr}
    3f92:	fba1 1402 	umull	r1, r4, r1, r2
    3f96:	bb54      	cbnz	r4, 3fee <_calloc_r+0x5e>
    3f98:	f7fd fb7c 	bl	1694 <_malloc_r>
    3f9c:	4605      	mov	r5, r0
    3f9e:	b350      	cbz	r0, 3ff6 <_calloc_r+0x66>
    3fa0:	f850 2c04 	ldr.w	r2, [r0, #-4]
    3fa4:	f022 0203 	bic.w	r2, r2, #3
    3fa8:	3a04      	subs	r2, #4
    3faa:	2a24      	cmp	r2, #36	@ 0x24
    3fac:	d810      	bhi.n	3fd0 <_calloc_r+0x40>
    3fae:	2a13      	cmp	r2, #19
    3fb0:	d913      	bls.n	3fda <_calloc_r+0x4a>
    3fb2:	2a1b      	cmp	r2, #27
    3fb4:	e9c0 4400 	strd	r4, r4, [r0]
    3fb8:	d916      	bls.n	3fe8 <_calloc_r+0x58>
    3fba:	2a24      	cmp	r2, #36	@ 0x24
    3fbc:	e9c0 4402 	strd	r4, r4, [r0, #8]
    3fc0:	bf0a      	itet	eq
    3fc2:	e9c0 4404 	strdeq	r4, r4, [r0, #16]
    3fc6:	f100 0210 	addne.w	r2, r0, #16
    3fca:	f100 0218 	addeq.w	r2, r0, #24
    3fce:	e005      	b.n	3fdc <_calloc_r+0x4c>
    3fd0:	4621      	mov	r1, r4
    3fd2:	f7ff f963 	bl	329c <memset>
    3fd6:	4628      	mov	r0, r5
    3fd8:	bd38      	pop	{r3, r4, r5, pc}
    3fda:	4602      	mov	r2, r0
    3fdc:	2300      	movs	r3, #0
    3fde:	e9c2 3300 	strd	r3, r3, [r2]
    3fe2:	6093      	str	r3, [r2, #8]
    3fe4:	4628      	mov	r0, r5
    3fe6:	bd38      	pop	{r3, r4, r5, pc}
    3fe8:	f100 0208 	add.w	r2, r0, #8
    3fec:	e7f6      	b.n	3fdc <_calloc_r+0x4c>
    3fee:	f7fd fb4b 	bl	1688 <__errno>
    3ff2:	230c      	movs	r3, #12
    3ff4:	6003      	str	r3, [r0, #0]
    3ff6:	2500      	movs	r5, #0
    3ff8:	4628      	mov	r0, r5
    3ffa:	bd38      	pop	{r3, r4, r5, pc}

00003ffc <__ssputs_r>:
    3ffc:	e92d 47f0 	stmdb	sp!, {r4, r5, r6, r7, r8, r9, sl, lr}
    4000:	688f      	ldr	r7, [r1, #8]
    4002:	461d      	mov	r5, r3
    4004:	42af      	cmp	r7, r5
    4006:	680b      	ldr	r3, [r1, #0]
    4008:	460c      	mov	r4, r1
    400a:	4616      	mov	r6, r2
    400c:	d836      	bhi.n	407c <__stack_size+0x7c>
    400e:	f9b1 c00c 	ldrsh.w	ip, [r1, #12]
    4012:	f41c 6f90 	tst.w	ip, #1152	@ 0x480
    4016:	d10e      	bne.n	4036 <__stack_size+0x36>
    4018:	463d      	mov	r5, r7
    401a:	4618      	mov	r0, r3
    401c:	4631      	mov	r1, r6
    401e:	462a      	mov	r2, r5
    4020:	f000 fd10 	bl	4a44 <memmove>
    4024:	68a3      	ldr	r3, [r4, #8]
    4026:	1bdf      	subs	r7, r3, r7
    4028:	6823      	ldr	r3, [r4, #0]
    402a:	60a7      	str	r7, [r4, #8]
    402c:	442b      	add	r3, r5
    402e:	2000      	movs	r0, #0
    4030:	6023      	str	r3, [r4, #0]
    4032:	e8bd 87f0 	ldmia.w	sp!, {r4, r5, r6, r7, r8, r9, sl, pc}
    4036:	694a      	ldr	r2, [r1, #20]
    4038:	6909      	ldr	r1, [r1, #16]
    403a:	eb02 0242 	add.w	r2, r2, r2, lsl #1
    403e:	1a5f      	subs	r7, r3, r1
    4040:	eb02 72d2 	add.w	r2, r2, r2, lsr #31
    4044:	1c6b      	adds	r3, r5, #1
    4046:	1052      	asrs	r2, r2, #1
    4048:	443b      	add	r3, r7
    404a:	4293      	cmp	r3, r2
    404c:	bf92      	itee	ls
    404e:	4691      	movls	r9, r2
    4050:	4699      	movhi	r9, r3
    4052:	461a      	movhi	r2, r3
    4054:	f41c 6f80 	tst.w	ip, #1024	@ 0x400
    4058:	4680      	mov	r8, r0
    405a:	d011      	beq.n	4080 <__stack_size+0x80>
    405c:	4611      	mov	r1, r2
    405e:	f7fd fb19 	bl	1694 <_malloc_r>
    4062:	4682      	mov	sl, r0
    4064:	b300      	cbz	r0, 40a8 <__stack_size+0xa8>
    4066:	6921      	ldr	r1, [r4, #16]
    4068:	463a      	mov	r2, r7
    406a:	f7fe ff1b 	bl	2ea4 <memcpy>
    406e:	89a3      	ldrh	r3, [r4, #12]
    4070:	f423 6390 	bic.w	r3, r3, #1152	@ 0x480
    4074:	f043 0380 	orr.w	r3, r3, #128	@ 0x80
    4078:	81a3      	strh	r3, [r4, #12]
    407a:	e005      	b.n	4088 <__stack_size+0x88>
    407c:	462f      	mov	r7, r5
    407e:	e7cc      	b.n	401a <__stack_size+0x1a>
    4080:	f000 f8e8 	bl	4254 <_realloc_r>
    4084:	4682      	mov	sl, r0
    4086:	b158      	cbz	r0, 40a0 <__stack_size+0xa0>
    4088:	eb0a 0307 	add.w	r3, sl, r7
    408c:	eba9 0707 	sub.w	r7, r9, r7
    4090:	60a7      	str	r7, [r4, #8]
    4092:	f8c4 a010 	str.w	sl, [r4, #16]
    4096:	f8c4 9014 	str.w	r9, [r4, #20]
    409a:	6023      	str	r3, [r4, #0]
    409c:	462f      	mov	r7, r5
    409e:	e7bc      	b.n	401a <__stack_size+0x1a>
    40a0:	6921      	ldr	r1, [r4, #16]
    40a2:	4640      	mov	r0, r8
    40a4:	f7fe fdd4 	bl	2c50 <_free_r>
    40a8:	89a3      	ldrh	r3, [r4, #12]
    40aa:	220c      	movs	r2, #12
    40ac:	f043 0340 	orr.w	r3, r3, #64	@ 0x40
    40b0:	f8c8 2000 	str.w	r2, [r8]
    40b4:	f04f 30ff 	mov.w	r0, #4294967295	@ 0xffffffff
    40b8:	81a3      	strh	r3, [r4, #12]
    40ba:	e7ba      	b.n	4032 <__stack_size+0x32>

000040bc <_fiprintf_r>:
    40bc:	b40c      	push	{r2, r3}
    40be:	b500      	push	{lr}
    40c0:	b083      	sub	sp, #12
    40c2:	ab04      	add	r3, sp, #16
    40c4:	f853 2b04 	ldr.w	r2, [r3], #4
    40c8:	9301      	str	r3, [sp, #4]
    40ca:	f000 fd3b 	bl	4b44 <_vfiprintf_r>
    40ce:	b003      	add	sp, #12
    40d0:	f85d eb04 	ldr.w	lr, [sp], #4
    40d4:	b002      	add	sp, #8
    40d6:	4770      	bx	lr

000040d8 <fiprintf>:
    40d8:	b40e      	push	{r1, r2, r3}
    40da:	b510      	push	{r4, lr}
    40dc:	b083      	sub	sp, #12
    40de:	ab05      	add	r3, sp, #20
    40e0:	4c06      	ldr	r4, [pc, #24]	@ (40fc <fiprintf+0x24>)
    40e2:	f853 2b04 	ldr.w	r2, [r3], #4
    40e6:	9301      	str	r3, [sp, #4]
    40e8:	4601      	mov	r1, r0
    40ea:	6820      	ldr	r0, [r4, #0]
    40ec:	f000 fd2a 	bl	4b44 <_vfiprintf_r>
    40f0:	b003      	add	sp, #12
    40f2:	e8bd 4010 	ldmia.w	sp!, {r4, lr}
    40f6:	b003      	add	sp, #12
    40f8:	4770      	bx	lr
    40fa:	bf00      	nop
    40fc:	20000000 	.word	0x20000000

00004100 <_fclose_r>:
    4100:	b570      	push	{r4, r5, r6, lr}
    4102:	b139      	cbz	r1, 4114 <_fclose_r+0x14>
    4104:	4606      	mov	r6, r0
    4106:	460c      	mov	r4, r1
    4108:	b108      	cbz	r0, 410e <_fclose_r+0xe>
    410a:	6b43      	ldr	r3, [r0, #52]	@ 0x34
    410c:	b383      	cbz	r3, 4170 <_fclose_r+0x70>
    410e:	f9b4 300c 	ldrsh.w	r3, [r4, #12]
    4112:	b913      	cbnz	r3, 411a <_fclose_r+0x1a>
    4114:	2500      	movs	r5, #0
    4116:	4628      	mov	r0, r5
    4118:	bd70      	pop	{r4, r5, r6, pc}
    411a:	4621      	mov	r1, r4
    411c:	4630      	mov	r0, r6
    411e:	f000 fbbb 	bl	4898 <__sflush_r>
    4122:	6ae3      	ldr	r3, [r4, #44]	@ 0x2c
    4124:	4605      	mov	r5, r0
    4126:	b133      	cbz	r3, 4136 <_fclose_r+0x36>
    4128:	69e1      	ldr	r1, [r4, #28]
    412a:	4630      	mov	r0, r6
    412c:	4798      	blx	r3
    412e:	2800      	cmp	r0, #0
    4130:	bfb8      	it	lt
    4132:	f04f 35ff 	movlt.w	r5, #4294967295	@ 0xffffffff
    4136:	89a3      	ldrh	r3, [r4, #12]
    4138:	061b      	lsls	r3, r3, #24
    413a:	d41c      	bmi.n	4176 <_fclose_r+0x76>
    413c:	6b21      	ldr	r1, [r4, #48]	@ 0x30
    413e:	b141      	cbz	r1, 4152 <_fclose_r+0x52>
    4140:	f104 0340 	add.w	r3, r4, #64	@ 0x40
    4144:	4299      	cmp	r1, r3
    4146:	d002      	beq.n	414e <_fclose_r+0x4e>
    4148:	4630      	mov	r0, r6
    414a:	f7fe fd81 	bl	2c50 <_free_r>
    414e:	2300      	movs	r3, #0
    4150:	6323      	str	r3, [r4, #48]	@ 0x30
    4152:	6c61      	ldr	r1, [r4, #68]	@ 0x44
    4154:	b121      	cbz	r1, 4160 <_fclose_r+0x60>
    4156:	4630      	mov	r0, r6
    4158:	f7fe fd7a 	bl	2c50 <_free_r>
    415c:	2300      	movs	r3, #0
    415e:	6463      	str	r3, [r4, #68]	@ 0x44
    4160:	f7ff f846 	bl	31f0 <__sfp_lock_acquire>
    4164:	2300      	movs	r3, #0
    4166:	81a3      	strh	r3, [r4, #12]
    4168:	f7ff f844 	bl	31f4 <__sfp_lock_release>
    416c:	4628      	mov	r0, r5
    416e:	bd70      	pop	{r4, r5, r6, pc}
    4170:	f7ff f82e 	bl	31d0 <__sinit>
    4174:	e7cb      	b.n	410e <_fclose_r+0xe>
    4176:	6921      	ldr	r1, [r4, #16]
    4178:	4630      	mov	r0, r6
    417a:	f7fe fd69 	bl	2c50 <_free_r>
    417e:	e7dd      	b.n	413c <_fclose_r+0x3c>

00004180 <fclose>:
    4180:	4b02      	ldr	r3, [pc, #8]	@ (418c <fclose+0xc>)
    4182:	4601      	mov	r1, r0
    4184:	6818      	ldr	r0, [r3, #0]
    4186:	f7ff bfbb 	b.w	4100 <_fclose_r>
    418a:	bf00      	nop
    418c:	20000000 	.word	0x20000000

00004190 <_wctomb_r>:
    4190:	b410      	push	{r4}
    4192:	4c03      	ldr	r4, [pc, #12]	@ (41a0 <_wctomb_r+0x10>)
    4194:	f8d4 40e0 	ldr.w	r4, [r4, #224]	@ 0xe0
    4198:	46a4      	mov	ip, r4
    419a:	f85d 4b04 	ldr.w	r4, [sp], #4
    419e:	4760      	bx	ip
    41a0:	20000544 	.word	0x20000544

000041a4 <__ascii_wctomb>:
    41a4:	b149      	cbz	r1, 41ba <__ascii_wctomb+0x16>
    41a6:	2aff      	cmp	r2, #255	@ 0xff
    41a8:	d802      	bhi.n	41b0 <__ascii_wctomb+0xc>
    41aa:	700a      	strb	r2, [r1, #0]
    41ac:	2001      	movs	r0, #1
    41ae:	4770      	bx	lr
    41b0:	238a      	movs	r3, #138	@ 0x8a
    41b2:	6003      	str	r3, [r0, #0]
    41b4:	f04f 30ff 	mov.w	r0, #4294967295	@ 0xffffffff
    41b8:	4770      	bx	lr
    41ba:	4608      	mov	r0, r1
    41bc:	4770      	bx	lr
    41be:	bf00      	nop

000041c0 <__sread>:
    41c0:	b510      	push	{r4, lr}
    41c2:	460c      	mov	r4, r1
    41c4:	f9b1 100e 	ldrsh.w	r1, [r1, #14]
    41c8:	f001 fa5e 	bl	5688 <_read_r>
    41cc:	2800      	cmp	r0, #0
    41ce:	db03      	blt.n	41d8 <__sread+0x18>
    41d0:	6d23      	ldr	r3, [r4, #80]	@ 0x50
    41d2:	4403      	add	r3, r0
    41d4:	6523      	str	r3, [r4, #80]	@ 0x50
    41d6:	bd10      	pop	{r4, pc}
    41d8:	89a3      	ldrh	r3, [r4, #12]
    41da:	f423 5380 	bic.w	r3, r3, #4096	@ 0x1000
    41de:	81a3      	strh	r3, [r4, #12]
    41e0:	bd10      	pop	{r4, pc}
    41e2:	bf00      	nop

000041e4 <__seofread>:
    41e4:	2000      	movs	r0, #0
    41e6:	4770      	bx	lr

000041e8 <__swrite>:
    41e8:	e92d 41f0 	stmdb	sp!, {r4, r5, r6, r7, r8, lr}
    41ec:	460c      	mov	r4, r1
    41ee:	f9b1 100c 	ldrsh.w	r1, [r1, #12]
    41f2:	461f      	mov	r7, r3
    41f4:	05cb      	lsls	r3, r1, #23
    41f6:	4605      	mov	r5, r0
    41f8:	4616      	mov	r6, r2
    41fa:	d40b      	bmi.n	4214 <__swrite+0x2c>
    41fc:	f421 5180 	bic.w	r1, r1, #4096	@ 0x1000
    4200:	81a1      	strh	r1, [r4, #12]
    4202:	463b      	mov	r3, r7
    4204:	f9b4 100e 	ldrsh.w	r1, [r4, #14]
    4208:	4632      	mov	r2, r6
    420a:	4628      	mov	r0, r5
    420c:	e8bd 41f0 	ldmia.w	sp!, {r4, r5, r6, r7, r8, lr}
    4210:	f000 b9c2 	b.w	4598 <_write_r>
    4214:	f9b4 100e 	ldrsh.w	r1, [r4, #14]
    4218:	2302      	movs	r3, #2
    421a:	2200      	movs	r2, #0
    421c:	f001 faac 	bl	5778 <_lseek_r>
    4220:	f9b4 100c 	ldrsh.w	r1, [r4, #12]
    4224:	e7ea      	b.n	41fc <__swrite+0x14>
    4226:	bf00      	nop

00004228 <__sseek>:
    4228:	b510      	push	{r4, lr}
    422a:	460c      	mov	r4, r1
    422c:	f9b1 100e 	ldrsh.w	r1, [r1, #14]
    4230:	f001 faa2 	bl	5778 <_lseek_r>
    4234:	f9b4 300c 	ldrsh.w	r3, [r4, #12]
    4238:	1c42      	adds	r2, r0, #1
    423a:	bf0e      	itee	eq
    423c:	f423 5380 	biceq.w	r3, r3, #4096	@ 0x1000
    4240:	f443 5380 	orrne.w	r3, r3, #4096	@ 0x1000
    4244:	6520      	strne	r0, [r4, #80]	@ 0x50
    4246:	81a3      	strh	r3, [r4, #12]
    4248:	bd10      	pop	{r4, pc}
    424a:	bf00      	nop

0000424c <__sclose>:
    424c:	f9b1 100e 	ldrsh.w	r1, [r1, #14]
    4250:	f000 b9b8 	b.w	45c4 <_close_r>

00004254 <_realloc_r>:
    4254:	e92d 4ff8 	stmdb	sp!, {r3, r4, r5, r6, r7, r8, r9, sl, fp, lr}
    4258:	4616      	mov	r6, r2
    425a:	2900      	cmp	r1, #0
    425c:	f000 8096 	beq.w	438c <_realloc_r+0x138>
    4260:	460c      	mov	r4, r1
    4262:	4680      	mov	r8, r0
    4264:	f106 050b 	add.w	r5, r6, #11
    4268:	f7fe fec4 	bl	2ff4 <__malloc_lock>
    426c:	f854 1c04 	ldr.w	r1, [r4, #-4]
    4270:	2d16      	cmp	r5, #22
    4272:	f1a4 0908 	sub.w	r9, r4, #8
    4276:	f021 0703 	bic.w	r7, r1, #3
    427a:	d858      	bhi.n	432e <_realloc_r+0xda>
    427c:	2510      	movs	r5, #16
    427e:	42ae      	cmp	r6, r5
    4280:	d858      	bhi.n	4334 <_realloc_r+0xe0>
    4282:	42af      	cmp	r7, r5
    4284:	da60      	bge.n	4348 <_realloc_r+0xf4>
    4286:	4bbe      	ldr	r3, [pc, #760]	@ (4580 <_realloc_r+0x32c>)
    4288:	689a      	ldr	r2, [r3, #8]
    428a:	eb09 0c07 	add.w	ip, r9, r7
    428e:	4562      	cmp	r2, ip
    4290:	f8dc 0004 	ldr.w	r0, [ip, #4]
    4294:	f000 8090 	beq.w	43b8 <_realloc_r+0x164>
    4298:	f020 0301 	bic.w	r3, r0, #1
    429c:	4463      	add	r3, ip
    429e:	685b      	ldr	r3, [r3, #4]
    42a0:	07db      	lsls	r3, r3, #31
    42a2:	d468      	bmi.n	4376 <_realloc_r+0x122>
    42a4:	f020 0003 	bic.w	r0, r0, #3
    42a8:	183b      	adds	r3, r7, r0
    42aa:	429d      	cmp	r5, r3
    42ac:	dd47      	ble.n	433e <_realloc_r+0xea>
    42ae:	07cb      	lsls	r3, r1, #31
    42b0:	d412      	bmi.n	42d8 <_realloc_r+0x84>
    42b2:	f854 3c08 	ldr.w	r3, [r4, #-8]
    42b6:	eba9 0b03 	sub.w	fp, r9, r3
    42ba:	f8db 3004 	ldr.w	r3, [fp, #4]
    42be:	f023 0203 	bic.w	r2, r3, #3
    42c2:	4410      	add	r0, r2
    42c4:	eb00 0a07 	add.w	sl, r0, r7
    42c8:	4555      	cmp	r5, sl
    42ca:	f340 80f6 	ble.w	44ba <_realloc_r+0x266>
    42ce:	eb07 0a02 	add.w	sl, r7, r2
    42d2:	4555      	cmp	r5, sl
    42d4:	f340 80cc 	ble.w	4470 <_realloc_r+0x21c>
    42d8:	4631      	mov	r1, r6
    42da:	4640      	mov	r0, r8
    42dc:	f7fd f9da 	bl	1694 <_malloc_r>
    42e0:	4606      	mov	r6, r0
    42e2:	2800      	cmp	r0, #0
    42e4:	f000 8120 	beq.w	4528 <_realloc_r+0x2d4>
    42e8:	f854 3c04 	ldr.w	r3, [r4, #-4]
    42ec:	f023 0301 	bic.w	r3, r3, #1
    42f0:	444b      	add	r3, r9
    42f2:	f1a0 0208 	sub.w	r2, r0, #8
    42f6:	4293      	cmp	r3, r2
    42f8:	f000 80b4 	beq.w	4464 <_realloc_r+0x210>
    42fc:	1f3a      	subs	r2, r7, #4
    42fe:	2a24      	cmp	r2, #36	@ 0x24
    4300:	f200 80d7 	bhi.w	44b2 <_realloc_r+0x25e>
    4304:	2a13      	cmp	r2, #19
    4306:	f200 80a2 	bhi.w	444e <_realloc_r+0x1fa>
    430a:	4603      	mov	r3, r0
    430c:	4622      	mov	r2, r4
    430e:	6811      	ldr	r1, [r2, #0]
    4310:	6019      	str	r1, [r3, #0]
    4312:	6851      	ldr	r1, [r2, #4]
    4314:	6059      	str	r1, [r3, #4]
    4316:	6892      	ldr	r2, [r2, #8]
    4318:	609a      	str	r2, [r3, #8]
    431a:	4621      	mov	r1, r4
    431c:	4640      	mov	r0, r8
    431e:	f7fe fc97 	bl	2c50 <_free_r>
    4322:	4640      	mov	r0, r8
    4324:	f7fe fe68 	bl	2ff8 <__malloc_unlock>
    4328:	4630      	mov	r0, r6
    432a:	e8bd 8ff8 	ldmia.w	sp!, {r3, r4, r5, r6, r7, r8, r9, sl, fp, pc}
    432e:	f035 0507 	bics.w	r5, r5, #7
    4332:	d5a4      	bpl.n	427e <_realloc_r+0x2a>
    4334:	230c      	movs	r3, #12
    4336:	f8c8 3000 	str.w	r3, [r8]
    433a:	2600      	movs	r6, #0
    433c:	e018      	b.n	4370 <_realloc_r+0x11c>
    433e:	461f      	mov	r7, r3
    4340:	e9dc 2302 	ldrd	r2, r3, [ip, #8]
    4344:	60d3      	str	r3, [r2, #12]
    4346:	609a      	str	r2, [r3, #8]
    4348:	f8d9 3004 	ldr.w	r3, [r9, #4]
    434c:	1b7a      	subs	r2, r7, r5
    434e:	2a0f      	cmp	r2, #15
    4350:	f003 0301 	and.w	r3, r3, #1
    4354:	eb09 0007 	add.w	r0, r9, r7
    4358:	d81d      	bhi.n	4396 <_realloc_r+0x142>
    435a:	433b      	orrs	r3, r7
    435c:	f8c9 3004 	str.w	r3, [r9, #4]
    4360:	6843      	ldr	r3, [r0, #4]
    4362:	f043 0301 	orr.w	r3, r3, #1
    4366:	6043      	str	r3, [r0, #4]
    4368:	4640      	mov	r0, r8
    436a:	f7fe fe45 	bl	2ff8 <__malloc_unlock>
    436e:	4626      	mov	r6, r4
    4370:	4630      	mov	r0, r6
    4372:	e8bd 8ff8 	ldmia.w	sp!, {r3, r4, r5, r6, r7, r8, r9, sl, fp, pc}
    4376:	07c9      	lsls	r1, r1, #31
    4378:	d4ae      	bmi.n	42d8 <_realloc_r+0x84>
    437a:	f854 3c08 	ldr.w	r3, [r4, #-8]
    437e:	eba9 0b03 	sub.w	fp, r9, r3
    4382:	f8db 3004 	ldr.w	r3, [fp, #4]
    4386:	f023 0203 	bic.w	r2, r3, #3
    438a:	e7a0      	b.n	42ce <_realloc_r+0x7a>
    438c:	e8bd 4ff8 	ldmia.w	sp!, {r3, r4, r5, r6, r7, r8, r9, sl, fp, lr}
    4390:	4611      	mov	r1, r2
    4392:	f7fd b97f 	b.w	1694 <_malloc_r>
    4396:	eb09 0105 	add.w	r1, r9, r5
    439a:	432b      	orrs	r3, r5
    439c:	f042 0201 	orr.w	r2, r2, #1
    43a0:	f8c9 3004 	str.w	r3, [r9, #4]
    43a4:	604a      	str	r2, [r1, #4]
    43a6:	6843      	ldr	r3, [r0, #4]
    43a8:	f043 0301 	orr.w	r3, r3, #1
    43ac:	6043      	str	r3, [r0, #4]
    43ae:	3108      	adds	r1, #8
    43b0:	4640      	mov	r0, r8
    43b2:	f7fe fc4d 	bl	2c50 <_free_r>
    43b6:	e7d7      	b.n	4368 <_realloc_r+0x114>
    43b8:	f020 0003 	bic.w	r0, r0, #3
    43bc:	19c2      	adds	r2, r0, r7
    43be:	f105 0c10 	add.w	ip, r5, #16
    43c2:	4562      	cmp	r2, ip
    43c4:	f280 8091 	bge.w	44ea <_realloc_r+0x296>
    43c8:	07ca      	lsls	r2, r1, #31
    43ca:	d485      	bmi.n	42d8 <_realloc_r+0x84>
    43cc:	f854 2c08 	ldr.w	r2, [r4, #-8]
    43d0:	eba9 0b02 	sub.w	fp, r9, r2
    43d4:	f8db 2004 	ldr.w	r2, [fp, #4]
    43d8:	f022 0203 	bic.w	r2, r2, #3
    43dc:	4410      	add	r0, r2
    43de:	eb00 0a07 	add.w	sl, r0, r7
    43e2:	45d4      	cmp	ip, sl
    43e4:	f73f af73 	bgt.w	42ce <_realloc_r+0x7a>
    43e8:	465e      	mov	r6, fp
    43ea:	f8db 100c 	ldr.w	r1, [fp, #12]
    43ee:	f856 0f08 	ldr.w	r0, [r6, #8]!
    43f2:	1f3a      	subs	r2, r7, #4
    43f4:	2a24      	cmp	r2, #36	@ 0x24
    43f6:	60c1      	str	r1, [r0, #12]
    43f8:	6088      	str	r0, [r1, #8]
    43fa:	f200 80ae 	bhi.w	455a <_realloc_r+0x306>
    43fe:	2a13      	cmp	r2, #19
    4400:	f240 80a9 	bls.w	4556 <_realloc_r+0x302>
    4404:	6821      	ldr	r1, [r4, #0]
    4406:	f8cb 1008 	str.w	r1, [fp, #8]
    440a:	6861      	ldr	r1, [r4, #4]
    440c:	f8cb 100c 	str.w	r1, [fp, #12]
    4410:	2a1b      	cmp	r2, #27
    4412:	f200 80a8 	bhi.w	4566 <_realloc_r+0x312>
    4416:	3408      	adds	r4, #8
    4418:	f10b 0210 	add.w	r2, fp, #16
    441c:	6821      	ldr	r1, [r4, #0]
    441e:	6011      	str	r1, [r2, #0]
    4420:	6861      	ldr	r1, [r4, #4]
    4422:	6051      	str	r1, [r2, #4]
    4424:	68a1      	ldr	r1, [r4, #8]
    4426:	6091      	str	r1, [r2, #8]
    4428:	eb0b 0105 	add.w	r1, fp, r5
    442c:	ebaa 0205 	sub.w	r2, sl, r5
    4430:	f042 0201 	orr.w	r2, r2, #1
    4434:	6099      	str	r1, [r3, #8]
    4436:	604a      	str	r2, [r1, #4]
    4438:	f8db 3004 	ldr.w	r3, [fp, #4]
    443c:	f003 0301 	and.w	r3, r3, #1
    4440:	432b      	orrs	r3, r5
    4442:	4640      	mov	r0, r8
    4444:	f8cb 3004 	str.w	r3, [fp, #4]
    4448:	f7fe fdd6 	bl	2ff8 <__malloc_unlock>
    444c:	e790      	b.n	4370 <_realloc_r+0x11c>
    444e:	6823      	ldr	r3, [r4, #0]
    4450:	6003      	str	r3, [r0, #0]
    4452:	6863      	ldr	r3, [r4, #4]
    4454:	6043      	str	r3, [r0, #4]
    4456:	2a1b      	cmp	r2, #27
    4458:	d83c      	bhi.n	44d4 <_realloc_r+0x280>
    445a:	f104 0208 	add.w	r2, r4, #8
    445e:	f100 0308 	add.w	r3, r0, #8
    4462:	e754      	b.n	430e <_realloc_r+0xba>
    4464:	f850 3c04 	ldr.w	r3, [r0, #-4]
    4468:	f023 0303 	bic.w	r3, r3, #3
    446c:	441f      	add	r7, r3
    446e:	e76b      	b.n	4348 <_realloc_r+0xf4>
    4470:	1f3a      	subs	r2, r7, #4
    4472:	465e      	mov	r6, fp
    4474:	f8db 300c 	ldr.w	r3, [fp, #12]
    4478:	f856 1f08 	ldr.w	r1, [r6, #8]!
    447c:	2a24      	cmp	r2, #36	@ 0x24
    447e:	60cb      	str	r3, [r1, #12]
    4480:	6099      	str	r1, [r3, #8]
    4482:	d822      	bhi.n	44ca <_realloc_r+0x276>
    4484:	2a13      	cmp	r2, #19
    4486:	d91e      	bls.n	44c6 <_realloc_r+0x272>
    4488:	6823      	ldr	r3, [r4, #0]
    448a:	f8cb 3008 	str.w	r3, [fp, #8]
    448e:	6863      	ldr	r3, [r4, #4]
    4490:	f8cb 300c 	str.w	r3, [fp, #12]
    4494:	2a1b      	cmp	r2, #27
    4496:	d83b      	bhi.n	4510 <_realloc_r+0x2bc>
    4498:	3408      	adds	r4, #8
    449a:	f10b 0310 	add.w	r3, fp, #16
    449e:	6822      	ldr	r2, [r4, #0]
    44a0:	601a      	str	r2, [r3, #0]
    44a2:	6862      	ldr	r2, [r4, #4]
    44a4:	605a      	str	r2, [r3, #4]
    44a6:	68a2      	ldr	r2, [r4, #8]
    44a8:	609a      	str	r2, [r3, #8]
    44aa:	4634      	mov	r4, r6
    44ac:	4657      	mov	r7, sl
    44ae:	46d9      	mov	r9, fp
    44b0:	e74a      	b.n	4348 <_realloc_r+0xf4>
    44b2:	4621      	mov	r1, r4
    44b4:	f000 fac6 	bl	4a44 <memmove>
    44b8:	e72f      	b.n	431a <_realloc_r+0xc6>
    44ba:	e9dc 1302 	ldrd	r1, r3, [ip, #8]
    44be:	1f3a      	subs	r2, r7, #4
    44c0:	60cb      	str	r3, [r1, #12]
    44c2:	6099      	str	r1, [r3, #8]
    44c4:	e7d5      	b.n	4472 <_realloc_r+0x21e>
    44c6:	4633      	mov	r3, r6
    44c8:	e7e9      	b.n	449e <_realloc_r+0x24a>
    44ca:	4621      	mov	r1, r4
    44cc:	4630      	mov	r0, r6
    44ce:	f000 fab9 	bl	4a44 <memmove>
    44d2:	e7ea      	b.n	44aa <_realloc_r+0x256>
    44d4:	68a3      	ldr	r3, [r4, #8]
    44d6:	6083      	str	r3, [r0, #8]
    44d8:	68e3      	ldr	r3, [r4, #12]
    44da:	60c3      	str	r3, [r0, #12]
    44dc:	2a24      	cmp	r2, #36	@ 0x24
    44de:	d027      	beq.n	4530 <_realloc_r+0x2dc>
    44e0:	f104 0210 	add.w	r2, r4, #16
    44e4:	f100 0310 	add.w	r3, r0, #16
    44e8:	e711      	b.n	430e <_realloc_r+0xba>
    44ea:	eb09 0105 	add.w	r1, r9, r5
    44ee:	6099      	str	r1, [r3, #8]
    44f0:	1b53      	subs	r3, r2, r5
    44f2:	f043 0301 	orr.w	r3, r3, #1
    44f6:	604b      	str	r3, [r1, #4]
    44f8:	f854 3c04 	ldr.w	r3, [r4, #-4]
    44fc:	f003 0301 	and.w	r3, r3, #1
    4500:	432b      	orrs	r3, r5
    4502:	4640      	mov	r0, r8
    4504:	f844 3c04 	str.w	r3, [r4, #-4]
    4508:	f7fe fd76 	bl	2ff8 <__malloc_unlock>
    450c:	4626      	mov	r6, r4
    450e:	e72f      	b.n	4370 <_realloc_r+0x11c>
    4510:	68a3      	ldr	r3, [r4, #8]
    4512:	f8cb 3010 	str.w	r3, [fp, #16]
    4516:	68e3      	ldr	r3, [r4, #12]
    4518:	f8cb 3014 	str.w	r3, [fp, #20]
    451c:	2a24      	cmp	r2, #36	@ 0x24
    451e:	d010      	beq.n	4542 <_realloc_r+0x2ee>
    4520:	3410      	adds	r4, #16
    4522:	f10b 0318 	add.w	r3, fp, #24
    4526:	e7ba      	b.n	449e <_realloc_r+0x24a>
    4528:	4640      	mov	r0, r8
    452a:	f7fe fd65 	bl	2ff8 <__malloc_unlock>
    452e:	e704      	b.n	433a <_realloc_r+0xe6>
    4530:	6923      	ldr	r3, [r4, #16]
    4532:	6103      	str	r3, [r0, #16]
    4534:	6961      	ldr	r1, [r4, #20]
    4536:	6141      	str	r1, [r0, #20]
    4538:	f104 0218 	add.w	r2, r4, #24
    453c:	f100 0318 	add.w	r3, r0, #24
    4540:	e6e5      	b.n	430e <_realloc_r+0xba>
    4542:	6923      	ldr	r3, [r4, #16]
    4544:	f8cb 3018 	str.w	r3, [fp, #24]
    4548:	6963      	ldr	r3, [r4, #20]
    454a:	f8cb 301c 	str.w	r3, [fp, #28]
    454e:	3418      	adds	r4, #24
    4550:	f10b 0320 	add.w	r3, fp, #32
    4554:	e7a3      	b.n	449e <_realloc_r+0x24a>
    4556:	4632      	mov	r2, r6
    4558:	e760      	b.n	441c <_realloc_r+0x1c8>
    455a:	4621      	mov	r1, r4
    455c:	4630      	mov	r0, r6
    455e:	f000 fa71 	bl	4a44 <memmove>
    4562:	4b07      	ldr	r3, [pc, #28]	@ (4580 <_realloc_r+0x32c>)
    4564:	e760      	b.n	4428 <_realloc_r+0x1d4>
    4566:	68a1      	ldr	r1, [r4, #8]
    4568:	f8cb 1010 	str.w	r1, [fp, #16]
    456c:	68e1      	ldr	r1, [r4, #12]
    456e:	f8cb 1014 	str.w	r1, [fp, #20]
    4572:	2a24      	cmp	r2, #36	@ 0x24
    4574:	d006      	beq.n	4584 <_realloc_r+0x330>
    4576:	3410      	adds	r4, #16
    4578:	f10b 0218 	add.w	r2, fp, #24
    457c:	e74e      	b.n	441c <_realloc_r+0x1c8>
    457e:	bf00      	nop
    4580:	20000128 	.word	0x20000128
    4584:	6922      	ldr	r2, [r4, #16]
    4586:	f8cb 2018 	str.w	r2, [fp, #24]
    458a:	6962      	ldr	r2, [r4, #20]
    458c:	f8cb 201c 	str.w	r2, [fp, #28]
    4590:	3418      	adds	r4, #24
    4592:	f10b 0220 	add.w	r2, fp, #32
    4596:	e741      	b.n	441c <_realloc_r+0x1c8>

00004598 <_write_r>:
    4598:	b538      	push	{r3, r4, r5, lr}
    459a:	460c      	mov	r4, r1
    459c:	4d08      	ldr	r5, [pc, #32]	@ (45c0 <_write_r+0x28>)
    459e:	4684      	mov	ip, r0
    45a0:	4611      	mov	r1, r2
    45a2:	4620      	mov	r0, r4
    45a4:	461a      	mov	r2, r3
    45a6:	2300      	movs	r3, #0
    45a8:	602b      	str	r3, [r5, #0]
    45aa:	4664      	mov	r4, ip
    45ac:	f002 fb10 	bl	6bd0 <_write>
    45b0:	1c43      	adds	r3, r0, #1
    45b2:	d000      	beq.n	45b6 <_write_r+0x1e>
    45b4:	bd38      	pop	{r3, r4, r5, pc}
    45b6:	682b      	ldr	r3, [r5, #0]
    45b8:	2b00      	cmp	r3, #0
    45ba:	d0fb      	beq.n	45b4 <_write_r+0x1c>
    45bc:	6023      	str	r3, [r4, #0]
    45be:	bd38      	pop	{r3, r4, r5, pc}
    45c0:	20000820 	.word	0x20000820

000045c4 <_close_r>:
    45c4:	b538      	push	{r3, r4, r5, lr}
    45c6:	4d07      	ldr	r5, [pc, #28]	@ (45e4 <_close_r+0x20>)
    45c8:	2200      	movs	r2, #0
    45ca:	4604      	mov	r4, r0
    45cc:	4608      	mov	r0, r1
    45ce:	602a      	str	r2, [r5, #0]
    45d0:	f002 fb1c 	bl	6c0c <_close>
    45d4:	1c43      	adds	r3, r0, #1
    45d6:	d000      	beq.n	45da <_close_r+0x16>
    45d8:	bd38      	pop	{r3, r4, r5, pc}
    45da:	682b      	ldr	r3, [r5, #0]
    45dc:	2b00      	cmp	r3, #0
    45de:	d0fb      	beq.n	45d8 <_close_r+0x14>
    45e0:	6023      	str	r3, [r4, #0]
    45e2:	bd38      	pop	{r3, r4, r5, pc}
    45e4:	20000820 	.word	0x20000820

000045e8 <_init_signal_r>:
    45e8:	b538      	push	{r3, r4, r5, lr}
    45ea:	f8d0 4118 	ldr.w	r4, [r0, #280]	@ 0x118
    45ee:	b10c      	cbz	r4, 45f4 <_init_signal_r+0xc>
    45f0:	2000      	movs	r0, #0
    45f2:	bd38      	pop	{r3, r4, r5, pc}
    45f4:	2180      	movs	r1, #128	@ 0x80
    45f6:	4605      	mov	r5, r0
    45f8:	f7fd f84c 	bl	1694 <_malloc_r>
    45fc:	4602      	mov	r2, r0
    45fe:	f8c5 0118 	str.w	r0, [r5, #280]	@ 0x118
    4602:	b130      	cbz	r0, 4612 <_init_signal_r+0x2a>
    4604:	1f03      	subs	r3, r0, #4
    4606:	327c      	adds	r2, #124	@ 0x7c
    4608:	f843 4f04 	str.w	r4, [r3, #4]!
    460c:	4293      	cmp	r3, r2
    460e:	d1fb      	bne.n	4608 <_init_signal_r+0x20>
    4610:	e7ee      	b.n	45f0 <_init_signal_r+0x8>
    4612:	f04f 30ff 	mov.w	r0, #4294967295	@ 0xffffffff
    4616:	bd38      	pop	{r3, r4, r5, pc}

00004618 <_signal_r>:
    4618:	b530      	push	{r4, r5, lr}
    461a:	291f      	cmp	r1, #31
    461c:	b083      	sub	sp, #12
    461e:	4605      	mov	r5, r0
    4620:	d809      	bhi.n	4636 <_signal_r+0x1e>
    4622:	f8d0 3118 	ldr.w	r3, [r0, #280]	@ 0x118
    4626:	460c      	mov	r4, r1
    4628:	b153      	cbz	r3, 4640 <_signal_r+0x28>
    462a:	f853 0024 	ldr.w	r0, [r3, r4, lsl #2]
    462e:	f843 2024 	str.w	r2, [r3, r4, lsl #2]
    4632:	b003      	add	sp, #12
    4634:	bd30      	pop	{r4, r5, pc}
    4636:	2316      	movs	r3, #22
    4638:	6003      	str	r3, [r0, #0]
    463a:	f04f 30ff 	mov.w	r0, #4294967295	@ 0xffffffff
    463e:	e7f8      	b.n	4632 <_signal_r+0x1a>
    4640:	2180      	movs	r1, #128	@ 0x80
    4642:	9201      	str	r2, [sp, #4]
    4644:	f7fd f826 	bl	1694 <_malloc_r>
    4648:	9a01      	ldr	r2, [sp, #4]
    464a:	f8c5 0118 	str.w	r0, [r5, #280]	@ 0x118
    464e:	4603      	mov	r3, r0
    4650:	2800      	cmp	r0, #0
    4652:	d0f2      	beq.n	463a <_signal_r+0x22>
    4654:	1f01      	subs	r1, r0, #4
    4656:	f100 057c 	add.w	r5, r0, #124	@ 0x7c
    465a:	2000      	movs	r0, #0
    465c:	f841 0f04 	str.w	r0, [r1, #4]!
    4660:	42a9      	cmp	r1, r5
    4662:	d1fb      	bne.n	465c <_signal_r+0x44>
    4664:	e7e1      	b.n	462a <_signal_r+0x12>
    4666:	bf00      	nop

00004668 <_raise_r>:
    4668:	291f      	cmp	r1, #31
    466a:	b538      	push	{r3, r4, r5, lr}
    466c:	4605      	mov	r5, r0
    466e:	d81f      	bhi.n	46b0 <_raise_r+0x48>
    4670:	f8d0 2118 	ldr.w	r2, [r0, #280]	@ 0x118
    4674:	460c      	mov	r4, r1
    4676:	b16a      	cbz	r2, 4694 <_raise_r+0x2c>
    4678:	f852 3021 	ldr.w	r3, [r2, r1, lsl #2]
    467c:	b153      	cbz	r3, 4694 <_raise_r+0x2c>
    467e:	2b01      	cmp	r3, #1
    4680:	d006      	beq.n	4690 <_raise_r+0x28>
    4682:	1c59      	adds	r1, r3, #1
    4684:	d010      	beq.n	46a8 <_raise_r+0x40>
    4686:	2100      	movs	r1, #0
    4688:	f842 1024 	str.w	r1, [r2, r4, lsl #2]
    468c:	4620      	mov	r0, r4
    468e:	4798      	blx	r3
    4690:	2000      	movs	r0, #0
    4692:	bd38      	pop	{r3, r4, r5, pc}
    4694:	4628      	mov	r0, r5
    4696:	f000 f8fd 	bl	4894 <_getpid_r>
    469a:	4622      	mov	r2, r4
    469c:	4601      	mov	r1, r0
    469e:	4628      	mov	r0, r5
    46a0:	e8bd 4038 	ldmia.w	sp!, {r3, r4, r5, lr}
    46a4:	f000 b8e0 	b.w	4868 <_kill_r>
    46a8:	2316      	movs	r3, #22
    46aa:	6003      	str	r3, [r0, #0]
    46ac:	2001      	movs	r0, #1
    46ae:	bd38      	pop	{r3, r4, r5, pc}
    46b0:	2316      	movs	r3, #22
    46b2:	6003      	str	r3, [r0, #0]
    46b4:	f04f 30ff 	mov.w	r0, #4294967295	@ 0xffffffff
    46b8:	bd38      	pop	{r3, r4, r5, pc}
    46ba:	bf00      	nop

000046bc <__sigtramp_r>:
    46bc:	291f      	cmp	r1, #31
    46be:	d82c      	bhi.n	471a <__sigtramp_r+0x5e>
    46c0:	b538      	push	{r3, r4, r5, lr}
    46c2:	f8d0 3118 	ldr.w	r3, [r0, #280]	@ 0x118
    46c6:	460c      	mov	r4, r1
    46c8:	4605      	mov	r5, r0
    46ca:	b1a3      	cbz	r3, 46f6 <__sigtramp_r+0x3a>
    46cc:	f853 2024 	ldr.w	r2, [r3, r4, lsl #2]
    46d0:	eb03 0384 	add.w	r3, r3, r4, lsl #2
    46d4:	b14a      	cbz	r2, 46ea <__sigtramp_r+0x2e>
    46d6:	1c51      	adds	r1, r2, #1
    46d8:	d00b      	beq.n	46f2 <__sigtramp_r+0x36>
    46da:	2a01      	cmp	r2, #1
    46dc:	d007      	beq.n	46ee <__sigtramp_r+0x32>
    46de:	2500      	movs	r5, #0
    46e0:	4620      	mov	r0, r4
    46e2:	601d      	str	r5, [r3, #0]
    46e4:	4790      	blx	r2
    46e6:	4628      	mov	r0, r5
    46e8:	bd38      	pop	{r3, r4, r5, pc}
    46ea:	2001      	movs	r0, #1
    46ec:	bd38      	pop	{r3, r4, r5, pc}
    46ee:	2003      	movs	r0, #3
    46f0:	bd38      	pop	{r3, r4, r5, pc}
    46f2:	2002      	movs	r0, #2
    46f4:	bd38      	pop	{r3, r4, r5, pc}
    46f6:	2180      	movs	r1, #128	@ 0x80
    46f8:	f7fc ffcc 	bl	1694 <_malloc_r>
    46fc:	4603      	mov	r3, r0
    46fe:	f8c5 0118 	str.w	r0, [r5, #280]	@ 0x118
    4702:	b138      	cbz	r0, 4714 <__sigtramp_r+0x58>
    4704:	1f02      	subs	r2, r0, #4
    4706:	2100      	movs	r1, #0
    4708:	307c      	adds	r0, #124	@ 0x7c
    470a:	f842 1f04 	str.w	r1, [r2, #4]!
    470e:	4282      	cmp	r2, r0
    4710:	d1fb      	bne.n	470a <__sigtramp_r+0x4e>
    4712:	e7db      	b.n	46cc <__sigtramp_r+0x10>
    4714:	f04f 30ff 	mov.w	r0, #4294967295	@ 0xffffffff
    4718:	bd38      	pop	{r3, r4, r5, pc}
    471a:	f04f 30ff 	mov.w	r0, #4294967295	@ 0xffffffff
    471e:	4770      	bx	lr

00004720 <raise>:
    4720:	b538      	push	{r3, r4, r5, lr}
    4722:	4b14      	ldr	r3, [pc, #80]	@ (4774 <raise+0x54>)
    4724:	281f      	cmp	r0, #31
    4726:	681d      	ldr	r5, [r3, #0]
    4728:	d81e      	bhi.n	4768 <raise+0x48>
    472a:	f8d5 2118 	ldr.w	r2, [r5, #280]	@ 0x118
    472e:	4604      	mov	r4, r0
    4730:	b162      	cbz	r2, 474c <raise+0x2c>
    4732:	f852 3020 	ldr.w	r3, [r2, r0, lsl #2]
    4736:	b14b      	cbz	r3, 474c <raise+0x2c>
    4738:	2b01      	cmp	r3, #1
    473a:	d005      	beq.n	4748 <raise+0x28>
    473c:	1c59      	adds	r1, r3, #1
    473e:	d00f      	beq.n	4760 <raise+0x40>
    4740:	2100      	movs	r1, #0
    4742:	f842 1020 	str.w	r1, [r2, r0, lsl #2]
    4746:	4798      	blx	r3
    4748:	2000      	movs	r0, #0
    474a:	bd38      	pop	{r3, r4, r5, pc}
    474c:	4628      	mov	r0, r5
    474e:	f000 f8a1 	bl	4894 <_getpid_r>
    4752:	4622      	mov	r2, r4
    4754:	4601      	mov	r1, r0
    4756:	4628      	mov	r0, r5
    4758:	e8bd 4038 	ldmia.w	sp!, {r3, r4, r5, lr}
    475c:	f000 b884 	b.w	4868 <_kill_r>
    4760:	2316      	movs	r3, #22
    4762:	602b      	str	r3, [r5, #0]
    4764:	2001      	movs	r0, #1
    4766:	bd38      	pop	{r3, r4, r5, pc}
    4768:	2316      	movs	r3, #22
    476a:	602b      	str	r3, [r5, #0]
    476c:	f04f 30ff 	mov.w	r0, #4294967295	@ 0xffffffff
    4770:	bd38      	pop	{r3, r4, r5, pc}
    4772:	bf00      	nop
    4774:	20000000 	.word	0x20000000

00004778 <signal>:
    4778:	4b12      	ldr	r3, [pc, #72]	@ (47c4 <signal+0x4c>)
    477a:	281f      	cmp	r0, #31
    477c:	b570      	push	{r4, r5, r6, lr}
    477e:	681e      	ldr	r6, [r3, #0]
    4780:	d809      	bhi.n	4796 <signal+0x1e>
    4782:	f8d6 3118 	ldr.w	r3, [r6, #280]	@ 0x118
    4786:	4604      	mov	r4, r0
    4788:	460d      	mov	r5, r1
    478a:	b14b      	cbz	r3, 47a0 <signal+0x28>
    478c:	f853 0024 	ldr.w	r0, [r3, r4, lsl #2]
    4790:	f843 5024 	str.w	r5, [r3, r4, lsl #2]
    4794:	bd70      	pop	{r4, r5, r6, pc}
    4796:	2316      	movs	r3, #22
    4798:	6033      	str	r3, [r6, #0]
    479a:	f04f 30ff 	mov.w	r0, #4294967295	@ 0xffffffff
    479e:	bd70      	pop	{r4, r5, r6, pc}
    47a0:	2180      	movs	r1, #128	@ 0x80
    47a2:	4630      	mov	r0, r6
    47a4:	f7fc ff76 	bl	1694 <_malloc_r>
    47a8:	4603      	mov	r3, r0
    47aa:	f8c6 0118 	str.w	r0, [r6, #280]	@ 0x118
    47ae:	2800      	cmp	r0, #0
    47b0:	d0f3      	beq.n	479a <signal+0x22>
    47b2:	1f02      	subs	r2, r0, #4
    47b4:	2100      	movs	r1, #0
    47b6:	307c      	adds	r0, #124	@ 0x7c
    47b8:	f842 1f04 	str.w	r1, [r2, #4]!
    47bc:	4282      	cmp	r2, r0
    47be:	d1fb      	bne.n	47b8 <signal+0x40>
    47c0:	e7e4      	b.n	478c <signal+0x14>
    47c2:	bf00      	nop
    47c4:	20000000 	.word	0x20000000

000047c8 <_init_signal>:
    47c8:	b538      	push	{r3, r4, r5, lr}
    47ca:	4b0c      	ldr	r3, [pc, #48]	@ (47fc <_init_signal+0x34>)
    47cc:	681d      	ldr	r5, [r3, #0]
    47ce:	f8d5 4118 	ldr.w	r4, [r5, #280]	@ 0x118
    47d2:	b10c      	cbz	r4, 47d8 <_init_signal+0x10>
    47d4:	2000      	movs	r0, #0
    47d6:	bd38      	pop	{r3, r4, r5, pc}
    47d8:	2180      	movs	r1, #128	@ 0x80
    47da:	4628      	mov	r0, r5
    47dc:	f7fc ff5a 	bl	1694 <_malloc_r>
    47e0:	f8c5 0118 	str.w	r0, [r5, #280]	@ 0x118
    47e4:	b138      	cbz	r0, 47f6 <_init_signal+0x2e>
    47e6:	1f03      	subs	r3, r0, #4
    47e8:	f100 027c 	add.w	r2, r0, #124	@ 0x7c
    47ec:	f843 4f04 	str.w	r4, [r3, #4]!
    47f0:	4293      	cmp	r3, r2
    47f2:	d1fb      	bne.n	47ec <_init_signal+0x24>
    47f4:	e7ee      	b.n	47d4 <_init_signal+0xc>
    47f6:	f04f 30ff 	mov.w	r0, #4294967295	@ 0xffffffff
    47fa:	bd38      	pop	{r3, r4, r5, pc}
    47fc:	20000000 	.word	0x20000000

00004800 <__sigtramp>:
    4800:	b538      	push	{r3, r4, r5, lr}
    4802:	4b18      	ldr	r3, [pc, #96]	@ (4864 <__sigtramp+0x64>)
    4804:	281f      	cmp	r0, #31
    4806:	681d      	ldr	r5, [r3, #0]
    4808:	d828      	bhi.n	485c <__sigtramp+0x5c>
    480a:	4604      	mov	r4, r0
    480c:	f8d5 0118 	ldr.w	r0, [r5, #280]	@ 0x118
    4810:	b1a0      	cbz	r0, 483c <__sigtramp+0x3c>
    4812:	f850 3024 	ldr.w	r3, [r0, r4, lsl #2]
    4816:	eb00 0084 	add.w	r0, r0, r4, lsl #2
    481a:	b14b      	cbz	r3, 4830 <__sigtramp+0x30>
    481c:	1c5a      	adds	r2, r3, #1
    481e:	d00b      	beq.n	4838 <__sigtramp+0x38>
    4820:	2b01      	cmp	r3, #1
    4822:	d007      	beq.n	4834 <__sigtramp+0x34>
    4824:	2500      	movs	r5, #0
    4826:	6005      	str	r5, [r0, #0]
    4828:	4620      	mov	r0, r4
    482a:	4798      	blx	r3
    482c:	4628      	mov	r0, r5
    482e:	bd38      	pop	{r3, r4, r5, pc}
    4830:	2001      	movs	r0, #1
    4832:	bd38      	pop	{r3, r4, r5, pc}
    4834:	2003      	movs	r0, #3
    4836:	bd38      	pop	{r3, r4, r5, pc}
    4838:	2002      	movs	r0, #2
    483a:	bd38      	pop	{r3, r4, r5, pc}
    483c:	2180      	movs	r1, #128	@ 0x80
    483e:	4628      	mov	r0, r5
    4840:	f7fc ff28 	bl	1694 <_malloc_r>
    4844:	f8c5 0118 	str.w	r0, [r5, #280]	@ 0x118
    4848:	b140      	cbz	r0, 485c <__sigtramp+0x5c>
    484a:	1f03      	subs	r3, r0, #4
    484c:	f100 017c 	add.w	r1, r0, #124	@ 0x7c
    4850:	2200      	movs	r2, #0
    4852:	f843 2f04 	str.w	r2, [r3, #4]!
    4856:	428b      	cmp	r3, r1
    4858:	d1fb      	bne.n	4852 <__sigtramp+0x52>
    485a:	e7da      	b.n	4812 <__sigtramp+0x12>
    485c:	f04f 30ff 	mov.w	r0, #4294967295	@ 0xffffffff
    4860:	bd38      	pop	{r3, r4, r5, pc}
    4862:	bf00      	nop
    4864:	20000000 	.word	0x20000000

00004868 <_kill_r>:
    4868:	b570      	push	{r4, r5, r6, lr}
    486a:	460c      	mov	r4, r1
    486c:	4d08      	ldr	r5, [pc, #32]	@ (4890 <_kill_r+0x28>)
    486e:	4603      	mov	r3, r0
    4870:	2600      	movs	r6, #0
    4872:	4620      	mov	r0, r4
    4874:	4611      	mov	r1, r2
    4876:	461c      	mov	r4, r3
    4878:	602e      	str	r6, [r5, #0]
    487a:	f002 f9d5 	bl	6c28 <_kill>
    487e:	1c43      	adds	r3, r0, #1
    4880:	d000      	beq.n	4884 <_kill_r+0x1c>
    4882:	bd70      	pop	{r4, r5, r6, pc}
    4884:	682b      	ldr	r3, [r5, #0]
    4886:	2b00      	cmp	r3, #0
    4888:	d0fb      	beq.n	4882 <_kill_r+0x1a>
    488a:	6023      	str	r3, [r4, #0]
    488c:	bd70      	pop	{r4, r5, r6, pc}
    488e:	bf00      	nop
    4890:	20000820 	.word	0x20000820

00004894 <_getpid_r>:
    4894:	f002 b9d0 	b.w	6c38 <_getpid>

00004898 <__sflush_r>:
    4898:	f9b1 200c 	ldrsh.w	r2, [r1, #12]
    489c:	e92d 41f0 	stmdb	sp!, {r4, r5, r6, r7, r8, lr}
    48a0:	0716      	lsls	r6, r2, #28
    48a2:	460c      	mov	r4, r1
    48a4:	4680      	mov	r8, r0
    48a6:	d44e      	bmi.n	4946 <__sflush_r+0xae>
    48a8:	6849      	ldr	r1, [r1, #4]
    48aa:	f442 6300 	orr.w	r3, r2, #2048	@ 0x800
    48ae:	2900      	cmp	r1, #0
    48b0:	81a3      	strh	r3, [r4, #12]
    48b2:	dd63      	ble.n	497c <__sflush_r+0xe4>
    48b4:	6aa5      	ldr	r5, [r4, #40]	@ 0x28
    48b6:	2d00      	cmp	r5, #0
    48b8:	d042      	beq.n	4940 <__sflush_r+0xa8>
    48ba:	2100      	movs	r1, #0
    48bc:	f412 5280 	ands.w	r2, r2, #4096	@ 0x1000
    48c0:	f8d8 6000 	ldr.w	r6, [r8]
    48c4:	f8c8 1000 	str.w	r1, [r8]
    48c8:	69e1      	ldr	r1, [r4, #28]
    48ca:	d164      	bne.n	4996 <__sflush_r+0xfe>
    48cc:	2301      	movs	r3, #1
    48ce:	4640      	mov	r0, r8
    48d0:	47a8      	blx	r5
    48d2:	1c45      	adds	r5, r0, #1
    48d4:	4602      	mov	r2, r0
    48d6:	d06e      	beq.n	49b6 <__sflush_r+0x11e>
    48d8:	f9b4 300c 	ldrsh.w	r3, [r4, #12]
    48dc:	6aa5      	ldr	r5, [r4, #40]	@ 0x28
    48de:	69e1      	ldr	r1, [r4, #28]
    48e0:	0758      	lsls	r0, r3, #29
    48e2:	d505      	bpl.n	48f0 <__sflush_r+0x58>
    48e4:	6863      	ldr	r3, [r4, #4]
    48e6:	1ad2      	subs	r2, r2, r3
    48e8:	6b23      	ldr	r3, [r4, #48]	@ 0x30
    48ea:	b10b      	cbz	r3, 48f0 <__sflush_r+0x58>
    48ec:	6be3      	ldr	r3, [r4, #60]	@ 0x3c
    48ee:	1ad2      	subs	r2, r2, r3
    48f0:	2300      	movs	r3, #0
    48f2:	4640      	mov	r0, r8
    48f4:	47a8      	blx	r5
    48f6:	1c43      	adds	r3, r0, #1
    48f8:	d14f      	bne.n	499a <__sflush_r+0x102>
    48fa:	f8d8 1000 	ldr.w	r1, [r8]
    48fe:	f9b4 300c 	ldrsh.w	r3, [r4, #12]
    4902:	291d      	cmp	r1, #29
    4904:	d840      	bhi.n	4988 <__sflush_r+0xf0>
    4906:	4a31      	ldr	r2, [pc, #196]	@ (49cc <__sflush_r+0x134>)
    4908:	40ca      	lsrs	r2, r1
    490a:	07d7      	lsls	r7, r2, #31
    490c:	d53c      	bpl.n	4988 <__sflush_r+0xf0>
    490e:	6922      	ldr	r2, [r4, #16]
    4910:	6022      	str	r2, [r4, #0]
    4912:	f423 6200 	bic.w	r2, r3, #2048	@ 0x800
    4916:	81a2      	strh	r2, [r4, #12]
    4918:	04dd      	lsls	r5, r3, #19
    491a:	f04f 0200 	mov.w	r2, #0
    491e:	6062      	str	r2, [r4, #4]
    4920:	d501      	bpl.n	4926 <__sflush_r+0x8e>
    4922:	2900      	cmp	r1, #0
    4924:	d045      	beq.n	49b2 <__sflush_r+0x11a>
    4926:	6b21      	ldr	r1, [r4, #48]	@ 0x30
    4928:	f8c8 6000 	str.w	r6, [r8]
    492c:	b141      	cbz	r1, 4940 <__sflush_r+0xa8>
    492e:	f104 0340 	add.w	r3, r4, #64	@ 0x40
    4932:	4299      	cmp	r1, r3
    4934:	d002      	beq.n	493c <__sflush_r+0xa4>
    4936:	4640      	mov	r0, r8
    4938:	f7fe f98a 	bl	2c50 <_free_r>
    493c:	2300      	movs	r3, #0
    493e:	6323      	str	r3, [r4, #48]	@ 0x30
    4940:	2000      	movs	r0, #0
    4942:	e8bd 81f0 	ldmia.w	sp!, {r4, r5, r6, r7, r8, pc}
    4946:	690e      	ldr	r6, [r1, #16]
    4948:	2e00      	cmp	r6, #0
    494a:	d0f9      	beq.n	4940 <__sflush_r+0xa8>
    494c:	680d      	ldr	r5, [r1, #0]
    494e:	600e      	str	r6, [r1, #0]
    4950:	0792      	lsls	r2, r2, #30
    4952:	bf0c      	ite	eq
    4954:	694b      	ldreq	r3, [r1, #20]
    4956:	2300      	movne	r3, #0
    4958:	1bad      	subs	r5, r5, r6
    495a:	608b      	str	r3, [r1, #8]
    495c:	e00b      	b.n	4976 <__sflush_r+0xde>
    495e:	462b      	mov	r3, r5
    4960:	4632      	mov	r2, r6
    4962:	69e1      	ldr	r1, [r4, #28]
    4964:	6a67      	ldr	r7, [r4, #36]	@ 0x24
    4966:	4640      	mov	r0, r8
    4968:	47b8      	blx	r7
    496a:	f1b0 0c00 	subs.w	ip, r0, #0
    496e:	eba5 050c 	sub.w	r5, r5, ip
    4972:	4466      	add	r6, ip
    4974:	dd06      	ble.n	4984 <__sflush_r+0xec>
    4976:	2d00      	cmp	r5, #0
    4978:	dcf1      	bgt.n	495e <__sflush_r+0xc6>
    497a:	e7e1      	b.n	4940 <__sflush_r+0xa8>
    497c:	6be1      	ldr	r1, [r4, #60]	@ 0x3c
    497e:	2900      	cmp	r1, #0
    4980:	dc98      	bgt.n	48b4 <__sflush_r+0x1c>
    4982:	e7dd      	b.n	4940 <__sflush_r+0xa8>
    4984:	f9b4 300c 	ldrsh.w	r3, [r4, #12]
    4988:	f043 0340 	orr.w	r3, r3, #64	@ 0x40
    498c:	81a3      	strh	r3, [r4, #12]
    498e:	f04f 30ff 	mov.w	r0, #4294967295	@ 0xffffffff
    4992:	e8bd 81f0 	ldmia.w	sp!, {r4, r5, r6, r7, r8, pc}
    4996:	6d22      	ldr	r2, [r4, #80]	@ 0x50
    4998:	e7a2      	b.n	48e0 <__sflush_r+0x48>
    499a:	f9b4 300c 	ldrsh.w	r3, [r4, #12]
    499e:	6922      	ldr	r2, [r4, #16]
    49a0:	6022      	str	r2, [r4, #0]
    49a2:	f423 6200 	bic.w	r2, r3, #2048	@ 0x800
    49a6:	81a2      	strh	r2, [r4, #12]
    49a8:	04db      	lsls	r3, r3, #19
    49aa:	f04f 0200 	mov.w	r2, #0
    49ae:	6062      	str	r2, [r4, #4]
    49b0:	d5b9      	bpl.n	4926 <__sflush_r+0x8e>
    49b2:	6520      	str	r0, [r4, #80]	@ 0x50
    49b4:	e7b7      	b.n	4926 <__sflush_r+0x8e>
    49b6:	f8d8 3000 	ldr.w	r3, [r8]
    49ba:	2b00      	cmp	r3, #0
    49bc:	d08c      	beq.n	48d8 <__sflush_r+0x40>
    49be:	2b1d      	cmp	r3, #29
    49c0:	d001      	beq.n	49c6 <__sflush_r+0x12e>
    49c2:	2b16      	cmp	r3, #22
    49c4:	d1de      	bne.n	4984 <__sflush_r+0xec>
    49c6:	f8c8 6000 	str.w	r6, [r8]
    49ca:	e7b9      	b.n	4940 <__sflush_r+0xa8>
    49cc:	20400001 	.word	0x20400001

000049d0 <_fflush_r>:
    49d0:	b510      	push	{r4, lr}
    49d2:	4604      	mov	r4, r0
    49d4:	b082      	sub	sp, #8
    49d6:	b108      	cbz	r0, 49dc <_fflush_r+0xc>
    49d8:	6b43      	ldr	r3, [r0, #52]	@ 0x34
    49da:	b153      	cbz	r3, 49f2 <_fflush_r+0x22>
    49dc:	f9b1 000c 	ldrsh.w	r0, [r1, #12]
    49e0:	b908      	cbnz	r0, 49e6 <_fflush_r+0x16>
    49e2:	b002      	add	sp, #8
    49e4:	bd10      	pop	{r4, pc}
    49e6:	4620      	mov	r0, r4
    49e8:	b002      	add	sp, #8
    49ea:	e8bd 4010 	ldmia.w	sp!, {r4, lr}
    49ee:	f7ff bf53 	b.w	4898 <__sflush_r>
    49f2:	9101      	str	r1, [sp, #4]
    49f4:	f7fe fbec 	bl	31d0 <__sinit>
    49f8:	9901      	ldr	r1, [sp, #4]
    49fa:	e7ef      	b.n	49dc <_fflush_r+0xc>

000049fc <fflush>:
    49fc:	b1a0      	cbz	r0, 4a28 <fflush+0x2c>
    49fe:	b538      	push	{r3, r4, r5, lr}
    4a00:	4b0c      	ldr	r3, [pc, #48]	@ (4a34 <fflush+0x38>)
    4a02:	681d      	ldr	r5, [r3, #0]
    4a04:	4604      	mov	r4, r0
    4a06:	b10d      	cbz	r5, 4a0c <fflush+0x10>
    4a08:	6b6b      	ldr	r3, [r5, #52]	@ 0x34
    4a0a:	b14b      	cbz	r3, 4a20 <fflush+0x24>
    4a0c:	f9b4 000c 	ldrsh.w	r0, [r4, #12]
    4a10:	b900      	cbnz	r0, 4a14 <fflush+0x18>
    4a12:	bd38      	pop	{r3, r4, r5, pc}
    4a14:	4621      	mov	r1, r4
    4a16:	4628      	mov	r0, r5
    4a18:	e8bd 4038 	ldmia.w	sp!, {r3, r4, r5, lr}
    4a1c:	f7ff bf3c 	b.w	4898 <__sflush_r>
    4a20:	4628      	mov	r0, r5
    4a22:	f7fe fbd5 	bl	31d0 <__sinit>
    4a26:	e7f1      	b.n	4a0c <fflush+0x10>
    4a28:	4a03      	ldr	r2, [pc, #12]	@ (4a38 <fflush+0x3c>)
    4a2a:	4904      	ldr	r1, [pc, #16]	@ (4a3c <fflush+0x40>)
    4a2c:	4804      	ldr	r0, [pc, #16]	@ (4a40 <fflush+0x44>)
    4a2e:	f7ff ba09 	b.w	3e44 <_fwalk_sglue>
    4a32:	bf00      	nop
    4a34:	20000000 	.word	0x20000000
    4a38:	20000538 	.word	0x20000538
    4a3c:	000049d1 	.word	0x000049d1
    4a40:	20000008 	.word	0x20000008

00004a44 <memmove>:
    4a44:	4288      	cmp	r0, r1
    4a46:	d90e      	bls.n	4a66 <memmove+0x22>
    4a48:	188b      	adds	r3, r1, r2
    4a4a:	4283      	cmp	r3, r0
    4a4c:	d90b      	bls.n	4a66 <memmove+0x22>
    4a4e:	eb00 0c02 	add.w	ip, r0, r2
    4a52:	2a00      	cmp	r2, #0
    4a54:	d06e      	beq.n	4b34 <memmove+0xf0>
    4a56:	4662      	mov	r2, ip
    4a58:	f813 cd01 	ldrb.w	ip, [r3, #-1]!
    4a5c:	f802 cd01 	strb.w	ip, [r2, #-1]!
    4a60:	4299      	cmp	r1, r3
    4a62:	d1f9      	bne.n	4a58 <memmove+0x14>
    4a64:	4770      	bx	lr
    4a66:	2a0f      	cmp	r2, #15
    4a68:	d80f      	bhi.n	4a8a <memmove+0x46>
    4a6a:	4603      	mov	r3, r0
    4a6c:	f102 3cff 	add.w	ip, r2, #4294967295	@ 0xffffffff
    4a70:	2a00      	cmp	r2, #0
    4a72:	d05f      	beq.n	4b34 <memmove+0xf0>
    4a74:	f10c 0c01 	add.w	ip, ip, #1
    4a78:	3b01      	subs	r3, #1
    4a7a:	448c      	add	ip, r1
    4a7c:	f811 2b01 	ldrb.w	r2, [r1], #1
    4a80:	f803 2f01 	strb.w	r2, [r3, #1]!
    4a84:	4561      	cmp	r1, ip
    4a86:	d1f9      	bne.n	4a7c <memmove+0x38>
    4a88:	4770      	bx	lr
    4a8a:	ea40 0301 	orr.w	r3, r0, r1
    4a8e:	079b      	lsls	r3, r3, #30
    4a90:	d151      	bne.n	4b36 <memmove+0xf2>
    4a92:	f1a2 0310 	sub.w	r3, r2, #16
    4a96:	b570      	push	{r4, r5, r6, lr}
    4a98:	f101 0c20 	add.w	ip, r1, #32
    4a9c:	f023 050f 	bic.w	r5, r3, #15
    4aa0:	f101 0e10 	add.w	lr, r1, #16
    4aa4:	f100 0410 	add.w	r4, r0, #16
    4aa8:	44ac      	add	ip, r5
    4aaa:	091b      	lsrs	r3, r3, #4
    4aac:	f85e 5c10 	ldr.w	r5, [lr, #-16]
    4ab0:	f844 5c10 	str.w	r5, [r4, #-16]
    4ab4:	f85e 5c0c 	ldr.w	r5, [lr, #-12]
    4ab8:	f844 5c0c 	str.w	r5, [r4, #-12]
    4abc:	f85e 5c08 	ldr.w	r5, [lr, #-8]
    4ac0:	f844 5c08 	str.w	r5, [r4, #-8]
    4ac4:	f85e 5c04 	ldr.w	r5, [lr, #-4]
    4ac8:	f844 5c04 	str.w	r5, [r4, #-4]
    4acc:	f10e 0e10 	add.w	lr, lr, #16
    4ad0:	45e6      	cmp	lr, ip
    4ad2:	f104 0410 	add.w	r4, r4, #16
    4ad6:	d1e9      	bne.n	4aac <memmove+0x68>
    4ad8:	3301      	adds	r3, #1
    4ada:	f012 0f0c 	tst.w	r2, #12
    4ade:	eb01 1103 	add.w	r1, r1, r3, lsl #4
    4ae2:	f002 040f 	and.w	r4, r2, #15
    4ae6:	eb00 1303 	add.w	r3, r0, r3, lsl #4
    4aea:	d028      	beq.n	4b3e <memmove+0xfa>
    4aec:	3c04      	subs	r4, #4
    4aee:	f024 0603 	bic.w	r6, r4, #3
    4af2:	ea4f 0c94 	mov.w	ip, r4, lsr #2
    4af6:	441e      	add	r6, r3
    4af8:	1f1c      	subs	r4, r3, #4
    4afa:	468e      	mov	lr, r1
    4afc:	f85e 5b04 	ldr.w	r5, [lr], #4
    4b00:	f844 5f04 	str.w	r5, [r4, #4]!
    4b04:	42b4      	cmp	r4, r6
    4b06:	d1f9      	bne.n	4afc <memmove+0xb8>
    4b08:	f10c 0401 	add.w	r4, ip, #1
    4b0c:	f002 0203 	and.w	r2, r2, #3
    4b10:	eb03 0384 	add.w	r3, r3, r4, lsl #2
    4b14:	eb01 0184 	add.w	r1, r1, r4, lsl #2
    4b18:	f102 3cff 	add.w	ip, r2, #4294967295	@ 0xffffffff
    4b1c:	b14a      	cbz	r2, 4b32 <memmove+0xee>
    4b1e:	f10c 0c01 	add.w	ip, ip, #1
    4b22:	3b01      	subs	r3, #1
    4b24:	448c      	add	ip, r1
    4b26:	f811 2b01 	ldrb.w	r2, [r1], #1
    4b2a:	f803 2f01 	strb.w	r2, [r3, #1]!
    4b2e:	4561      	cmp	r1, ip
    4b30:	d1f9      	bne.n	4b26 <memmove+0xe2>
    4b32:	bd70      	pop	{r4, r5, r6, pc}
    4b34:	4770      	bx	lr
    4b36:	f102 3cff 	add.w	ip, r2, #4294967295	@ 0xffffffff
    4b3a:	4603      	mov	r3, r0
    4b3c:	e79a      	b.n	4a74 <memmove+0x30>
    4b3e:	4622      	mov	r2, r4
    4b40:	e7ea      	b.n	4b18 <memmove+0xd4>
    4b42:	bf00      	nop

00004b44 <_vfiprintf_r>:
    4b44:	e92d 4ff0 	stmdb	sp!, {r4, r5, r6, r7, r8, r9, sl, fp, lr}
    4b48:	b0ad      	sub	sp, #180	@ 0xb4
    4b4a:	e9cd 3007 	strd	r3, r0, [sp, #28]
    4b4e:	461c      	mov	r4, r3
    4b50:	9102      	str	r1, [sp, #8]
    4b52:	4693      	mov	fp, r2
    4b54:	b118      	cbz	r0, 4b5e <_vfiprintf_r+0x1a>
    4b56:	6b43      	ldr	r3, [r0, #52]	@ 0x34
    4b58:	2b00      	cmp	r3, #0
    4b5a:	f000 8503 	beq.w	5564 <_vfiprintf_r+0xa20>
    4b5e:	9902      	ldr	r1, [sp, #8]
    4b60:	f9b1 200c 	ldrsh.w	r2, [r1, #12]
    4b64:	6e4b      	ldr	r3, [r1, #100]	@ 0x64
    4b66:	0495      	lsls	r5, r2, #18
    4b68:	d405      	bmi.n	4b76 <_vfiprintf_r+0x32>
    4b6a:	f442 5200 	orr.w	r2, r2, #8192	@ 0x2000
    4b6e:	f423 5300 	bic.w	r3, r3, #8192	@ 0x2000
    4b72:	818a      	strh	r2, [r1, #12]
    4b74:	664b      	str	r3, [r1, #100]	@ 0x64
    4b76:	0498      	lsls	r0, r3, #18
    4b78:	f100 8524 	bmi.w	55c4 <_vfiprintf_r+0xa80>
    4b7c:	9b02      	ldr	r3, [sp, #8]
    4b7e:	f9b3 200c 	ldrsh.w	r2, [r3, #12]
    4b82:	0711      	lsls	r1, r2, #28
    4b84:	f140 80d3 	bpl.w	4d2e <_vfiprintf_r+0x1ea>
    4b88:	691b      	ldr	r3, [r3, #16]
    4b8a:	2b00      	cmp	r3, #0
    4b8c:	f000 80cf 	beq.w	4d2e <_vfiprintf_r+0x1ea>
    4b90:	f002 021a 	and.w	r2, r2, #26
    4b94:	2a0a      	cmp	r2, #10
    4b96:	f000 80d9 	beq.w	4d4c <_vfiprintf_r+0x208>
    4b9a:	2300      	movs	r3, #0
    4b9c:	e9cd 3310 	strd	r3, r3, [sp, #64]	@ 0x40
    4ba0:	f10d 0970 	add.w	r9, sp, #112	@ 0x70
    4ba4:	f8cd 903c 	str.w	r9, [sp, #60]	@ 0x3c
    4ba8:	9309      	str	r3, [sp, #36]	@ 0x24
    4baa:	46ca      	mov	sl, r9
    4bac:	9305      	str	r3, [sp, #20]
    4bae:	f89b 3000 	ldrb.w	r3, [fp]
    4bb2:	2b00      	cmp	r3, #0
    4bb4:	f000 80f4 	beq.w	4da0 <_vfiprintf_r+0x25c>
    4bb8:	465c      	mov	r4, fp
    4bba:	e004      	b.n	4bc6 <_vfiprintf_r+0x82>
    4bbc:	f814 3f01 	ldrb.w	r3, [r4, #1]!
    4bc0:	2b00      	cmp	r3, #0
    4bc2:	f000 80d2 	beq.w	4d6a <_vfiprintf_r+0x226>
    4bc6:	2b25      	cmp	r3, #37	@ 0x25
    4bc8:	d1f8      	bne.n	4bbc <_vfiprintf_r+0x78>
    4bca:	ebb4 050b 	subs.w	r5, r4, fp
    4bce:	f040 80cf 	bne.w	4d70 <_vfiprintf_r+0x22c>
    4bd2:	7823      	ldrb	r3, [r4, #0]
    4bd4:	2b00      	cmp	r3, #0
    4bd6:	f000 80e3 	beq.w	4da0 <_vfiprintf_r+0x25c>
    4bda:	f04f 0300 	mov.w	r3, #0
    4bde:	f88d 3037 	strb.w	r3, [sp, #55]	@ 0x37
    4be2:	f04f 32ff 	mov.w	r2, #4294967295	@ 0xffffffff
    4be6:	2300      	movs	r3, #0
    4be8:	e9cd 2303 	strd	r2, r3, [sp, #12]
    4bec:	7861      	ldrb	r1, [r4, #1]
    4bee:	f104 0b01 	add.w	fp, r4, #1
    4bf2:	4698      	mov	r8, r3
    4bf4:	f10b 0b01 	add.w	fp, fp, #1
    4bf8:	f1a1 0320 	sub.w	r3, r1, #32
    4bfc:	2b58      	cmp	r3, #88	@ 0x58
    4bfe:	f200 80dc 	bhi.w	4dba <_vfiprintf_r+0x276>
    4c02:	e8df f013 	tbh	[pc, r3, lsl #1]
    4c06:	01b2      	.short	0x01b2
    4c08:	00da00da 	.word	0x00da00da
    4c0c:	00da01ad 	.word	0x00da01ad
    4c10:	00da00da 	.word	0x00da00da
    4c14:	00da00da 	.word	0x00da00da
    4c18:	017600da 	.word	0x017600da
    4c1c:	00da01a7 	.word	0x00da01a7
    4c20:	01860181 	.word	0x01860181
    4c24:	01a200da 	.word	0x01a200da
    4c28:	00590059 	.word	0x00590059
    4c2c:	00590059 	.word	0x00590059
    4c30:	00590059 	.word	0x00590059
    4c34:	00590059 	.word	0x00590059
    4c38:	00da0059 	.word	0x00da0059
    4c3c:	00da00da 	.word	0x00da00da
    4c40:	00da00da 	.word	0x00da00da
    4c44:	00da00da 	.word	0x00da00da
    4c48:	00da00da 	.word	0x00da00da
    4c4c:	006800da 	.word	0x006800da
    4c50:	00da00da 	.word	0x00da00da
    4c54:	00da00da 	.word	0x00da00da
    4c58:	00da00da 	.word	0x00da00da
    4c5c:	00da00da 	.word	0x00da00da
    4c60:	00da00da 	.word	0x00da00da
    4c64:	00da0219 	.word	0x00da0219
    4c68:	00da00da 	.word	0x00da00da
    4c6c:	00da00da 	.word	0x00da00da
    4c70:	00da01ea 	.word	0x00da01ea
    4c74:	041d00da 	.word	0x041d00da
    4c78:	00da00da 	.word	0x00da00da
    4c7c:	00da00da 	.word	0x00da00da
    4c80:	00da00da 	.word	0x00da00da
    4c84:	00da00da 	.word	0x00da00da
    4c88:	00da00da 	.word	0x00da00da
    4c8c:	006a01dd 	.word	0x006a01dd
    4c90:	00da00da 	.word	0x00da00da
    4c94:	01d800da 	.word	0x01d800da
    4c98:	00da006a 	.word	0x00da006a
    4c9c:	01cb00da 	.word	0x01cb00da
    4ca0:	01bd00da 	.word	0x01bd00da
    4ca4:	027f041b 	.word	0x027f041b
    4ca8:	00da027a 	.word	0x00da027a
    4cac:	00da0259 	.word	0x00da0259
    4cb0:	00da0419 	.word	0x00da0419
    4cb4:	044200da 	.word	0x044200da
    4cb8:	f1a1 0330 	sub.w	r3, r1, #48	@ 0x30
    4cbc:	2200      	movs	r2, #0
    4cbe:	f81b 1b01 	ldrb.w	r1, [fp], #1
    4cc2:	eb02 0282 	add.w	r2, r2, r2, lsl #2
    4cc6:	eb03 0242 	add.w	r2, r3, r2, lsl #1
    4cca:	f1a1 0330 	sub.w	r3, r1, #48	@ 0x30
    4cce:	2b09      	cmp	r3, #9
    4cd0:	d9f5      	bls.n	4cbe <_vfiprintf_r+0x17a>
    4cd2:	9204      	str	r2, [sp, #16]
    4cd4:	e790      	b.n	4bf8 <_vfiprintf_r+0xb4>
    4cd6:	f048 0810 	orr.w	r8, r8, #16
    4cda:	f018 0f20 	tst.w	r8, #32
    4cde:	f000 80d7 	beq.w	4e90 <_vfiprintf_r+0x34c>
    4ce2:	9b07      	ldr	r3, [sp, #28]
    4ce4:	3307      	adds	r3, #7
    4ce6:	f023 0307 	bic.w	r3, r3, #7
    4cea:	461a      	mov	r2, r3
    4cec:	6859      	ldr	r1, [r3, #4]
    4cee:	f852 3b08 	ldr.w	r3, [r2], #8
    4cf2:	9207      	str	r2, [sp, #28]
    4cf4:	460a      	mov	r2, r1
    4cf6:	2900      	cmp	r1, #0
    4cf8:	f2c0 80de 	blt.w	4eb8 <_vfiprintf_r+0x374>
    4cfc:	9903      	ldr	r1, [sp, #12]
    4cfe:	f89d 5037 	ldrb.w	r5, [sp, #55]	@ 0x37
    4d02:	2900      	cmp	r1, #0
    4d04:	f2c0 80e3 	blt.w	4ece <_vfiprintf_r+0x38a>
    4d08:	ea53 0102 	orrs.w	r1, r3, r2
    4d0c:	f028 0880 	bic.w	r8, r8, #128	@ 0x80
    4d10:	f040 80dd 	bne.w	4ece <_vfiprintf_r+0x38a>
    4d14:	9b03      	ldr	r3, [sp, #12]
    4d16:	2b00      	cmp	r3, #0
    4d18:	f040 8459 	bne.w	55ce <_vfiprintf_r+0xa8a>
    4d1c:	9301      	str	r3, [sp, #4]
    4d1e:	464c      	mov	r4, r9
    4d20:	2d00      	cmp	r5, #0
    4d22:	f000 81be 	beq.w	50a2 <_vfiprintf_r+0x55e>
    4d26:	9a01      	ldr	r2, [sp, #4]
    4d28:	3201      	adds	r2, #1
    4d2a:	9201      	str	r2, [sp, #4]
    4d2c:	e1b9      	b.n	50a2 <_vfiprintf_r+0x55e>
    4d2e:	9d02      	ldr	r5, [sp, #8]
    4d30:	9808      	ldr	r0, [sp, #32]
    4d32:	4629      	mov	r1, r5
    4d34:	f000 fcbe 	bl	56b4 <__swsetup_r>
    4d38:	2800      	cmp	r0, #0
    4d3a:	f040 8443 	bne.w	55c4 <_vfiprintf_r+0xa80>
    4d3e:	f9b5 200c 	ldrsh.w	r2, [r5, #12]
    4d42:	f002 021a 	and.w	r2, r2, #26
    4d46:	2a0a      	cmp	r2, #10
    4d48:	f47f af27 	bne.w	4b9a <_vfiprintf_r+0x56>
    4d4c:	9b02      	ldr	r3, [sp, #8]
    4d4e:	f9b3 300e 	ldrsh.w	r3, [r3, #14]
    4d52:	2b00      	cmp	r3, #0
    4d54:	f6ff af21 	blt.w	4b9a <_vfiprintf_r+0x56>
    4d58:	9902      	ldr	r1, [sp, #8]
    4d5a:	9808      	ldr	r0, [sp, #32]
    4d5c:	4623      	mov	r3, r4
    4d5e:	465a      	mov	r2, fp
    4d60:	b02d      	add	sp, #180	@ 0xb4
    4d62:	e8bd 4ff0 	ldmia.w	sp!, {r4, r5, r6, r7, r8, r9, sl, fp, lr}
    4d66:	f000 bc59 	b.w	561c <__sbprintf>
    4d6a:	ebb4 050b 	subs.w	r5, r4, fp
    4d6e:	d017      	beq.n	4da0 <_vfiprintf_r+0x25c>
    4d70:	9b11      	ldr	r3, [sp, #68]	@ 0x44
    4d72:	442b      	add	r3, r5
    4d74:	9311      	str	r3, [sp, #68]	@ 0x44
    4d76:	9b10      	ldr	r3, [sp, #64]	@ 0x40
    4d78:	3301      	adds	r3, #1
    4d7a:	2b07      	cmp	r3, #7
    4d7c:	e9ca b500 	strd	fp, r5, [sl]
    4d80:	9310      	str	r3, [sp, #64]	@ 0x40
    4d82:	dc05      	bgt.n	4d90 <_vfiprintf_r+0x24c>
    4d84:	f10a 0a08 	add.w	sl, sl, #8
    4d88:	9b05      	ldr	r3, [sp, #20]
    4d8a:	442b      	add	r3, r5
    4d8c:	9305      	str	r3, [sp, #20]
    4d8e:	e720      	b.n	4bd2 <_vfiprintf_r+0x8e>
    4d90:	9902      	ldr	r1, [sp, #8]
    4d92:	9808      	ldr	r0, [sp, #32]
    4d94:	aa0f      	add	r2, sp, #60	@ 0x3c
    4d96:	f000 fd05 	bl	57a4 <__sprint_r>
    4d9a:	b928      	cbnz	r0, 4da8 <_vfiprintf_r+0x264>
    4d9c:	46ca      	mov	sl, r9
    4d9e:	e7f3      	b.n	4d88 <_vfiprintf_r+0x244>
    4da0:	9b11      	ldr	r3, [sp, #68]	@ 0x44
    4da2:	2b00      	cmp	r3, #0
    4da4:	f040 8400 	bne.w	55a8 <_vfiprintf_r+0xa64>
    4da8:	9b02      	ldr	r3, [sp, #8]
    4daa:	899b      	ldrh	r3, [r3, #12]
    4dac:	065b      	lsls	r3, r3, #25
    4dae:	f100 8409 	bmi.w	55c4 <_vfiprintf_r+0xa80>
    4db2:	9805      	ldr	r0, [sp, #20]
    4db4:	b02d      	add	sp, #180	@ 0xb4
    4db6:	e8bd 8ff0 	ldmia.w	sp!, {r4, r5, r6, r7, r8, r9, sl, fp, pc}
    4dba:	2900      	cmp	r1, #0
    4dbc:	d0f0      	beq.n	4da0 <_vfiprintf_r+0x25c>
    4dbe:	2300      	movs	r3, #0
    4dc0:	f88d 3037 	strb.w	r3, [sp, #55]	@ 0x37
    4dc4:	2301      	movs	r3, #1
    4dc6:	f88d 1048 	strb.w	r1, [sp, #72]	@ 0x48
    4dca:	9301      	str	r3, [sp, #4]
    4dcc:	ac12      	add	r4, sp, #72	@ 0x48
    4dce:	2200      	movs	r2, #0
    4dd0:	9203      	str	r2, [sp, #12]
    4dd2:	9206      	str	r2, [sp, #24]
    4dd4:	f018 0784 	ands.w	r7, r8, #132	@ 0x84
    4dd8:	e9dd 2110 	ldrd	r2, r1, [sp, #64]	@ 0x40
    4ddc:	d105      	bne.n	4dea <_vfiprintf_r+0x2a6>
    4dde:	9804      	ldr	r0, [sp, #16]
    4de0:	9d01      	ldr	r5, [sp, #4]
    4de2:	1b45      	subs	r5, r0, r5
    4de4:	2d00      	cmp	r5, #0
    4de6:	f300 824f 	bgt.w	5288 <_vfiprintf_r+0x744>
    4dea:	f89d 0037 	ldrb.w	r0, [sp, #55]	@ 0x37
    4dee:	b180      	cbz	r0, 4e12 <_vfiprintf_r+0x2ce>
    4df0:	3201      	adds	r2, #1
    4df2:	f10d 0037 	add.w	r0, sp, #55	@ 0x37
    4df6:	3101      	adds	r1, #1
    4df8:	f8ca 0000 	str.w	r0, [sl]
    4dfc:	2a07      	cmp	r2, #7
    4dfe:	f04f 0001 	mov.w	r0, #1
    4e02:	e9cd 2110 	strd	r2, r1, [sp, #64]	@ 0x40
    4e06:	f8ca 0004 	str.w	r0, [sl, #4]
    4e0a:	f300 8277 	bgt.w	52fc <_vfiprintf_r+0x7b8>
    4e0e:	f10a 0a08 	add.w	sl, sl, #8
    4e12:	9806      	ldr	r0, [sp, #24]
    4e14:	b178      	cbz	r0, 4e36 <_vfiprintf_r+0x2f2>
    4e16:	3201      	adds	r2, #1
    4e18:	a80e      	add	r0, sp, #56	@ 0x38
    4e1a:	3102      	adds	r1, #2
    4e1c:	f8ca 0000 	str.w	r0, [sl]
    4e20:	2a07      	cmp	r2, #7
    4e22:	f04f 0002 	mov.w	r0, #2
    4e26:	e9cd 2110 	strd	r2, r1, [sp, #64]	@ 0x40
    4e2a:	f8ca 0004 	str.w	r0, [sl, #4]
    4e2e:	f300 8273 	bgt.w	5318 <_vfiprintf_r+0x7d4>
    4e32:	f10a 0a08 	add.w	sl, sl, #8
    4e36:	2f80      	cmp	r7, #128	@ 0x80
    4e38:	f000 819b 	beq.w	5172 <_vfiprintf_r+0x62e>
    4e3c:	9803      	ldr	r0, [sp, #12]
    4e3e:	1ac5      	subs	r5, r0, r3
    4e40:	2d00      	cmp	r5, #0
    4e42:	f300 81d5 	bgt.w	51f0 <_vfiprintf_r+0x6ac>
    4e46:	3201      	adds	r2, #1
    4e48:	4419      	add	r1, r3
    4e4a:	2a07      	cmp	r2, #7
    4e4c:	e9cd 2110 	strd	r2, r1, [sp, #64]	@ 0x40
    4e50:	f8ca 4000 	str.w	r4, [sl]
    4e54:	f8ca 3004 	str.w	r3, [sl, #4]
    4e58:	f300 8202 	bgt.w	5260 <_vfiprintf_r+0x71c>
    4e5c:	f10a 0a08 	add.w	sl, sl, #8
    4e60:	f018 0f04 	tst.w	r8, #4
    4e64:	d005      	beq.n	4e72 <_vfiprintf_r+0x32e>
    4e66:	9b04      	ldr	r3, [sp, #16]
    4e68:	9a01      	ldr	r2, [sp, #4]
    4e6a:	1a9c      	subs	r4, r3, r2
    4e6c:	2c00      	cmp	r4, #0
    4e6e:	f300 8261 	bgt.w	5334 <_vfiprintf_r+0x7f0>
    4e72:	e9dd 2304 	ldrd	r2, r3, [sp, #16]
    4e76:	9801      	ldr	r0, [sp, #4]
    4e78:	4282      	cmp	r2, r0
    4e7a:	bfac      	ite	ge
    4e7c:	189b      	addge	r3, r3, r2
    4e7e:	181b      	addlt	r3, r3, r0
    4e80:	9305      	str	r3, [sp, #20]
    4e82:	2900      	cmp	r1, #0
    4e84:	f040 81f7 	bne.w	5276 <_vfiprintf_r+0x732>
    4e88:	2300      	movs	r3, #0
    4e8a:	9310      	str	r3, [sp, #64]	@ 0x40
    4e8c:	46ca      	mov	sl, r9
    4e8e:	e68e      	b.n	4bae <_vfiprintf_r+0x6a>
    4e90:	9a07      	ldr	r2, [sp, #28]
    4e92:	f018 0f10 	tst.w	r8, #16
    4e96:	f852 3b04 	ldr.w	r3, [r2], #4
    4e9a:	9207      	str	r2, [sp, #28]
    4e9c:	d107      	bne.n	4eae <_vfiprintf_r+0x36a>
    4e9e:	f018 0f40 	tst.w	r8, #64	@ 0x40
    4ea2:	d004      	beq.n	4eae <_vfiprintf_r+0x36a>
    4ea4:	f343 32c0 	sbfx	r2, r3, #15, #1
    4ea8:	4611      	mov	r1, r2
    4eaa:	b21b      	sxth	r3, r3
    4eac:	e723      	b.n	4cf6 <_vfiprintf_r+0x1b2>
    4eae:	17da      	asrs	r2, r3, #31
    4eb0:	4611      	mov	r1, r2
    4eb2:	2900      	cmp	r1, #0
    4eb4:	f6bf af22 	bge.w	4cfc <_vfiprintf_r+0x1b8>
    4eb8:	9903      	ldr	r1, [sp, #12]
    4eba:	425b      	negs	r3, r3
    4ebc:	eb62 0242 	sbc.w	r2, r2, r2, lsl #1
    4ec0:	252d      	movs	r5, #45	@ 0x2d
    4ec2:	2900      	cmp	r1, #0
    4ec4:	f88d 5037 	strb.w	r5, [sp, #55]	@ 0x37
    4ec8:	db01      	blt.n	4ece <_vfiprintf_r+0x38a>
    4eca:	f028 0880 	bic.w	r8, r8, #128	@ 0x80
    4ece:	2b0a      	cmp	r3, #10
    4ed0:	f172 0100 	sbcs.w	r1, r2, #0
    4ed4:	f080 82f3 	bcs.w	54be <_vfiprintf_r+0x97a>
    4ed8:	3330      	adds	r3, #48	@ 0x30
    4eda:	b2db      	uxtb	r3, r3
    4edc:	f88d 306f 	strb.w	r3, [sp, #111]	@ 0x6f
    4ee0:	9b03      	ldr	r3, [sp, #12]
    4ee2:	2b01      	cmp	r3, #1
    4ee4:	bfb8      	it	lt
    4ee6:	2301      	movlt	r3, #1
    4ee8:	9301      	str	r3, [sp, #4]
    4eea:	f10d 046f 	add.w	r4, sp, #111	@ 0x6f
    4eee:	2301      	movs	r3, #1
    4ef0:	e716      	b.n	4d20 <_vfiprintf_r+0x1dc>
    4ef2:	9b07      	ldr	r3, [sp, #28]
    4ef4:	f853 2b04 	ldr.w	r2, [r3], #4
    4ef8:	9204      	str	r2, [sp, #16]
    4efa:	2a00      	cmp	r2, #0
    4efc:	f280 8288 	bge.w	5410 <_vfiprintf_r+0x8cc>
    4f00:	9a04      	ldr	r2, [sp, #16]
    4f02:	9307      	str	r3, [sp, #28]
    4f04:	4252      	negs	r2, r2
    4f06:	9204      	str	r2, [sp, #16]
    4f08:	f89b 1000 	ldrb.w	r1, [fp]
    4f0c:	f048 0804 	orr.w	r8, r8, #4
    4f10:	e670      	b.n	4bf4 <_vfiprintf_r+0xb0>
    4f12:	4658      	mov	r0, fp
    4f14:	f810 1b01 	ldrb.w	r1, [r0], #1
    4f18:	292a      	cmp	r1, #42	@ 0x2a
    4f1a:	f000 835a 	beq.w	55d2 <_vfiprintf_r+0xa8e>
    4f1e:	f1a1 0330 	sub.w	r3, r1, #48	@ 0x30
    4f22:	2b09      	cmp	r3, #9
    4f24:	bf98      	it	ls
    4f26:	2200      	movls	r2, #0
    4f28:	f200 8347 	bhi.w	55ba <_vfiprintf_r+0xa76>
    4f2c:	f810 1b01 	ldrb.w	r1, [r0], #1
    4f30:	eb02 0282 	add.w	r2, r2, r2, lsl #2
    4f34:	eb03 0242 	add.w	r2, r3, r2, lsl #1
    4f38:	f1a1 0330 	sub.w	r3, r1, #48	@ 0x30
    4f3c:	2b09      	cmp	r3, #9
    4f3e:	d9f5      	bls.n	4f2c <_vfiprintf_r+0x3e8>
    4f40:	ea42 73e2 	orr.w	r3, r2, r2, asr #31
    4f44:	9303      	str	r3, [sp, #12]
    4f46:	4683      	mov	fp, r0
    4f48:	e656      	b.n	4bf8 <_vfiprintf_r+0xb4>
    4f4a:	f89b 1000 	ldrb.w	r1, [fp]
    4f4e:	f048 0880 	orr.w	r8, r8, #128	@ 0x80
    4f52:	e64f      	b.n	4bf4 <_vfiprintf_r+0xb0>
    4f54:	232b      	movs	r3, #43	@ 0x2b
    4f56:	f89b 1000 	ldrb.w	r1, [fp]
    4f5a:	f88d 3037 	strb.w	r3, [sp, #55]	@ 0x37
    4f5e:	e649      	b.n	4bf4 <_vfiprintf_r+0xb0>
    4f60:	f89b 1000 	ldrb.w	r1, [fp]
    4f64:	f048 0801 	orr.w	r8, r8, #1
    4f68:	e644      	b.n	4bf4 <_vfiprintf_r+0xb0>
    4f6a:	f89d 3037 	ldrb.w	r3, [sp, #55]	@ 0x37
    4f6e:	f89b 1000 	ldrb.w	r1, [fp]
    4f72:	2b00      	cmp	r3, #0
    4f74:	f47f ae3e 	bne.w	4bf4 <_vfiprintf_r+0xb0>
    4f78:	2320      	movs	r3, #32
    4f7a:	f88d 3037 	strb.w	r3, [sp, #55]	@ 0x37
    4f7e:	e639      	b.n	4bf4 <_vfiprintf_r+0xb0>
    4f80:	f018 0f20 	tst.w	r8, #32
    4f84:	f000 824d 	beq.w	5422 <_vfiprintf_r+0x8de>
    4f88:	9b07      	ldr	r3, [sp, #28]
    4f8a:	9a05      	ldr	r2, [sp, #20]
    4f8c:	681b      	ldr	r3, [r3, #0]
    4f8e:	601a      	str	r2, [r3, #0]
    4f90:	17d2      	asrs	r2, r2, #31
    4f92:	605a      	str	r2, [r3, #4]
    4f94:	9b07      	ldr	r3, [sp, #28]
    4f96:	3304      	adds	r3, #4
    4f98:	9307      	str	r3, [sp, #28]
    4f9a:	e608      	b.n	4bae <_vfiprintf_r+0x6a>
    4f9c:	f89b 1000 	ldrb.w	r1, [fp]
    4fa0:	296c      	cmp	r1, #108	@ 0x6c
    4fa2:	bf03      	ittte	eq
    4fa4:	f89b 1001 	ldrbeq.w	r1, [fp, #1]
    4fa8:	f048 0820 	orreq.w	r8, r8, #32
    4fac:	f10b 0b01 	addeq.w	fp, fp, #1
    4fb0:	f048 0810 	orrne.w	r8, r8, #16
    4fb4:	e61e      	b.n	4bf4 <_vfiprintf_r+0xb0>
    4fb6:	f89b 1000 	ldrb.w	r1, [fp]
    4fba:	f048 0840 	orr.w	r8, r8, #64	@ 0x40
    4fbe:	e619      	b.n	4bf4 <_vfiprintf_r+0xb0>
    4fc0:	9b07      	ldr	r3, [sp, #28]
    4fc2:	2200      	movs	r2, #0
    4fc4:	f88d 2037 	strb.w	r2, [sp, #55]	@ 0x37
    4fc8:	f853 2b04 	ldr.w	r2, [r3], #4
    4fcc:	9307      	str	r3, [sp, #28]
    4fce:	2301      	movs	r3, #1
    4fd0:	f88d 2048 	strb.w	r2, [sp, #72]	@ 0x48
    4fd4:	9301      	str	r3, [sp, #4]
    4fd6:	ac12      	add	r4, sp, #72	@ 0x48
    4fd8:	e6f9      	b.n	4dce <_vfiprintf_r+0x28a>
    4fda:	f048 0110 	orr.w	r1, r8, #16
    4fde:	f011 0220 	ands.w	r2, r1, #32
    4fe2:	f000 81de 	beq.w	53a2 <_vfiprintf_r+0x85e>
    4fe6:	9b07      	ldr	r3, [sp, #28]
    4fe8:	3307      	adds	r3, #7
    4fea:	f023 0307 	bic.w	r3, r3, #7
    4fee:	4618      	mov	r0, r3
    4ff0:	685a      	ldr	r2, [r3, #4]
    4ff2:	f850 3b08 	ldr.w	r3, [r0], #8
    4ff6:	9007      	str	r0, [sp, #28]
    4ff8:	9803      	ldr	r0, [sp, #12]
    4ffa:	2500      	movs	r5, #0
    4ffc:	42a8      	cmp	r0, r5
    4ffe:	f88d 5037 	strb.w	r5, [sp, #55]	@ 0x37
    5002:	f2c0 82a7 	blt.w	5554 <_vfiprintf_r+0xa10>
    5006:	2501      	movs	r5, #1
    5008:	ea53 0002 	orrs.w	r0, r3, r2
    500c:	f021 0880 	bic.w	r8, r1, #128	@ 0x80
    5010:	f040 8094 	bne.w	513c <_vfiprintf_r+0x5f8>
    5014:	9803      	ldr	r0, [sp, #12]
    5016:	2800      	cmp	r0, #0
    5018:	f040 829e 	bne.w	5558 <_vfiprintf_r+0xa14>
    501c:	2d00      	cmp	r5, #0
    501e:	f040 81f3 	bne.w	5408 <_vfiprintf_r+0x8c4>
    5022:	f011 0301 	ands.w	r3, r1, #1
    5026:	f000 81f8 	beq.w	541a <_vfiprintf_r+0x8d6>
    502a:	2230      	movs	r2, #48	@ 0x30
    502c:	f88d 206f 	strb.w	r2, [sp, #111]	@ 0x6f
    5030:	9301      	str	r3, [sp, #4]
    5032:	f10d 046f 	add.w	r4, sp, #111	@ 0x6f
    5036:	e034      	b.n	50a2 <_vfiprintf_r+0x55e>
    5038:	f048 0110 	orr.w	r1, r8, #16
    503c:	f011 0220 	ands.w	r2, r1, #32
    5040:	f000 81be 	beq.w	53c0 <_vfiprintf_r+0x87c>
    5044:	9b07      	ldr	r3, [sp, #28]
    5046:	3307      	adds	r3, #7
    5048:	f023 0307 	bic.w	r3, r3, #7
    504c:	4618      	mov	r0, r3
    504e:	685a      	ldr	r2, [r3, #4]
    5050:	f850 3b08 	ldr.w	r3, [r0], #8
    5054:	9007      	str	r0, [sp, #28]
    5056:	9803      	ldr	r0, [sp, #12]
    5058:	2500      	movs	r5, #0
    505a:	42a8      	cmp	r0, r5
    505c:	f88d 5037 	strb.w	r5, [sp, #55]	@ 0x37
    5060:	dad2      	bge.n	5008 <_vfiprintf_r+0x4c4>
    5062:	4688      	mov	r8, r1
    5064:	464c      	mov	r4, r9
    5066:	f003 0107 	and.w	r1, r3, #7
    506a:	08db      	lsrs	r3, r3, #3
    506c:	ea43 7342 	orr.w	r3, r3, r2, lsl #29
    5070:	08d2      	lsrs	r2, r2, #3
    5072:	3130      	adds	r1, #48	@ 0x30
    5074:	ea53 0502 	orrs.w	r5, r3, r2
    5078:	4620      	mov	r0, r4
    507a:	f804 1d01 	strb.w	r1, [r4, #-1]!
    507e:	d1f2      	bne.n	5066 <_vfiprintf_r+0x522>
    5080:	f018 0f01 	tst.w	r8, #1
    5084:	d06d      	beq.n	5162 <_vfiprintf_r+0x61e>
    5086:	2930      	cmp	r1, #48	@ 0x30
    5088:	d06b      	beq.n	5162 <_vfiprintf_r+0x61e>
    508a:	9a03      	ldr	r2, [sp, #12]
    508c:	3802      	subs	r0, #2
    508e:	2330      	movs	r3, #48	@ 0x30
    5090:	f804 3c01 	strb.w	r3, [r4, #-1]
    5094:	eba9 0300 	sub.w	r3, r9, r0
    5098:	429a      	cmp	r2, r3
    509a:	bfb8      	it	lt
    509c:	461a      	movlt	r2, r3
    509e:	4604      	mov	r4, r0
    50a0:	9201      	str	r2, [sp, #4]
    50a2:	f018 0202 	ands.w	r2, r8, #2
    50a6:	9206      	str	r2, [sp, #24]
    50a8:	f43f ae94 	beq.w	4dd4 <_vfiprintf_r+0x290>
    50ac:	9a01      	ldr	r2, [sp, #4]
    50ae:	3202      	adds	r2, #2
    50b0:	9201      	str	r2, [sp, #4]
    50b2:	2202      	movs	r2, #2
    50b4:	9206      	str	r2, [sp, #24]
    50b6:	e68d      	b.n	4dd4 <_vfiprintf_r+0x290>
    50b8:	9d07      	ldr	r5, [sp, #28]
    50ba:	9b03      	ldr	r3, [sp, #12]
    50bc:	f855 4b04 	ldr.w	r4, [r5], #4
    50c0:	2100      	movs	r1, #0
    50c2:	f88d 1037 	strb.w	r1, [sp, #55]	@ 0x37
    50c6:	2c00      	cmp	r4, #0
    50c8:	f000 825e 	beq.w	5588 <_vfiprintf_r+0xa44>
    50cc:	2b00      	cmp	r3, #0
    50ce:	f2c0 81df 	blt.w	5490 <_vfiprintf_r+0x94c>
    50d2:	461a      	mov	r2, r3
    50d4:	4620      	mov	r0, r4
    50d6:	f7fe fee3 	bl	3ea0 <memchr>
    50da:	2800      	cmp	r0, #0
    50dc:	f000 826b 	beq.w	55b6 <_vfiprintf_r+0xa72>
    50e0:	1b03      	subs	r3, r0, r4
    50e2:	f89d 2037 	ldrb.w	r2, [sp, #55]	@ 0x37
    50e6:	ea23 71e3 	bic.w	r1, r3, r3, asr #31
    50ea:	9101      	str	r1, [sp, #4]
    50ec:	2a00      	cmp	r2, #0
    50ee:	f000 8252 	beq.w	5596 <_vfiprintf_r+0xa52>
    50f2:	2200      	movs	r2, #0
    50f4:	9507      	str	r5, [sp, #28]
    50f6:	9203      	str	r2, [sp, #12]
    50f8:	e615      	b.n	4d26 <_vfiprintf_r+0x1e2>
    50fa:	f89b 1000 	ldrb.w	r1, [fp]
    50fe:	f048 0820 	orr.w	r8, r8, #32
    5102:	e577      	b.n	4bf4 <_vfiprintf_r+0xb0>
    5104:	9a07      	ldr	r2, [sp, #28]
    5106:	f852 3b04 	ldr.w	r3, [r2], #4
    510a:	9207      	str	r2, [sp, #28]
    510c:	f647 0230 	movw	r2, #30768	@ 0x7830
    5110:	f8ad 2038 	strh.w	r2, [sp, #56]	@ 0x38
    5114:	4ab2      	ldr	r2, [pc, #712]	@ (53e0 <_vfiprintf_r+0x89c>)
    5116:	9209      	str	r2, [sp, #36]	@ 0x24
    5118:	f048 0802 	orr.w	r8, r8, #2
    511c:	2200      	movs	r2, #0
    511e:	2100      	movs	r1, #0
    5120:	f88d 1037 	strb.w	r1, [sp, #55]	@ 0x37
    5124:	9903      	ldr	r1, [sp, #12]
    5126:	2900      	cmp	r1, #0
    5128:	db0d      	blt.n	5146 <_vfiprintf_r+0x602>
    512a:	4641      	mov	r1, r8
    512c:	ea53 0002 	orrs.w	r0, r3, r2
    5130:	f04f 0502 	mov.w	r5, #2
    5134:	f021 0880 	bic.w	r8, r1, #128	@ 0x80
    5138:	f43f af6c 	beq.w	5014 <_vfiprintf_r+0x4d0>
    513c:	2d01      	cmp	r5, #1
    513e:	f000 8254 	beq.w	55ea <_vfiprintf_r+0xaa6>
    5142:	2d02      	cmp	r5, #2
    5144:	d18e      	bne.n	5064 <_vfiprintf_r+0x520>
    5146:	9809      	ldr	r0, [sp, #36]	@ 0x24
    5148:	464c      	mov	r4, r9
    514a:	f003 010f 	and.w	r1, r3, #15
    514e:	091b      	lsrs	r3, r3, #4
    5150:	5c41      	ldrb	r1, [r0, r1]
    5152:	f804 1d01 	strb.w	r1, [r4, #-1]!
    5156:	ea43 7302 	orr.w	r3, r3, r2, lsl #28
    515a:	0912      	lsrs	r2, r2, #4
    515c:	ea53 0102 	orrs.w	r1, r3, r2
    5160:	d1f3      	bne.n	514a <_vfiprintf_r+0x606>
    5162:	9a03      	ldr	r2, [sp, #12]
    5164:	eba9 0304 	sub.w	r3, r9, r4
    5168:	429a      	cmp	r2, r3
    516a:	bfb8      	it	lt
    516c:	461a      	movlt	r2, r3
    516e:	9201      	str	r2, [sp, #4]
    5170:	e797      	b.n	50a2 <_vfiprintf_r+0x55e>
    5172:	9804      	ldr	r0, [sp, #16]
    5174:	9d01      	ldr	r5, [sp, #4]
    5176:	1b45      	subs	r5, r0, r5
    5178:	2d00      	cmp	r5, #0
    517a:	f77f ae5f 	ble.w	4e3c <_vfiprintf_r+0x2f8>
    517e:	2d10      	cmp	r5, #16
    5180:	4e98      	ldr	r6, [pc, #608]	@ (53e4 <_vfiprintf_r+0x8a0>)
    5182:	dd23      	ble.n	51cc <_vfiprintf_r+0x688>
    5184:	9406      	str	r4, [sp, #24]
    5186:	4650      	mov	r0, sl
    5188:	9c08      	ldr	r4, [sp, #32]
    518a:	2710      	movs	r7, #16
    518c:	469a      	mov	sl, r3
    518e:	e004      	b.n	519a <_vfiprintf_r+0x656>
    5190:	3d10      	subs	r5, #16
    5192:	2d10      	cmp	r5, #16
    5194:	f100 0008 	add.w	r0, r0, #8
    5198:	dd15      	ble.n	51c6 <_vfiprintf_r+0x682>
    519a:	3201      	adds	r2, #1
    519c:	3110      	adds	r1, #16
    519e:	2a07      	cmp	r2, #7
    51a0:	e9c0 6700 	strd	r6, r7, [r0]
    51a4:	e9cd 2110 	strd	r2, r1, [sp, #64]	@ 0x40
    51a8:	ddf2      	ble.n	5190 <_vfiprintf_r+0x64c>
    51aa:	9902      	ldr	r1, [sp, #8]
    51ac:	aa0f      	add	r2, sp, #60	@ 0x3c
    51ae:	4620      	mov	r0, r4
    51b0:	f000 faf8 	bl	57a4 <__sprint_r>
    51b4:	2800      	cmp	r0, #0
    51b6:	f47f adf7 	bne.w	4da8 <_vfiprintf_r+0x264>
    51ba:	3d10      	subs	r5, #16
    51bc:	2d10      	cmp	r5, #16
    51be:	e9dd 2110 	ldrd	r2, r1, [sp, #64]	@ 0x40
    51c2:	4648      	mov	r0, r9
    51c4:	dce9      	bgt.n	519a <_vfiprintf_r+0x656>
    51c6:	9c06      	ldr	r4, [sp, #24]
    51c8:	4653      	mov	r3, sl
    51ca:	4682      	mov	sl, r0
    51cc:	3201      	adds	r2, #1
    51ce:	4429      	add	r1, r5
    51d0:	2a07      	cmp	r2, #7
    51d2:	e9cd 2110 	strd	r2, r1, [sp, #64]	@ 0x40
    51d6:	f8ca 6000 	str.w	r6, [sl]
    51da:	f8ca 5004 	str.w	r5, [sl, #4]
    51de:	f300 81c5 	bgt.w	556c <_vfiprintf_r+0xa28>
    51e2:	9803      	ldr	r0, [sp, #12]
    51e4:	1ac5      	subs	r5, r0, r3
    51e6:	2d00      	cmp	r5, #0
    51e8:	f10a 0a08 	add.w	sl, sl, #8
    51ec:	f77f ae2b 	ble.w	4e46 <_vfiprintf_r+0x302>
    51f0:	2d10      	cmp	r5, #16
    51f2:	4e7c      	ldr	r6, [pc, #496]	@ (53e4 <_vfiprintf_r+0x8a0>)
    51f4:	dd26      	ble.n	5244 <_vfiprintf_r+0x700>
    51f6:	9403      	str	r4, [sp, #12]
    51f8:	4650      	mov	r0, sl
    51fa:	9c08      	ldr	r4, [sp, #32]
    51fc:	46b2      	mov	sl, r6
    51fe:	2710      	movs	r7, #16
    5200:	461e      	mov	r6, r3
    5202:	e004      	b.n	520e <_vfiprintf_r+0x6ca>
    5204:	3d10      	subs	r5, #16
    5206:	2d10      	cmp	r5, #16
    5208:	f100 0008 	add.w	r0, r0, #8
    520c:	dd16      	ble.n	523c <_vfiprintf_r+0x6f8>
    520e:	3201      	adds	r2, #1
    5210:	4b74      	ldr	r3, [pc, #464]	@ (53e4 <_vfiprintf_r+0x8a0>)
    5212:	3110      	adds	r1, #16
    5214:	2a07      	cmp	r2, #7
    5216:	e9c0 3700 	strd	r3, r7, [r0]
    521a:	e9cd 2110 	strd	r2, r1, [sp, #64]	@ 0x40
    521e:	ddf1      	ble.n	5204 <_vfiprintf_r+0x6c0>
    5220:	9902      	ldr	r1, [sp, #8]
    5222:	aa0f      	add	r2, sp, #60	@ 0x3c
    5224:	4620      	mov	r0, r4
    5226:	f000 fabd 	bl	57a4 <__sprint_r>
    522a:	2800      	cmp	r0, #0
    522c:	f47f adbc 	bne.w	4da8 <_vfiprintf_r+0x264>
    5230:	3d10      	subs	r5, #16
    5232:	2d10      	cmp	r5, #16
    5234:	e9dd 2110 	ldrd	r2, r1, [sp, #64]	@ 0x40
    5238:	4648      	mov	r0, r9
    523a:	dce8      	bgt.n	520e <_vfiprintf_r+0x6ca>
    523c:	9c03      	ldr	r4, [sp, #12]
    523e:	4633      	mov	r3, r6
    5240:	4656      	mov	r6, sl
    5242:	4682      	mov	sl, r0
    5244:	3201      	adds	r2, #1
    5246:	4429      	add	r1, r5
    5248:	2a07      	cmp	r2, #7
    524a:	e9cd 2110 	strd	r2, r1, [sp, #64]	@ 0x40
    524e:	f8ca 6000 	str.w	r6, [sl]
    5252:	f8ca 5004 	str.w	r5, [sl, #4]
    5256:	f300 80c9 	bgt.w	53ec <_vfiprintf_r+0x8a8>
    525a:	f10a 0a08 	add.w	sl, sl, #8
    525e:	e5f2      	b.n	4e46 <_vfiprintf_r+0x302>
    5260:	9902      	ldr	r1, [sp, #8]
    5262:	9808      	ldr	r0, [sp, #32]
    5264:	aa0f      	add	r2, sp, #60	@ 0x3c
    5266:	f000 fa9d 	bl	57a4 <__sprint_r>
    526a:	2800      	cmp	r0, #0
    526c:	f47f ad9c 	bne.w	4da8 <_vfiprintf_r+0x264>
    5270:	9911      	ldr	r1, [sp, #68]	@ 0x44
    5272:	46ca      	mov	sl, r9
    5274:	e5f4      	b.n	4e60 <_vfiprintf_r+0x31c>
    5276:	9902      	ldr	r1, [sp, #8]
    5278:	9808      	ldr	r0, [sp, #32]
    527a:	aa0f      	add	r2, sp, #60	@ 0x3c
    527c:	f000 fa92 	bl	57a4 <__sprint_r>
    5280:	2800      	cmp	r0, #0
    5282:	f43f ae01 	beq.w	4e88 <_vfiprintf_r+0x344>
    5286:	e58f      	b.n	4da8 <_vfiprintf_r+0x264>
    5288:	2d10      	cmp	r5, #16
    528a:	4e57      	ldr	r6, [pc, #348]	@ (53e8 <_vfiprintf_r+0x8a4>)
    528c:	dd28      	ble.n	52e0 <_vfiprintf_r+0x79c>
    528e:	e9cd 740a 	strd	r7, r4, [sp, #40]	@ 0x28
    5292:	4650      	mov	r0, sl
    5294:	4637      	mov	r7, r6
    5296:	9c08      	ldr	r4, [sp, #32]
    5298:	9e02      	ldr	r6, [sp, #8]
    529a:	469a      	mov	sl, r3
    529c:	e004      	b.n	52a8 <_vfiprintf_r+0x764>
    529e:	3d10      	subs	r5, #16
    52a0:	2d10      	cmp	r5, #16
    52a2:	f100 0008 	add.w	r0, r0, #8
    52a6:	dd16      	ble.n	52d6 <_vfiprintf_r+0x792>
    52a8:	3201      	adds	r2, #1
    52aa:	3110      	adds	r1, #16
    52ac:	2310      	movs	r3, #16
    52ae:	2a07      	cmp	r2, #7
    52b0:	e9cd 2110 	strd	r2, r1, [sp, #64]	@ 0x40
    52b4:	6007      	str	r7, [r0, #0]
    52b6:	6043      	str	r3, [r0, #4]
    52b8:	ddf1      	ble.n	529e <_vfiprintf_r+0x75a>
    52ba:	aa0f      	add	r2, sp, #60	@ 0x3c
    52bc:	4631      	mov	r1, r6
    52be:	4620      	mov	r0, r4
    52c0:	f000 fa70 	bl	57a4 <__sprint_r>
    52c4:	2800      	cmp	r0, #0
    52c6:	f47f ad6f 	bne.w	4da8 <_vfiprintf_r+0x264>
    52ca:	3d10      	subs	r5, #16
    52cc:	2d10      	cmp	r5, #16
    52ce:	e9dd 2110 	ldrd	r2, r1, [sp, #64]	@ 0x40
    52d2:	4648      	mov	r0, r9
    52d4:	dce8      	bgt.n	52a8 <_vfiprintf_r+0x764>
    52d6:	463e      	mov	r6, r7
    52d8:	9c0b      	ldr	r4, [sp, #44]	@ 0x2c
    52da:	9f0a      	ldr	r7, [sp, #40]	@ 0x28
    52dc:	4653      	mov	r3, sl
    52de:	4682      	mov	sl, r0
    52e0:	3201      	adds	r2, #1
    52e2:	4429      	add	r1, r5
    52e4:	2a07      	cmp	r2, #7
    52e6:	e9cd 2110 	strd	r2, r1, [sp, #64]	@ 0x40
    52ea:	f8ca 6000 	str.w	r6, [sl]
    52ee:	f8ca 5004 	str.w	r5, [sl, #4]
    52f2:	f300 8121 	bgt.w	5538 <_vfiprintf_r+0x9f4>
    52f6:	f10a 0a08 	add.w	sl, sl, #8
    52fa:	e576      	b.n	4dea <_vfiprintf_r+0x2a6>
    52fc:	9902      	ldr	r1, [sp, #8]
    52fe:	9808      	ldr	r0, [sp, #32]
    5300:	930a      	str	r3, [sp, #40]	@ 0x28
    5302:	aa0f      	add	r2, sp, #60	@ 0x3c
    5304:	f000 fa4e 	bl	57a4 <__sprint_r>
    5308:	2800      	cmp	r0, #0
    530a:	f47f ad4d 	bne.w	4da8 <_vfiprintf_r+0x264>
    530e:	e9dd 2110 	ldrd	r2, r1, [sp, #64]	@ 0x40
    5312:	9b0a      	ldr	r3, [sp, #40]	@ 0x28
    5314:	46ca      	mov	sl, r9
    5316:	e57c      	b.n	4e12 <_vfiprintf_r+0x2ce>
    5318:	9902      	ldr	r1, [sp, #8]
    531a:	9808      	ldr	r0, [sp, #32]
    531c:	9306      	str	r3, [sp, #24]
    531e:	aa0f      	add	r2, sp, #60	@ 0x3c
    5320:	f000 fa40 	bl	57a4 <__sprint_r>
    5324:	2800      	cmp	r0, #0
    5326:	f47f ad3f 	bne.w	4da8 <_vfiprintf_r+0x264>
    532a:	e9dd 2110 	ldrd	r2, r1, [sp, #64]	@ 0x40
    532e:	9b06      	ldr	r3, [sp, #24]
    5330:	46ca      	mov	sl, r9
    5332:	e580      	b.n	4e36 <_vfiprintf_r+0x2f2>
    5334:	2c10      	cmp	r4, #16
    5336:	9b10      	ldr	r3, [sp, #64]	@ 0x40
    5338:	4e2b      	ldr	r6, [pc, #172]	@ (53e8 <_vfiprintf_r+0x8a4>)
    533a:	dd1f      	ble.n	537c <_vfiprintf_r+0x838>
    533c:	9f08      	ldr	r7, [sp, #32]
    533e:	f8dd 8008 	ldr.w	r8, [sp, #8]
    5342:	2510      	movs	r5, #16
    5344:	e004      	b.n	5350 <_vfiprintf_r+0x80c>
    5346:	3c10      	subs	r4, #16
    5348:	2c10      	cmp	r4, #16
    534a:	f10a 0a08 	add.w	sl, sl, #8
    534e:	dd15      	ble.n	537c <_vfiprintf_r+0x838>
    5350:	3301      	adds	r3, #1
    5352:	3110      	adds	r1, #16
    5354:	2b07      	cmp	r3, #7
    5356:	e9ca 6500 	strd	r6, r5, [sl]
    535a:	e9cd 3110 	strd	r3, r1, [sp, #64]	@ 0x40
    535e:	ddf2      	ble.n	5346 <_vfiprintf_r+0x802>
    5360:	aa0f      	add	r2, sp, #60	@ 0x3c
    5362:	4641      	mov	r1, r8
    5364:	4638      	mov	r0, r7
    5366:	f000 fa1d 	bl	57a4 <__sprint_r>
    536a:	2800      	cmp	r0, #0
    536c:	f47f ad1c 	bne.w	4da8 <_vfiprintf_r+0x264>
    5370:	3c10      	subs	r4, #16
    5372:	2c10      	cmp	r4, #16
    5374:	e9dd 3110 	ldrd	r3, r1, [sp, #64]	@ 0x40
    5378:	46ca      	mov	sl, r9
    537a:	dce9      	bgt.n	5350 <_vfiprintf_r+0x80c>
    537c:	3301      	adds	r3, #1
    537e:	4421      	add	r1, r4
    5380:	2b07      	cmp	r3, #7
    5382:	e9ca 6400 	strd	r6, r4, [sl]
    5386:	e9cd 3110 	strd	r3, r1, [sp, #64]	@ 0x40
    538a:	f77f ad72 	ble.w	4e72 <_vfiprintf_r+0x32e>
    538e:	9902      	ldr	r1, [sp, #8]
    5390:	9808      	ldr	r0, [sp, #32]
    5392:	aa0f      	add	r2, sp, #60	@ 0x3c
    5394:	f000 fa06 	bl	57a4 <__sprint_r>
    5398:	2800      	cmp	r0, #0
    539a:	f47f ad05 	bne.w	4da8 <_vfiprintf_r+0x264>
    539e:	9911      	ldr	r1, [sp, #68]	@ 0x44
    53a0:	e567      	b.n	4e72 <_vfiprintf_r+0x32e>
    53a2:	9807      	ldr	r0, [sp, #28]
    53a4:	f850 3b04 	ldr.w	r3, [r0], #4
    53a8:	9007      	str	r0, [sp, #28]
    53aa:	f011 0010 	ands.w	r0, r1, #16
    53ae:	f47f ae23 	bne.w	4ff8 <_vfiprintf_r+0x4b4>
    53b2:	f011 0240 	ands.w	r2, r1, #64	@ 0x40
    53b6:	f43f ae1f 	beq.w	4ff8 <_vfiprintf_r+0x4b4>
    53ba:	b29b      	uxth	r3, r3
    53bc:	4602      	mov	r2, r0
    53be:	e61b      	b.n	4ff8 <_vfiprintf_r+0x4b4>
    53c0:	9807      	ldr	r0, [sp, #28]
    53c2:	f850 3b04 	ldr.w	r3, [r0], #4
    53c6:	9007      	str	r0, [sp, #28]
    53c8:	f011 0010 	ands.w	r0, r1, #16
    53cc:	f47f ae43 	bne.w	5056 <_vfiprintf_r+0x512>
    53d0:	f011 0240 	ands.w	r2, r1, #64	@ 0x40
    53d4:	f43f ae3f 	beq.w	5056 <_vfiprintf_r+0x512>
    53d8:	b29b      	uxth	r3, r3
    53da:	4602      	mov	r2, r0
    53dc:	e63b      	b.n	5056 <_vfiprintf_r+0x512>
    53de:	bf00      	nop
    53e0:	00007890 	.word	0x00007890
    53e4:	00006f3c 	.word	0x00006f3c
    53e8:	00006f2c 	.word	0x00006f2c
    53ec:	9902      	ldr	r1, [sp, #8]
    53ee:	9808      	ldr	r0, [sp, #32]
    53f0:	9303      	str	r3, [sp, #12]
    53f2:	aa0f      	add	r2, sp, #60	@ 0x3c
    53f4:	f000 f9d6 	bl	57a4 <__sprint_r>
    53f8:	2800      	cmp	r0, #0
    53fa:	f47f acd5 	bne.w	4da8 <_vfiprintf_r+0x264>
    53fe:	e9dd 2110 	ldrd	r2, r1, [sp, #64]	@ 0x40
    5402:	9b03      	ldr	r3, [sp, #12]
    5404:	46ca      	mov	sl, r9
    5406:	e51e      	b.n	4e46 <_vfiprintf_r+0x302>
    5408:	9b03      	ldr	r3, [sp, #12]
    540a:	9301      	str	r3, [sp, #4]
    540c:	464c      	mov	r4, r9
    540e:	e648      	b.n	50a2 <_vfiprintf_r+0x55e>
    5410:	f89b 1000 	ldrb.w	r1, [fp]
    5414:	9307      	str	r3, [sp, #28]
    5416:	f7ff bbed 	b.w	4bf4 <_vfiprintf_r+0xb0>
    541a:	9a03      	ldr	r2, [sp, #12]
    541c:	9201      	str	r2, [sp, #4]
    541e:	464c      	mov	r4, r9
    5420:	e63f      	b.n	50a2 <_vfiprintf_r+0x55e>
    5422:	f018 0f10 	tst.w	r8, #16
    5426:	d138      	bne.n	549a <_vfiprintf_r+0x956>
    5428:	f018 0f40 	tst.w	r8, #64	@ 0x40
    542c:	d035      	beq.n	549a <_vfiprintf_r+0x956>
    542e:	9b07      	ldr	r3, [sp, #28]
    5430:	9a05      	ldr	r2, [sp, #20]
    5432:	681b      	ldr	r3, [r3, #0]
    5434:	801a      	strh	r2, [r3, #0]
    5436:	e5ad      	b.n	4f94 <_vfiprintf_r+0x450>
    5438:	4641      	mov	r1, r8
    543a:	e5d0      	b.n	4fde <_vfiprintf_r+0x49a>
    543c:	4641      	mov	r1, r8
    543e:	e5fd      	b.n	503c <_vfiprintf_r+0x4f8>
    5440:	4b6b      	ldr	r3, [pc, #428]	@ (55f0 <_vfiprintf_r+0xaac>)
    5442:	9309      	str	r3, [sp, #36]	@ 0x24
    5444:	f018 0220 	ands.w	r2, r8, #32
    5448:	d02c      	beq.n	54a4 <_vfiprintf_r+0x960>
    544a:	9b07      	ldr	r3, [sp, #28]
    544c:	3307      	adds	r3, #7
    544e:	f023 0307 	bic.w	r3, r3, #7
    5452:	4618      	mov	r0, r3
    5454:	685a      	ldr	r2, [r3, #4]
    5456:	f850 3b08 	ldr.w	r3, [r0], #8
    545a:	9007      	str	r0, [sp, #28]
    545c:	f018 0f01 	tst.w	r8, #1
    5460:	f43f ae5d 	beq.w	511e <_vfiprintf_r+0x5da>
    5464:	ea53 0002 	orrs.w	r0, r3, r2
    5468:	f43f ae59 	beq.w	511e <_vfiprintf_r+0x5da>
    546c:	f88d 1039 	strb.w	r1, [sp, #57]	@ 0x39
    5470:	2130      	movs	r1, #48	@ 0x30
    5472:	f88d 1038 	strb.w	r1, [sp, #56]	@ 0x38
    5476:	2100      	movs	r1, #0
    5478:	f88d 1037 	strb.w	r1, [sp, #55]	@ 0x37
    547c:	9903      	ldr	r1, [sp, #12]
    547e:	2900      	cmp	r1, #0
    5480:	f280 808d 	bge.w	559e <_vfiprintf_r+0xa5a>
    5484:	f048 0802 	orr.w	r8, r8, #2
    5488:	e65d      	b.n	5146 <_vfiprintf_r+0x602>
    548a:	4b5a      	ldr	r3, [pc, #360]	@ (55f4 <_vfiprintf_r+0xab0>)
    548c:	9309      	str	r3, [sp, #36]	@ 0x24
    548e:	e7d9      	b.n	5444 <_vfiprintf_r+0x900>
    5490:	4620      	mov	r0, r4
    5492:	f7fa fe35 	bl	100 <strlen>
    5496:	4603      	mov	r3, r0
    5498:	e623      	b.n	50e2 <_vfiprintf_r+0x59e>
    549a:	9b07      	ldr	r3, [sp, #28]
    549c:	9a05      	ldr	r2, [sp, #20]
    549e:	681b      	ldr	r3, [r3, #0]
    54a0:	601a      	str	r2, [r3, #0]
    54a2:	e577      	b.n	4f94 <_vfiprintf_r+0x450>
    54a4:	9807      	ldr	r0, [sp, #28]
    54a6:	f850 3b04 	ldr.w	r3, [r0], #4
    54aa:	9007      	str	r0, [sp, #28]
    54ac:	f018 0010 	ands.w	r0, r8, #16
    54b0:	d1d4      	bne.n	545c <_vfiprintf_r+0x918>
    54b2:	f018 0240 	ands.w	r2, r8, #64	@ 0x40
    54b6:	bf1c      	itt	ne
    54b8:	b29b      	uxthne	r3, r3
    54ba:	4602      	movne	r2, r0
    54bc:	e7ce      	b.n	545c <_vfiprintf_r+0x918>
    54be:	4e4e      	ldr	r6, [pc, #312]	@ (55f8 <_vfiprintf_r+0xab4>)
    54c0:	f8cd a004 	str.w	sl, [sp, #4]
    54c4:	464c      	mov	r4, r9
    54c6:	f04f 0e05 	mov.w	lr, #5
    54ca:	1899      	adds	r1, r3, r2
    54cc:	f141 0100 	adc.w	r1, r1, #0
    54d0:	fba6 0701 	umull	r0, r7, r6, r1
    54d4:	f027 0003 	bic.w	r0, r7, #3
    54d8:	eb00 0097 	add.w	r0, r0, r7, lsr #2
    54dc:	1a09      	subs	r1, r1, r0
    54de:	1a58      	subs	r0, r3, r1
    54e0:	469a      	mov	sl, r3
    54e2:	4694      	mov	ip, r2
    54e4:	f162 0300 	sbc.w	r3, r2, #0
    54e8:	f04f 32cc 	mov.w	r2, #3435973836	@ 0xcccccccc
    54ec:	fb02 f200 	mul.w	r2, r2, r0
    54f0:	fb06 2203 	mla	r2, r6, r3, r2
    54f4:	fba0 3006 	umull	r3, r0, r0, r6
    54f8:	f003 0701 	and.w	r7, r3, #1
    54fc:	4402      	add	r2, r0
    54fe:	fba7 070e 	umull	r0, r7, r7, lr
    5502:	1840      	adds	r0, r0, r1
    5504:	f1ba 0f0a 	cmp.w	sl, #10
    5508:	ea4f 0353 	mov.w	r3, r3, lsr #1
    550c:	f100 0030 	add.w	r0, r0, #48	@ 0x30
    5510:	f17c 0c00 	sbcs.w	ip, ip, #0
    5514:	ea43 73c2 	orr.w	r3, r3, r2, lsl #31
    5518:	f804 0d01 	strb.w	r0, [r4, #-1]!
    551c:	ea4f 0252 	mov.w	r2, r2, lsr #1
    5520:	d2d3      	bcs.n	54ca <_vfiprintf_r+0x986>
    5522:	9a03      	ldr	r2, [sp, #12]
    5524:	f8dd a004 	ldr.w	sl, [sp, #4]
    5528:	eba9 0304 	sub.w	r3, r9, r4
    552c:	429a      	cmp	r2, r3
    552e:	bfb8      	it	lt
    5530:	461a      	movlt	r2, r3
    5532:	9201      	str	r2, [sp, #4]
    5534:	f7ff bbf4 	b.w	4d20 <_vfiprintf_r+0x1dc>
    5538:	9902      	ldr	r1, [sp, #8]
    553a:	9808      	ldr	r0, [sp, #32]
    553c:	930a      	str	r3, [sp, #40]	@ 0x28
    553e:	aa0f      	add	r2, sp, #60	@ 0x3c
    5540:	f000 f930 	bl	57a4 <__sprint_r>
    5544:	2800      	cmp	r0, #0
    5546:	f47f ac2f 	bne.w	4da8 <_vfiprintf_r+0x264>
    554a:	e9dd 2110 	ldrd	r2, r1, [sp, #64]	@ 0x40
    554e:	9b0a      	ldr	r3, [sp, #40]	@ 0x28
    5550:	46ca      	mov	sl, r9
    5552:	e44a      	b.n	4dea <_vfiprintf_r+0x2a6>
    5554:	4688      	mov	r8, r1
    5556:	e4ba      	b.n	4ece <_vfiprintf_r+0x38a>
    5558:	2d01      	cmp	r5, #1
    555a:	f47f adf2 	bne.w	5142 <_vfiprintf_r+0x5fe>
    555e:	2500      	movs	r5, #0
    5560:	2330      	movs	r3, #48	@ 0x30
    5562:	e4bb      	b.n	4edc <_vfiprintf_r+0x398>
    5564:	f7fd fe34 	bl	31d0 <__sinit>
    5568:	f7ff baf9 	b.w	4b5e <_vfiprintf_r+0x1a>
    556c:	9902      	ldr	r1, [sp, #8]
    556e:	9808      	ldr	r0, [sp, #32]
    5570:	9306      	str	r3, [sp, #24]
    5572:	aa0f      	add	r2, sp, #60	@ 0x3c
    5574:	f000 f916 	bl	57a4 <__sprint_r>
    5578:	2800      	cmp	r0, #0
    557a:	f47f ac15 	bne.w	4da8 <_vfiprintf_r+0x264>
    557e:	e9dd 2110 	ldrd	r2, r1, [sp, #64]	@ 0x40
    5582:	9b06      	ldr	r3, [sp, #24]
    5584:	46ca      	mov	sl, r9
    5586:	e459      	b.n	4e3c <_vfiprintf_r+0x2f8>
    5588:	2b06      	cmp	r3, #6
    558a:	bf28      	it	cs
    558c:	2306      	movcs	r3, #6
    558e:	4c1b      	ldr	r4, [pc, #108]	@ (55fc <_vfiprintf_r+0xab8>)
    5590:	9507      	str	r5, [sp, #28]
    5592:	9301      	str	r3, [sp, #4]
    5594:	e41b      	b.n	4dce <_vfiprintf_r+0x28a>
    5596:	e9cd 2506 	strd	r2, r5, [sp, #24]
    559a:	9203      	str	r2, [sp, #12]
    559c:	e41a      	b.n	4dd4 <_vfiprintf_r+0x290>
    559e:	f028 0180 	bic.w	r1, r8, #128	@ 0x80
    55a2:	f041 0802 	orr.w	r8, r1, #2
    55a6:	e5ce      	b.n	5146 <_vfiprintf_r+0x602>
    55a8:	9902      	ldr	r1, [sp, #8]
    55aa:	9808      	ldr	r0, [sp, #32]
    55ac:	aa0f      	add	r2, sp, #60	@ 0x3c
    55ae:	f000 f8f9 	bl	57a4 <__sprint_r>
    55b2:	f7ff bbf9 	b.w	4da8 <_vfiprintf_r+0x264>
    55b6:	9b03      	ldr	r3, [sp, #12]
    55b8:	e593      	b.n	50e2 <_vfiprintf_r+0x59e>
    55ba:	2300      	movs	r3, #0
    55bc:	4683      	mov	fp, r0
    55be:	9303      	str	r3, [sp, #12]
    55c0:	f7ff bb1a 	b.w	4bf8 <_vfiprintf_r+0xb4>
    55c4:	f04f 33ff 	mov.w	r3, #4294967295	@ 0xffffffff
    55c8:	9305      	str	r3, [sp, #20]
    55ca:	f7ff bbf2 	b.w	4db2 <_vfiprintf_r+0x26e>
    55ce:	2330      	movs	r3, #48	@ 0x30
    55d0:	e484      	b.n	4edc <_vfiprintf_r+0x398>
    55d2:	9b07      	ldr	r3, [sp, #28]
    55d4:	f89b 1001 	ldrb.w	r1, [fp, #1]
    55d8:	f853 2b04 	ldr.w	r2, [r3], #4
    55dc:	9307      	str	r3, [sp, #28]
    55de:	ea42 72e2 	orr.w	r2, r2, r2, asr #31
    55e2:	4683      	mov	fp, r0
    55e4:	9203      	str	r2, [sp, #12]
    55e6:	f7ff bb05 	b.w	4bf4 <_vfiprintf_r+0xb0>
    55ea:	2500      	movs	r5, #0
    55ec:	e46f      	b.n	4ece <_vfiprintf_r+0x38a>
    55ee:	bf00      	nop
    55f0:	0000787c 	.word	0x0000787c
    55f4:	00007890 	.word	0x00007890
    55f8:	cccccccd 	.word	0xcccccccd
    55fc:	000078a4 	.word	0x000078a4

00005600 <vfiprintf>:
    5600:	b410      	push	{r4}
    5602:	4c05      	ldr	r4, [pc, #20]	@ (5618 <vfiprintf+0x18>)
    5604:	4684      	mov	ip, r0
    5606:	4613      	mov	r3, r2
    5608:	6820      	ldr	r0, [r4, #0]
    560a:	f85d 4b04 	ldr.w	r4, [sp], #4
    560e:	460a      	mov	r2, r1
    5610:	4661      	mov	r1, ip
    5612:	f7ff ba97 	b.w	4b44 <_vfiprintf_r>
    5616:	bf00      	nop
    5618:	20000000 	.word	0x20000000

0000561c <__sbprintf>:
    561c:	b570      	push	{r4, r5, r6, lr}
    561e:	460c      	mov	r4, r1
    5620:	8989      	ldrh	r1, [r1, #12]
    5622:	f5ad 6d8d 	sub.w	sp, sp, #1128	@ 0x468
    5626:	f021 0102 	bic.w	r1, r1, #2
    562a:	f8ad 100c 	strh.w	r1, [sp, #12]
    562e:	a91a      	add	r1, sp, #104	@ 0x68
    5630:	9100      	str	r1, [sp, #0]
    5632:	9104      	str	r1, [sp, #16]
    5634:	f44f 6180 	mov.w	r1, #1024	@ 0x400
    5638:	9102      	str	r1, [sp, #8]
    563a:	9105      	str	r1, [sp, #20]
    563c:	6e61      	ldr	r1, [r4, #100]	@ 0x64
    563e:	9119      	str	r1, [sp, #100]	@ 0x64
    5640:	89e1      	ldrh	r1, [r4, #14]
    5642:	f8ad 100e 	strh.w	r1, [sp, #14]
    5646:	69e1      	ldr	r1, [r4, #28]
    5648:	9107      	str	r1, [sp, #28]
    564a:	6a61      	ldr	r1, [r4, #36]	@ 0x24
    564c:	9109      	str	r1, [sp, #36]	@ 0x24
    564e:	2100      	movs	r1, #0
    5650:	9106      	str	r1, [sp, #24]
    5652:	4669      	mov	r1, sp
    5654:	4606      	mov	r6, r0
    5656:	f7ff fa75 	bl	4b44 <_vfiprintf_r>
    565a:	1e05      	subs	r5, r0, #0
    565c:	db07      	blt.n	566e <__sbprintf+0x52>
    565e:	4669      	mov	r1, sp
    5660:	4630      	mov	r0, r6
    5662:	f7ff f9b5 	bl	49d0 <_fflush_r>
    5666:	2800      	cmp	r0, #0
    5668:	bf18      	it	ne
    566a:	f04f 35ff 	movne.w	r5, #4294967295	@ 0xffffffff
    566e:	f8bd 300c 	ldrh.w	r3, [sp, #12]
    5672:	065b      	lsls	r3, r3, #25
    5674:	d503      	bpl.n	567e <__sbprintf+0x62>
    5676:	89a3      	ldrh	r3, [r4, #12]
    5678:	f043 0340 	orr.w	r3, r3, #64	@ 0x40
    567c:	81a3      	strh	r3, [r4, #12]
    567e:	4628      	mov	r0, r5
    5680:	f50d 6d8d 	add.w	sp, sp, #1128	@ 0x468
    5684:	bd70      	pop	{r4, r5, r6, pc}
    5686:	bf00      	nop

00005688 <_read_r>:
    5688:	b538      	push	{r3, r4, r5, lr}
    568a:	460c      	mov	r4, r1
    568c:	4d08      	ldr	r5, [pc, #32]	@ (56b0 <_read_r+0x28>)
    568e:	4684      	mov	ip, r0
    5690:	4611      	mov	r1, r2
    5692:	4620      	mov	r0, r4
    5694:	461a      	mov	r2, r3
    5696:	2300      	movs	r3, #0
    5698:	602b      	str	r3, [r5, #0]
    569a:	4664      	mov	r4, ip
    569c:	f001 faa3 	bl	6be6 <_read>
    56a0:	1c43      	adds	r3, r0, #1
    56a2:	d000      	beq.n	56a6 <_read_r+0x1e>
    56a4:	bd38      	pop	{r3, r4, r5, pc}
    56a6:	682b      	ldr	r3, [r5, #0]
    56a8:	2b00      	cmp	r3, #0
    56aa:	d0fb      	beq.n	56a4 <_read_r+0x1c>
    56ac:	6023      	str	r3, [r4, #0]
    56ae:	bd38      	pop	{r3, r4, r5, pc}
    56b0:	20000820 	.word	0x20000820

000056b4 <__swsetup_r>:
    56b4:	b538      	push	{r3, r4, r5, lr}
    56b6:	4b2f      	ldr	r3, [pc, #188]	@ (5774 <__swsetup_r+0xc0>)
    56b8:	681b      	ldr	r3, [r3, #0]
    56ba:	4605      	mov	r5, r0
    56bc:	460c      	mov	r4, r1
    56be:	b113      	cbz	r3, 56c6 <__swsetup_r+0x12>
    56c0:	6b5a      	ldr	r2, [r3, #52]	@ 0x34
    56c2:	2a00      	cmp	r2, #0
    56c4:	d04b      	beq.n	575e <__swsetup_r+0xaa>
    56c6:	f9b4 300c 	ldrsh.w	r3, [r4, #12]
    56ca:	0718      	lsls	r0, r3, #28
    56cc:	d51c      	bpl.n	5708 <__swsetup_r+0x54>
    56ce:	6922      	ldr	r2, [r4, #16]
    56d0:	b322      	cbz	r2, 571c <__swsetup_r+0x68>
    56d2:	f013 0101 	ands.w	r1, r3, #1
    56d6:	d007      	beq.n	56e8 <__swsetup_r+0x34>
    56d8:	6961      	ldr	r1, [r4, #20]
    56da:	2000      	movs	r0, #0
    56dc:	4249      	negs	r1, r1
    56de:	60a0      	str	r0, [r4, #8]
    56e0:	61a1      	str	r1, [r4, #24]
    56e2:	b13a      	cbz	r2, 56f4 <__swsetup_r+0x40>
    56e4:	2000      	movs	r0, #0
    56e6:	bd38      	pop	{r3, r4, r5, pc}
    56e8:	0798      	lsls	r0, r3, #30
    56ea:	bf58      	it	pl
    56ec:	6961      	ldrpl	r1, [r4, #20]
    56ee:	60a1      	str	r1, [r4, #8]
    56f0:	2a00      	cmp	r2, #0
    56f2:	d1f7      	bne.n	56e4 <__swsetup_r+0x30>
    56f4:	0619      	lsls	r1, r3, #24
    56f6:	bf58      	it	pl
    56f8:	4610      	movpl	r0, r2
    56fa:	d5f4      	bpl.n	56e6 <__swsetup_r+0x32>
    56fc:	f043 0340 	orr.w	r3, r3, #64	@ 0x40
    5700:	81a3      	strh	r3, [r4, #12]
    5702:	f04f 30ff 	mov.w	r0, #4294967295	@ 0xffffffff
    5706:	bd38      	pop	{r3, r4, r5, pc}
    5708:	06d9      	lsls	r1, r3, #27
    570a:	d52c      	bpl.n	5766 <__swsetup_r+0xb2>
    570c:	075a      	lsls	r2, r3, #29
    570e:	d412      	bmi.n	5736 <__swsetup_r+0x82>
    5710:	6922      	ldr	r2, [r4, #16]
    5712:	f043 0308 	orr.w	r3, r3, #8
    5716:	81a3      	strh	r3, [r4, #12]
    5718:	2a00      	cmp	r2, #0
    571a:	d1da      	bne.n	56d2 <__swsetup_r+0x1e>
    571c:	f403 7120 	and.w	r1, r3, #640	@ 0x280
    5720:	f5b1 7f00 	cmp.w	r1, #512	@ 0x200
    5724:	d0d5      	beq.n	56d2 <__swsetup_r+0x1e>
    5726:	4621      	mov	r1, r4
    5728:	4628      	mov	r0, r5
    572a:	f000 f84b 	bl	57c4 <__smakebuf_r>
    572e:	f9b4 300c 	ldrsh.w	r3, [r4, #12]
    5732:	6922      	ldr	r2, [r4, #16]
    5734:	e7cd      	b.n	56d2 <__swsetup_r+0x1e>
    5736:	6b21      	ldr	r1, [r4, #48]	@ 0x30
    5738:	b151      	cbz	r1, 5750 <__swsetup_r+0x9c>
    573a:	f104 0240 	add.w	r2, r4, #64	@ 0x40
    573e:	4291      	cmp	r1, r2
    5740:	d004      	beq.n	574c <__swsetup_r+0x98>
    5742:	4628      	mov	r0, r5
    5744:	f7fd fa84 	bl	2c50 <_free_r>
    5748:	f9b4 300c 	ldrsh.w	r3, [r4, #12]
    574c:	2200      	movs	r2, #0
    574e:	6322      	str	r2, [r4, #48]	@ 0x30
    5750:	6922      	ldr	r2, [r4, #16]
    5752:	2100      	movs	r1, #0
    5754:	e9c4 2100 	strd	r2, r1, [r4]
    5758:	f023 0324 	bic.w	r3, r3, #36	@ 0x24
    575c:	e7d9      	b.n	5712 <__swsetup_r+0x5e>
    575e:	4618      	mov	r0, r3
    5760:	f7fd fd36 	bl	31d0 <__sinit>
    5764:	e7af      	b.n	56c6 <__swsetup_r+0x12>
    5766:	2209      	movs	r2, #9
    5768:	f043 0340 	orr.w	r3, r3, #64	@ 0x40
    576c:	602a      	str	r2, [r5, #0]
    576e:	81a3      	strh	r3, [r4, #12]
    5770:	e7c7      	b.n	5702 <__swsetup_r+0x4e>
    5772:	bf00      	nop
    5774:	20000000 	.word	0x20000000

00005778 <_lseek_r>:
    5778:	b538      	push	{r3, r4, r5, lr}
    577a:	460c      	mov	r4, r1
    577c:	4d08      	ldr	r5, [pc, #32]	@ (57a0 <_lseek_r+0x28>)
    577e:	4684      	mov	ip, r0
    5780:	4611      	mov	r1, r2
    5782:	4620      	mov	r0, r4
    5784:	461a      	mov	r2, r3
    5786:	2300      	movs	r3, #0
    5788:	602b      	str	r3, [r5, #0]
    578a:	4664      	mov	r4, ip
    578c:	f001 fa41 	bl	6c12 <_lseek>
    5790:	1c43      	adds	r3, r0, #1
    5792:	d000      	beq.n	5796 <_lseek_r+0x1e>
    5794:	bd38      	pop	{r3, r4, r5, pc}
    5796:	682b      	ldr	r3, [r5, #0]
    5798:	2b00      	cmp	r3, #0
    579a:	d0fb      	beq.n	5794 <_lseek_r+0x1c>
    579c:	6023      	str	r3, [r4, #0]
    579e:	bd38      	pop	{r3, r4, r5, pc}
    57a0:	20000820 	.word	0x20000820

000057a4 <__sprint_r>:
    57a4:	6893      	ldr	r3, [r2, #8]
    57a6:	b510      	push	{r4, lr}
    57a8:	4614      	mov	r4, r2
    57aa:	b91b      	cbnz	r3, 57b4 <__sprint_r+0x10>
    57ac:	4618      	mov	r0, r3
    57ae:	2300      	movs	r3, #0
    57b0:	6063      	str	r3, [r4, #4]
    57b2:	bd10      	pop	{r4, pc}
    57b4:	f000 f8cc 	bl	5950 <__sfvwrite_r>
    57b8:	2300      	movs	r3, #0
    57ba:	60a3      	str	r3, [r4, #8]
    57bc:	2300      	movs	r3, #0
    57be:	6063      	str	r3, [r4, #4]
    57c0:	bd10      	pop	{r4, pc}
    57c2:	bf00      	nop

000057c4 <__smakebuf_r>:
    57c4:	e92d 41f0 	stmdb	sp!, {r4, r5, r6, r7, r8, lr}
    57c8:	f9b1 300c 	ldrsh.w	r3, [r1, #12]
    57cc:	460c      	mov	r4, r1
    57ce:	0799      	lsls	r1, r3, #30
    57d0:	b096      	sub	sp, #88	@ 0x58
    57d2:	d508      	bpl.n	57e6 <__smakebuf_r+0x22>
    57d4:	f104 0343 	add.w	r3, r4, #67	@ 0x43
    57d8:	2201      	movs	r2, #1
    57da:	e9c4 3204 	strd	r3, r2, [r4, #16]
    57de:	6023      	str	r3, [r4, #0]
    57e0:	b016      	add	sp, #88	@ 0x58
    57e2:	e8bd 81f0 	ldmia.w	sp!, {r4, r5, r6, r7, r8, pc}
    57e6:	f9b4 100e 	ldrsh.w	r1, [r4, #14]
    57ea:	2900      	cmp	r1, #0
    57ec:	4606      	mov	r6, r0
    57ee:	db26      	blt.n	583e <__smakebuf_r+0x7a>
    57f0:	466a      	mov	r2, sp
    57f2:	f000 f885 	bl	5900 <_fstat_r>
    57f6:	2800      	cmp	r0, #0
    57f8:	db1f      	blt.n	583a <__smakebuf_r+0x76>
    57fa:	9d01      	ldr	r5, [sp, #4]
    57fc:	f405 4570 	and.w	r5, r5, #61440	@ 0xf000
    5800:	f5a5 5500 	sub.w	r5, r5, #8192	@ 0x2000
    5804:	fab5 f585 	clz	r5, r5
    5808:	f44f 6880 	mov.w	r8, #1024	@ 0x400
    580c:	096d      	lsrs	r5, r5, #5
    580e:	f44f 6700 	mov.w	r7, #2048	@ 0x800
    5812:	4641      	mov	r1, r8
    5814:	4630      	mov	r0, r6
    5816:	f7fb ff3d 	bl	1694 <_malloc_r>
    581a:	b1e8      	cbz	r0, 5858 <__smakebuf_r+0x94>
    581c:	f9b4 300c 	ldrsh.w	r3, [r4, #12]
    5820:	f8c4 8014 	str.w	r8, [r4, #20]
    5824:	f043 0380 	orr.w	r3, r3, #128	@ 0x80
    5828:	6020      	str	r0, [r4, #0]
    582a:	6120      	str	r0, [r4, #16]
    582c:	81a3      	strh	r3, [r4, #12]
    582e:	bb3d      	cbnz	r5, 5880 <__smakebuf_r+0xbc>
    5830:	433b      	orrs	r3, r7
    5832:	81a3      	strh	r3, [r4, #12]
    5834:	b016      	add	sp, #88	@ 0x58
    5836:	e8bd 81f0 	ldmia.w	sp!, {r4, r5, r6, r7, r8, pc}
    583a:	f9b4 300c 	ldrsh.w	r3, [r4, #12]
    583e:	f013 0580 	ands.w	r5, r3, #128	@ 0x80
    5842:	d019      	beq.n	5878 <__smakebuf_r+0xb4>
    5844:	f04f 0840 	mov.w	r8, #64	@ 0x40
    5848:	2500      	movs	r5, #0
    584a:	4641      	mov	r1, r8
    584c:	4630      	mov	r0, r6
    584e:	462f      	mov	r7, r5
    5850:	f7fb ff20 	bl	1694 <_malloc_r>
    5854:	2800      	cmp	r0, #0
    5856:	d1e1      	bne.n	581c <__smakebuf_r+0x58>
    5858:	f9b4 300c 	ldrsh.w	r3, [r4, #12]
    585c:	059a      	lsls	r2, r3, #22
    585e:	d4bf      	bmi.n	57e0 <__smakebuf_r+0x1c>
    5860:	f023 0303 	bic.w	r3, r3, #3
    5864:	f104 0243 	add.w	r2, r4, #67	@ 0x43
    5868:	f043 0302 	orr.w	r3, r3, #2
    586c:	2101      	movs	r1, #1
    586e:	e9c4 2104 	strd	r2, r1, [r4, #16]
    5872:	81a3      	strh	r3, [r4, #12]
    5874:	6022      	str	r2, [r4, #0]
    5876:	e7b3      	b.n	57e0 <__smakebuf_r+0x1c>
    5878:	f44f 6880 	mov.w	r8, #1024	@ 0x400
    587c:	462f      	mov	r7, r5
    587e:	e7c8      	b.n	5812 <__smakebuf_r+0x4e>
    5880:	f9b4 100e 	ldrsh.w	r1, [r4, #14]
    5884:	4630      	mov	r0, r6
    5886:	f000 f851 	bl	592c <_isatty_r>
    588a:	b910      	cbnz	r0, 5892 <__smakebuf_r+0xce>
    588c:	f9b4 300c 	ldrsh.w	r3, [r4, #12]
    5890:	e7ce      	b.n	5830 <__smakebuf_r+0x6c>
    5892:	89a3      	ldrh	r3, [r4, #12]
    5894:	f023 0303 	bic.w	r3, r3, #3
    5898:	f043 0301 	orr.w	r3, r3, #1
    589c:	b21b      	sxth	r3, r3
    589e:	e7c7      	b.n	5830 <__smakebuf_r+0x6c>

000058a0 <__swhatbuf_r>:
    58a0:	b570      	push	{r4, r5, r6, lr}
    58a2:	460c      	mov	r4, r1
    58a4:	f9b1 100e 	ldrsh.w	r1, [r1, #14]
    58a8:	2900      	cmp	r1, #0
    58aa:	b096      	sub	sp, #88	@ 0x58
    58ac:	4615      	mov	r5, r2
    58ae:	461e      	mov	r6, r3
    58b0:	db14      	blt.n	58dc <__swhatbuf_r+0x3c>
    58b2:	466a      	mov	r2, sp
    58b4:	f000 f824 	bl	5900 <_fstat_r>
    58b8:	2800      	cmp	r0, #0
    58ba:	db0f      	blt.n	58dc <__swhatbuf_r+0x3c>
    58bc:	9901      	ldr	r1, [sp, #4]
    58be:	f401 4170 	and.w	r1, r1, #61440	@ 0xf000
    58c2:	f5a1 5100 	sub.w	r1, r1, #8192	@ 0x2000
    58c6:	fab1 f181 	clz	r1, r1
    58ca:	f44f 6380 	mov.w	r3, #1024	@ 0x400
    58ce:	0949      	lsrs	r1, r1, #5
    58d0:	f44f 6000 	mov.w	r0, #2048	@ 0x800
    58d4:	6031      	str	r1, [r6, #0]
    58d6:	602b      	str	r3, [r5, #0]
    58d8:	b016      	add	sp, #88	@ 0x58
    58da:	bd70      	pop	{r4, r5, r6, pc}
    58dc:	89a1      	ldrh	r1, [r4, #12]
    58de:	f011 0180 	ands.w	r1, r1, #128	@ 0x80
    58e2:	d006      	beq.n	58f2 <__swhatbuf_r+0x52>
    58e4:	2100      	movs	r1, #0
    58e6:	2340      	movs	r3, #64	@ 0x40
    58e8:	4608      	mov	r0, r1
    58ea:	6031      	str	r1, [r6, #0]
    58ec:	602b      	str	r3, [r5, #0]
    58ee:	b016      	add	sp, #88	@ 0x58
    58f0:	bd70      	pop	{r4, r5, r6, pc}
    58f2:	f44f 6380 	mov.w	r3, #1024	@ 0x400
    58f6:	4608      	mov	r0, r1
    58f8:	6031      	str	r1, [r6, #0]
    58fa:	602b      	str	r3, [r5, #0]
    58fc:	b016      	add	sp, #88	@ 0x58
    58fe:	bd70      	pop	{r4, r5, r6, pc}

00005900 <_fstat_r>:
    5900:	b570      	push	{r4, r5, r6, lr}
    5902:	460c      	mov	r4, r1
    5904:	4d08      	ldr	r5, [pc, #32]	@ (5928 <_fstat_r+0x28>)
    5906:	4603      	mov	r3, r0
    5908:	2600      	movs	r6, #0
    590a:	4620      	mov	r0, r4
    590c:	4611      	mov	r1, r2
    590e:	461c      	mov	r4, r3
    5910:	602e      	str	r6, [r5, #0]
    5912:	f001 f980 	bl	6c16 <_fstat>
    5916:	1c43      	adds	r3, r0, #1
    5918:	d000      	beq.n	591c <_fstat_r+0x1c>
    591a:	bd70      	pop	{r4, r5, r6, pc}
    591c:	682b      	ldr	r3, [r5, #0]
    591e:	2b00      	cmp	r3, #0
    5920:	d0fb      	beq.n	591a <_fstat_r+0x1a>
    5922:	6023      	str	r3, [r4, #0]
    5924:	bd70      	pop	{r4, r5, r6, pc}
    5926:	bf00      	nop
    5928:	20000820 	.word	0x20000820

0000592c <_isatty_r>:
    592c:	b538      	push	{r3, r4, r5, lr}
    592e:	4d07      	ldr	r5, [pc, #28]	@ (594c <_isatty_r+0x20>)
    5930:	2200      	movs	r2, #0
    5932:	4604      	mov	r4, r0
    5934:	4608      	mov	r0, r1
    5936:	602a      	str	r2, [r5, #0]
    5938:	f001 f972 	bl	6c20 <_isatty>
    593c:	1c43      	adds	r3, r0, #1
    593e:	d000      	beq.n	5942 <_isatty_r+0x16>
    5940:	bd38      	pop	{r3, r4, r5, pc}
    5942:	682b      	ldr	r3, [r5, #0]
    5944:	2b00      	cmp	r3, #0
    5946:	d0fb      	beq.n	5940 <_isatty_r+0x14>
    5948:	6023      	str	r3, [r4, #0]
    594a:	bd38      	pop	{r3, r4, r5, pc}
    594c:	20000820 	.word	0x20000820

00005950 <__sfvwrite_r>:
    5950:	6893      	ldr	r3, [r2, #8]
    5952:	2b00      	cmp	r3, #0
    5954:	f000 80f8 	beq.w	5b48 <__sfvwrite_r+0x1f8>
    5958:	e92d 4ff0 	stmdb	sp!, {r4, r5, r6, r7, r8, r9, sl, fp, lr}
    595c:	f9b1 c00c 	ldrsh.w	ip, [r1, #12]
    5960:	f01c 0f08 	tst.w	ip, #8
    5964:	b083      	sub	sp, #12
    5966:	4690      	mov	r8, r2
    5968:	4681      	mov	r9, r0
    596a:	460c      	mov	r4, r1
    596c:	d031      	beq.n	59d2 <__sfvwrite_r+0x82>
    596e:	690b      	ldr	r3, [r1, #16]
    5970:	b37b      	cbz	r3, 59d2 <__sfvwrite_r+0x82>
    5972:	f01c 0702 	ands.w	r7, ip, #2
    5976:	f8d8 6000 	ldr.w	r6, [r8]
    597a:	d038      	beq.n	59ee <__sfvwrite_r+0x9e>
    597c:	2700      	movs	r7, #0
    597e:	f8d4 b024 	ldr.w	fp, [r4, #36]	@ 0x24
    5982:	69e1      	ldr	r1, [r4, #28]
    5984:	f8df a2c4 	ldr.w	sl, [pc, #708]	@ 5c4c <__sfvwrite_r+0x2fc>
    5988:	463d      	mov	r5, r7
    598a:	4555      	cmp	r5, sl
    598c:	462b      	mov	r3, r5
    598e:	463a      	mov	r2, r7
    5990:	bf28      	it	cs
    5992:	4653      	movcs	r3, sl
    5994:	4648      	mov	r0, r9
    5996:	b1c5      	cbz	r5, 59ca <__sfvwrite_r+0x7a>
    5998:	47d8      	blx	fp
    599a:	2800      	cmp	r0, #0
    599c:	f340 80ca 	ble.w	5b34 <__sfvwrite_r+0x1e4>
    59a0:	f8d8 3008 	ldr.w	r3, [r8, #8]
    59a4:	1a1b      	subs	r3, r3, r0
    59a6:	4407      	add	r7, r0
    59a8:	1a2d      	subs	r5, r5, r0
    59aa:	f8c8 3008 	str.w	r3, [r8, #8]
    59ae:	2b00      	cmp	r3, #0
    59b0:	f000 80b6 	beq.w	5b20 <__sfvwrite_r+0x1d0>
    59b4:	4555      	cmp	r5, sl
    59b6:	462b      	mov	r3, r5
    59b8:	f8d4 b024 	ldr.w	fp, [r4, #36]	@ 0x24
    59bc:	69e1      	ldr	r1, [r4, #28]
    59be:	bf28      	it	cs
    59c0:	4653      	movcs	r3, sl
    59c2:	463a      	mov	r2, r7
    59c4:	4648      	mov	r0, r9
    59c6:	2d00      	cmp	r5, #0
    59c8:	d1e6      	bne.n	5998 <__sfvwrite_r+0x48>
    59ca:	e9d6 7500 	ldrd	r7, r5, [r6]
    59ce:	3608      	adds	r6, #8
    59d0:	e7db      	b.n	598a <__sfvwrite_r+0x3a>
    59d2:	4621      	mov	r1, r4
    59d4:	4648      	mov	r0, r9
    59d6:	f7ff fe6d 	bl	56b4 <__swsetup_r>
    59da:	2800      	cmp	r0, #0
    59dc:	f040 80af 	bne.w	5b3e <__sfvwrite_r+0x1ee>
    59e0:	f9b4 c00c 	ldrsh.w	ip, [r4, #12]
    59e4:	f8d8 6000 	ldr.w	r6, [r8]
    59e8:	f01c 0702 	ands.w	r7, ip, #2
    59ec:	d1c6      	bne.n	597c <__sfvwrite_r+0x2c>
    59ee:	f01c 0a01 	ands.w	sl, ip, #1
    59f2:	d163      	bne.n	5abc <__sfvwrite_r+0x16c>
    59f4:	6823      	ldr	r3, [r4, #0]
    59f6:	68a1      	ldr	r1, [r4, #8]
    59f8:	4657      	mov	r7, sl
    59fa:	4618      	mov	r0, r3
    59fc:	468b      	mov	fp, r1
    59fe:	2f00      	cmp	r7, #0
    5a00:	d058      	beq.n	5ab4 <__sfvwrite_r+0x164>
    5a02:	f41c 7f00 	tst.w	ip, #512	@ 0x200
    5a06:	f000 80b5 	beq.w	5b74 <__sfvwrite_r+0x224>
    5a0a:	42b9      	cmp	r1, r7
    5a0c:	460a      	mov	r2, r1
    5a0e:	f200 80e1 	bhi.w	5bd4 <__sfvwrite_r+0x284>
    5a12:	f41c 6f90 	tst.w	ip, #1152	@ 0x480
    5a16:	d02f      	beq.n	5a78 <__sfvwrite_r+0x128>
    5a18:	6921      	ldr	r1, [r4, #16]
    5a1a:	6962      	ldr	r2, [r4, #20]
    5a1c:	1a5d      	subs	r5, r3, r1
    5a1e:	eb02 0242 	add.w	r2, r2, r2, lsl #1
    5a22:	eb02 72d2 	add.w	r2, r2, r2, lsr #31
    5a26:	1c6b      	adds	r3, r5, #1
    5a28:	1052      	asrs	r2, r2, #1
    5a2a:	443b      	add	r3, r7
    5a2c:	4293      	cmp	r3, r2
    5a2e:	bf92      	itee	ls
    5a30:	4693      	movls	fp, r2
    5a32:	469b      	movhi	fp, r3
    5a34:	461a      	movhi	r2, r3
    5a36:	f41c 6f80 	tst.w	ip, #1024	@ 0x400
    5a3a:	f000 80ea 	beq.w	5c12 <__sfvwrite_r+0x2c2>
    5a3e:	4611      	mov	r1, r2
    5a40:	4648      	mov	r0, r9
    5a42:	f7fb fe27 	bl	1694 <_malloc_r>
    5a46:	2800      	cmp	r0, #0
    5a48:	f000 80f9 	beq.w	5c3e <__sfvwrite_r+0x2ee>
    5a4c:	462a      	mov	r2, r5
    5a4e:	6921      	ldr	r1, [r4, #16]
    5a50:	9000      	str	r0, [sp, #0]
    5a52:	f7fd fa27 	bl	2ea4 <memcpy>
    5a56:	89a2      	ldrh	r2, [r4, #12]
    5a58:	9b00      	ldr	r3, [sp, #0]
    5a5a:	f422 6290 	bic.w	r2, r2, #1152	@ 0x480
    5a5e:	f042 0280 	orr.w	r2, r2, #128	@ 0x80
    5a62:	81a2      	strh	r2, [r4, #12]
    5a64:	1958      	adds	r0, r3, r5
    5a66:	ebab 0505 	sub.w	r5, fp, r5
    5a6a:	f8c4 b014 	str.w	fp, [r4, #20]
    5a6e:	6123      	str	r3, [r4, #16]
    5a70:	60a5      	str	r5, [r4, #8]
    5a72:	6020      	str	r0, [r4, #0]
    5a74:	46bb      	mov	fp, r7
    5a76:	463a      	mov	r2, r7
    5a78:	4651      	mov	r1, sl
    5a7a:	9200      	str	r2, [sp, #0]
    5a7c:	f7fe ffe2 	bl	4a44 <memmove>
    5a80:	68a1      	ldr	r1, [r4, #8]
    5a82:	6823      	ldr	r3, [r4, #0]
    5a84:	9a00      	ldr	r2, [sp, #0]
    5a86:	eba1 010b 	sub.w	r1, r1, fp
    5a8a:	441a      	add	r2, r3
    5a8c:	463d      	mov	r5, r7
    5a8e:	60a1      	str	r1, [r4, #8]
    5a90:	6022      	str	r2, [r4, #0]
    5a92:	2700      	movs	r7, #0
    5a94:	f8d8 3008 	ldr.w	r3, [r8, #8]
    5a98:	1b5b      	subs	r3, r3, r5
    5a9a:	44aa      	add	sl, r5
    5a9c:	f8c8 3008 	str.w	r3, [r8, #8]
    5aa0:	2b00      	cmp	r3, #0
    5aa2:	d03d      	beq.n	5b20 <__sfvwrite_r+0x1d0>
    5aa4:	6823      	ldr	r3, [r4, #0]
    5aa6:	68a1      	ldr	r1, [r4, #8]
    5aa8:	f9b4 c00c 	ldrsh.w	ip, [r4, #12]
    5aac:	4618      	mov	r0, r3
    5aae:	468b      	mov	fp, r1
    5ab0:	2f00      	cmp	r7, #0
    5ab2:	d1a6      	bne.n	5a02 <__sfvwrite_r+0xb2>
    5ab4:	e9d6 a700 	ldrd	sl, r7, [r6]
    5ab8:	3608      	adds	r6, #8
    5aba:	e79e      	b.n	59fa <__sfvwrite_r+0xaa>
    5abc:	4638      	mov	r0, r7
    5abe:	46bb      	mov	fp, r7
    5ac0:	463d      	mov	r5, r7
    5ac2:	9700      	str	r7, [sp, #0]
    5ac4:	2d00      	cmp	r5, #0
    5ac6:	d041      	beq.n	5b4c <__sfvwrite_r+0x1fc>
    5ac8:	2800      	cmp	r0, #0
    5aca:	d046      	beq.n	5b5a <__sfvwrite_r+0x20a>
    5acc:	9a00      	ldr	r2, [sp, #0]
    5ace:	6820      	ldr	r0, [r4, #0]
    5ad0:	68a1      	ldr	r1, [r4, #8]
    5ad2:	e9d4 7304 	ldrd	r7, r3, [r4, #16]
    5ad6:	42aa      	cmp	r2, r5
    5ad8:	bf28      	it	cs
    5ada:	462a      	movcs	r2, r5
    5adc:	42b8      	cmp	r0, r7
    5ade:	d904      	bls.n	5aea <__sfvwrite_r+0x19a>
    5ae0:	eb01 0a03 	add.w	sl, r1, r3
    5ae4:	4552      	cmp	r2, sl
    5ae6:	f300 8085 	bgt.w	5bf4 <__sfvwrite_r+0x2a4>
    5aea:	4293      	cmp	r3, r2
    5aec:	dc75      	bgt.n	5bda <__sfvwrite_r+0x28a>
    5aee:	69e1      	ldr	r1, [r4, #28]
    5af0:	6a67      	ldr	r7, [r4, #36]	@ 0x24
    5af2:	465a      	mov	r2, fp
    5af4:	4648      	mov	r0, r9
    5af6:	47b8      	blx	r7
    5af8:	f1b0 0a00 	subs.w	sl, r0, #0
    5afc:	dd1a      	ble.n	5b34 <__sfvwrite_r+0x1e4>
    5afe:	9b00      	ldr	r3, [sp, #0]
    5b00:	ebb3 030a 	subs.w	r3, r3, sl
    5b04:	9300      	str	r3, [sp, #0]
    5b06:	d00f      	beq.n	5b28 <__sfvwrite_r+0x1d8>
    5b08:	2001      	movs	r0, #1
    5b0a:	f8d8 3008 	ldr.w	r3, [r8, #8]
    5b0e:	eba3 030a 	sub.w	r3, r3, sl
    5b12:	44d3      	add	fp, sl
    5b14:	eba5 050a 	sub.w	r5, r5, sl
    5b18:	f8c8 3008 	str.w	r3, [r8, #8]
    5b1c:	2b00      	cmp	r3, #0
    5b1e:	d1d1      	bne.n	5ac4 <__sfvwrite_r+0x174>
    5b20:	2000      	movs	r0, #0
    5b22:	b003      	add	sp, #12
    5b24:	e8bd 8ff0 	ldmia.w	sp!, {r4, r5, r6, r7, r8, r9, sl, fp, pc}
    5b28:	4621      	mov	r1, r4
    5b2a:	4648      	mov	r0, r9
    5b2c:	f7fe ff50 	bl	49d0 <_fflush_r>
    5b30:	2800      	cmp	r0, #0
    5b32:	d0ea      	beq.n	5b0a <__sfvwrite_r+0x1ba>
    5b34:	f9b4 300c 	ldrsh.w	r3, [r4, #12]
    5b38:	f043 0340 	orr.w	r3, r3, #64	@ 0x40
    5b3c:	81a3      	strh	r3, [r4, #12]
    5b3e:	f04f 30ff 	mov.w	r0, #4294967295	@ 0xffffffff
    5b42:	b003      	add	sp, #12
    5b44:	e8bd 8ff0 	ldmia.w	sp!, {r4, r5, r6, r7, r8, r9, sl, fp, pc}
    5b48:	2000      	movs	r0, #0
    5b4a:	4770      	bx	lr
    5b4c:	6875      	ldr	r5, [r6, #4]
    5b4e:	4633      	mov	r3, r6
    5b50:	3608      	adds	r6, #8
    5b52:	2d00      	cmp	r5, #0
    5b54:	d0fa      	beq.n	5b4c <__sfvwrite_r+0x1fc>
    5b56:	f8d3 b000 	ldr.w	fp, [r3]
    5b5a:	462a      	mov	r2, r5
    5b5c:	210a      	movs	r1, #10
    5b5e:	4658      	mov	r0, fp
    5b60:	f7fe f99e 	bl	3ea0 <memchr>
    5b64:	2800      	cmp	r0, #0
    5b66:	d067      	beq.n	5c38 <__sfvwrite_r+0x2e8>
    5b68:	3001      	adds	r0, #1
    5b6a:	eba0 030b 	sub.w	r3, r0, fp
    5b6e:	9300      	str	r3, [sp, #0]
    5b70:	461a      	mov	r2, r3
    5b72:	e7ac      	b.n	5ace <__sfvwrite_r+0x17e>
    5b74:	6922      	ldr	r2, [r4, #16]
    5b76:	429a      	cmp	r2, r3
    5b78:	d314      	bcc.n	5ba4 <__sfvwrite_r+0x254>
    5b7a:	6962      	ldr	r2, [r4, #20]
    5b7c:	42ba      	cmp	r2, r7
    5b7e:	d811      	bhi.n	5ba4 <__sfvwrite_r+0x254>
    5b80:	f06f 4300 	mvn.w	r3, #2147483648	@ 0x80000000
    5b84:	42bb      	cmp	r3, r7
    5b86:	bf28      	it	cs
    5b88:	463b      	movcs	r3, r7
    5b8a:	6a65      	ldr	r5, [r4, #36]	@ 0x24
    5b8c:	fb93 f3f2 	sdiv	r3, r3, r2
    5b90:	69e1      	ldr	r1, [r4, #28]
    5b92:	fb02 f303 	mul.w	r3, r2, r3
    5b96:	4648      	mov	r0, r9
    5b98:	4652      	mov	r2, sl
    5b9a:	47a8      	blx	r5
    5b9c:	1e05      	subs	r5, r0, #0
    5b9e:	ddc9      	ble.n	5b34 <__sfvwrite_r+0x1e4>
    5ba0:	1b7f      	subs	r7, r7, r5
    5ba2:	e777      	b.n	5a94 <__sfvwrite_r+0x144>
    5ba4:	42b9      	cmp	r1, r7
    5ba6:	bf28      	it	cs
    5ba8:	4639      	movcs	r1, r7
    5baa:	460d      	mov	r5, r1
    5bac:	4618      	mov	r0, r3
    5bae:	460a      	mov	r2, r1
    5bb0:	4651      	mov	r1, sl
    5bb2:	f7fe ff47 	bl	4a44 <memmove>
    5bb6:	68a1      	ldr	r1, [r4, #8]
    5bb8:	6823      	ldr	r3, [r4, #0]
    5bba:	1b49      	subs	r1, r1, r5
    5bbc:	442b      	add	r3, r5
    5bbe:	60a1      	str	r1, [r4, #8]
    5bc0:	6023      	str	r3, [r4, #0]
    5bc2:	2900      	cmp	r1, #0
    5bc4:	d1ec      	bne.n	5ba0 <__sfvwrite_r+0x250>
    5bc6:	4621      	mov	r1, r4
    5bc8:	4648      	mov	r0, r9
    5bca:	f7fe ff01 	bl	49d0 <_fflush_r>
    5bce:	2800      	cmp	r0, #0
    5bd0:	d0e6      	beq.n	5ba0 <__sfvwrite_r+0x250>
    5bd2:	e7af      	b.n	5b34 <__sfvwrite_r+0x1e4>
    5bd4:	46bb      	mov	fp, r7
    5bd6:	463a      	mov	r2, r7
    5bd8:	e74e      	b.n	5a78 <__sfvwrite_r+0x128>
    5bda:	4659      	mov	r1, fp
    5bdc:	9201      	str	r2, [sp, #4]
    5bde:	f7fe ff31 	bl	4a44 <memmove>
    5be2:	9a01      	ldr	r2, [sp, #4]
    5be4:	68a3      	ldr	r3, [r4, #8]
    5be6:	1a9b      	subs	r3, r3, r2
    5be8:	60a3      	str	r3, [r4, #8]
    5bea:	6823      	ldr	r3, [r4, #0]
    5bec:	4413      	add	r3, r2
    5bee:	6023      	str	r3, [r4, #0]
    5bf0:	4692      	mov	sl, r2
    5bf2:	e784      	b.n	5afe <__sfvwrite_r+0x1ae>
    5bf4:	4659      	mov	r1, fp
    5bf6:	4652      	mov	r2, sl
    5bf8:	f7fe ff24 	bl	4a44 <memmove>
    5bfc:	6823      	ldr	r3, [r4, #0]
    5bfe:	4453      	add	r3, sl
    5c00:	6023      	str	r3, [r4, #0]
    5c02:	4621      	mov	r1, r4
    5c04:	4648      	mov	r0, r9
    5c06:	f7fe fee3 	bl	49d0 <_fflush_r>
    5c0a:	2800      	cmp	r0, #0
    5c0c:	f43f af77 	beq.w	5afe <__sfvwrite_r+0x1ae>
    5c10:	e790      	b.n	5b34 <__sfvwrite_r+0x1e4>
    5c12:	4648      	mov	r0, r9
    5c14:	f7fe fb1e 	bl	4254 <_realloc_r>
    5c18:	4603      	mov	r3, r0
    5c1a:	2800      	cmp	r0, #0
    5c1c:	f47f af22 	bne.w	5a64 <__sfvwrite_r+0x114>
    5c20:	6921      	ldr	r1, [r4, #16]
    5c22:	4648      	mov	r0, r9
    5c24:	f7fd f814 	bl	2c50 <_free_r>
    5c28:	f9b4 300c 	ldrsh.w	r3, [r4, #12]
    5c2c:	220c      	movs	r2, #12
    5c2e:	f8c9 2000 	str.w	r2, [r9]
    5c32:	f023 0380 	bic.w	r3, r3, #128	@ 0x80
    5c36:	e77f      	b.n	5b38 <__sfvwrite_r+0x1e8>
    5c38:	1c6a      	adds	r2, r5, #1
    5c3a:	9200      	str	r2, [sp, #0]
    5c3c:	e747      	b.n	5ace <__sfvwrite_r+0x17e>
    5c3e:	220c      	movs	r2, #12
    5c40:	f9b4 300c 	ldrsh.w	r3, [r4, #12]
    5c44:	f8c9 2000 	str.w	r2, [r9]
    5c48:	e776      	b.n	5b38 <__sfvwrite_r+0x1e8>
    5c4a:	bf00      	nop
    5c4c:	7ffffc00 	.word	0x7ffffc00

00005c50 <__aeabi_drsub>:
    5c50:	f081 4100 	eor.w	r1, r1, #2147483648	@ 0x80000000
    5c54:	e002      	b.n	5c5c <__adddf3>
    5c56:	bf00      	nop

00005c58 <__aeabi_dsub>:
    5c58:	f083 4300 	eor.w	r3, r3, #2147483648	@ 0x80000000

00005c5c <__adddf3>:
    5c5c:	b530      	push	{r4, r5, lr}
    5c5e:	ea4f 0441 	mov.w	r4, r1, lsl #1
    5c62:	ea4f 0543 	mov.w	r5, r3, lsl #1
    5c66:	ea94 0f05 	teq	r4, r5
    5c6a:	bf08      	it	eq
    5c6c:	ea90 0f02 	teqeq	r0, r2
    5c70:	bf1f      	itttt	ne
    5c72:	ea54 0c00 	orrsne.w	ip, r4, r0
    5c76:	ea55 0c02 	orrsne.w	ip, r5, r2
    5c7a:	ea7f 5c64 	mvnsne.w	ip, r4, asr #21
    5c7e:	ea7f 5c65 	mvnsne.w	ip, r5, asr #21
    5c82:	f000 80e2 	beq.w	5e4a <__adddf3+0x1ee>
    5c86:	ea4f 5454 	mov.w	r4, r4, lsr #21
    5c8a:	ebd4 5555 	rsbs	r5, r4, r5, lsr #21
    5c8e:	bfb8      	it	lt
    5c90:	426d      	neglt	r5, r5
    5c92:	dd0c      	ble.n	5cae <__adddf3+0x52>
    5c94:	442c      	add	r4, r5
    5c96:	ea80 0202 	eor.w	r2, r0, r2
    5c9a:	ea81 0303 	eor.w	r3, r1, r3
    5c9e:	ea82 0000 	eor.w	r0, r2, r0
    5ca2:	ea83 0101 	eor.w	r1, r3, r1
    5ca6:	ea80 0202 	eor.w	r2, r0, r2
    5caa:	ea81 0303 	eor.w	r3, r1, r3
    5cae:	2d36      	cmp	r5, #54	@ 0x36
    5cb0:	bf88      	it	hi
    5cb2:	bd30      	pophi	{r4, r5, pc}
    5cb4:	f011 4f00 	tst.w	r1, #2147483648	@ 0x80000000
    5cb8:	ea4f 3101 	mov.w	r1, r1, lsl #12
    5cbc:	f44f 1c80 	mov.w	ip, #1048576	@ 0x100000
    5cc0:	ea4c 3111 	orr.w	r1, ip, r1, lsr #12
    5cc4:	d002      	beq.n	5ccc <__adddf3+0x70>
    5cc6:	4240      	negs	r0, r0
    5cc8:	eb61 0141 	sbc.w	r1, r1, r1, lsl #1
    5ccc:	f013 4f00 	tst.w	r3, #2147483648	@ 0x80000000
    5cd0:	ea4f 3303 	mov.w	r3, r3, lsl #12
    5cd4:	ea4c 3313 	orr.w	r3, ip, r3, lsr #12
    5cd8:	d002      	beq.n	5ce0 <__adddf3+0x84>
    5cda:	4252      	negs	r2, r2
    5cdc:	eb63 0343 	sbc.w	r3, r3, r3, lsl #1
    5ce0:	ea94 0f05 	teq	r4, r5
    5ce4:	f000 80a7 	beq.w	5e36 <__adddf3+0x1da>
    5ce8:	f1a4 0401 	sub.w	r4, r4, #1
    5cec:	f1d5 0e20 	rsbs	lr, r5, #32
    5cf0:	db0d      	blt.n	5d0e <__adddf3+0xb2>
    5cf2:	fa02 fc0e 	lsl.w	ip, r2, lr
    5cf6:	fa22 f205 	lsr.w	r2, r2, r5
    5cfa:	1880      	adds	r0, r0, r2
    5cfc:	f141 0100 	adc.w	r1, r1, #0
    5d00:	fa03 f20e 	lsl.w	r2, r3, lr
    5d04:	1880      	adds	r0, r0, r2
    5d06:	fa43 f305 	asr.w	r3, r3, r5
    5d0a:	4159      	adcs	r1, r3
    5d0c:	e00e      	b.n	5d2c <__adddf3+0xd0>
    5d0e:	f1a5 0520 	sub.w	r5, r5, #32
    5d12:	f10e 0e20 	add.w	lr, lr, #32
    5d16:	2a01      	cmp	r2, #1
    5d18:	fa03 fc0e 	lsl.w	ip, r3, lr
    5d1c:	bf28      	it	cs
    5d1e:	f04c 0c02 	orrcs.w	ip, ip, #2
    5d22:	fa43 f305 	asr.w	r3, r3, r5
    5d26:	18c0      	adds	r0, r0, r3
    5d28:	eb51 71e3 	adcs.w	r1, r1, r3, asr #31
    5d2c:	f001 4500 	and.w	r5, r1, #2147483648	@ 0x80000000
    5d30:	d507      	bpl.n	5d42 <__adddf3+0xe6>
    5d32:	f04f 0e00 	mov.w	lr, #0
    5d36:	f1dc 0c00 	rsbs	ip, ip, #0
    5d3a:	eb7e 0000 	sbcs.w	r0, lr, r0
    5d3e:	eb6e 0101 	sbc.w	r1, lr, r1
    5d42:	f5b1 1f80 	cmp.w	r1, #1048576	@ 0x100000
    5d46:	d31b      	bcc.n	5d80 <__adddf3+0x124>
    5d48:	f5b1 1f00 	cmp.w	r1, #2097152	@ 0x200000
    5d4c:	d30c      	bcc.n	5d68 <__adddf3+0x10c>
    5d4e:	0849      	lsrs	r1, r1, #1
    5d50:	ea5f 0030 	movs.w	r0, r0, rrx
    5d54:	ea4f 0c3c 	mov.w	ip, ip, rrx
    5d58:	f104 0401 	add.w	r4, r4, #1
    5d5c:	ea4f 5244 	mov.w	r2, r4, lsl #21
    5d60:	f512 0f80 	cmn.w	r2, #4194304	@ 0x400000
    5d64:	f080 809a 	bcs.w	5e9c <__adddf3+0x240>
    5d68:	f1bc 4f00 	cmp.w	ip, #2147483648	@ 0x80000000
    5d6c:	bf08      	it	eq
    5d6e:	ea5f 0c50 	movseq.w	ip, r0, lsr #1
    5d72:	f150 0000 	adcs.w	r0, r0, #0
    5d76:	eb41 5104 	adc.w	r1, r1, r4, lsl #20
    5d7a:	ea41 0105 	orr.w	r1, r1, r5
    5d7e:	bd30      	pop	{r4, r5, pc}
    5d80:	ea5f 0c4c 	movs.w	ip, ip, lsl #1
    5d84:	4140      	adcs	r0, r0
    5d86:	eb41 0101 	adc.w	r1, r1, r1
    5d8a:	3c01      	subs	r4, #1
    5d8c:	bf28      	it	cs
    5d8e:	f5b1 1f80 	cmpcs.w	r1, #1048576	@ 0x100000
    5d92:	d2e9      	bcs.n	5d68 <__adddf3+0x10c>
    5d94:	f091 0f00 	teq	r1, #0
    5d98:	bf04      	itt	eq
    5d9a:	4601      	moveq	r1, r0
    5d9c:	2000      	moveq	r0, #0
    5d9e:	fab1 f381 	clz	r3, r1
    5da2:	bf08      	it	eq
    5da4:	3320      	addeq	r3, #32
    5da6:	f1a3 030b 	sub.w	r3, r3, #11
    5daa:	f1b3 0220 	subs.w	r2, r3, #32
    5dae:	da0c      	bge.n	5dca <__adddf3+0x16e>
    5db0:	320c      	adds	r2, #12
    5db2:	dd08      	ble.n	5dc6 <__adddf3+0x16a>
    5db4:	f102 0c14 	add.w	ip, r2, #20
    5db8:	f1c2 020c 	rsb	r2, r2, #12
    5dbc:	fa01 f00c 	lsl.w	r0, r1, ip
    5dc0:	fa21 f102 	lsr.w	r1, r1, r2
    5dc4:	e00c      	b.n	5de0 <__adddf3+0x184>
    5dc6:	f102 0214 	add.w	r2, r2, #20
    5dca:	bfd8      	it	le
    5dcc:	f1c2 0c20 	rsble	ip, r2, #32
    5dd0:	fa01 f102 	lsl.w	r1, r1, r2
    5dd4:	fa20 fc0c 	lsr.w	ip, r0, ip
    5dd8:	bfdc      	itt	le
    5dda:	ea41 010c 	orrle.w	r1, r1, ip
    5dde:	4090      	lslle	r0, r2
    5de0:	1ae4      	subs	r4, r4, r3
    5de2:	bfa2      	ittt	ge
    5de4:	eb01 5104 	addge.w	r1, r1, r4, lsl #20
    5de8:	4329      	orrge	r1, r5
    5dea:	bd30      	popge	{r4, r5, pc}
    5dec:	ea6f 0404 	mvn.w	r4, r4
    5df0:	3c1f      	subs	r4, #31
    5df2:	da1c      	bge.n	5e2e <__adddf3+0x1d2>
    5df4:	340c      	adds	r4, #12
    5df6:	dc0e      	bgt.n	5e16 <__adddf3+0x1ba>
    5df8:	f104 0414 	add.w	r4, r4, #20
    5dfc:	f1c4 0220 	rsb	r2, r4, #32
    5e00:	fa20 f004 	lsr.w	r0, r0, r4
    5e04:	fa01 f302 	lsl.w	r3, r1, r2
    5e08:	ea40 0003 	orr.w	r0, r0, r3
    5e0c:	fa21 f304 	lsr.w	r3, r1, r4
    5e10:	ea45 0103 	orr.w	r1, r5, r3
    5e14:	bd30      	pop	{r4, r5, pc}
    5e16:	f1c4 040c 	rsb	r4, r4, #12
    5e1a:	f1c4 0220 	rsb	r2, r4, #32
    5e1e:	fa20 f002 	lsr.w	r0, r0, r2
    5e22:	fa01 f304 	lsl.w	r3, r1, r4
    5e26:	ea40 0003 	orr.w	r0, r0, r3
    5e2a:	4629      	mov	r1, r5
    5e2c:	bd30      	pop	{r4, r5, pc}
    5e2e:	fa21 f004 	lsr.w	r0, r1, r4
    5e32:	4629      	mov	r1, r5
    5e34:	bd30      	pop	{r4, r5, pc}
    5e36:	f094 0f00 	teq	r4, #0
    5e3a:	f483 1380 	eor.w	r3, r3, #1048576	@ 0x100000
    5e3e:	bf06      	itte	eq
    5e40:	f481 1180 	eoreq.w	r1, r1, #1048576	@ 0x100000
    5e44:	3401      	addeq	r4, #1
    5e46:	3d01      	subne	r5, #1
    5e48:	e74e      	b.n	5ce8 <__adddf3+0x8c>
    5e4a:	ea7f 5c64 	mvns.w	ip, r4, asr #21
    5e4e:	bf18      	it	ne
    5e50:	ea7f 5c65 	mvnsne.w	ip, r5, asr #21
    5e54:	d029      	beq.n	5eaa <__adddf3+0x24e>
    5e56:	ea94 0f05 	teq	r4, r5
    5e5a:	bf08      	it	eq
    5e5c:	ea90 0f02 	teqeq	r0, r2
    5e60:	d005      	beq.n	5e6e <__adddf3+0x212>
    5e62:	ea54 0c00 	orrs.w	ip, r4, r0
    5e66:	bf04      	itt	eq
    5e68:	4619      	moveq	r1, r3
    5e6a:	4610      	moveq	r0, r2
    5e6c:	bd30      	pop	{r4, r5, pc}
    5e6e:	ea91 0f03 	teq	r1, r3
    5e72:	bf1e      	ittt	ne
    5e74:	2100      	movne	r1, #0
    5e76:	2000      	movne	r0, #0
    5e78:	bd30      	popne	{r4, r5, pc}
    5e7a:	ea5f 5c54 	movs.w	ip, r4, lsr #21
    5e7e:	d105      	bne.n	5e8c <__adddf3+0x230>
    5e80:	0040      	lsls	r0, r0, #1
    5e82:	4149      	adcs	r1, r1
    5e84:	bf28      	it	cs
    5e86:	f041 4100 	orrcs.w	r1, r1, #2147483648	@ 0x80000000
    5e8a:	bd30      	pop	{r4, r5, pc}
    5e8c:	f514 0480 	adds.w	r4, r4, #4194304	@ 0x400000
    5e90:	bf3c      	itt	cc
    5e92:	f501 1180 	addcc.w	r1, r1, #1048576	@ 0x100000
    5e96:	bd30      	popcc	{r4, r5, pc}
    5e98:	f001 4500 	and.w	r5, r1, #2147483648	@ 0x80000000
    5e9c:	f045 41fe 	orr.w	r1, r5, #2130706432	@ 0x7f000000
    5ea0:	f441 0170 	orr.w	r1, r1, #15728640	@ 0xf00000
    5ea4:	f04f 0000 	mov.w	r0, #0
    5ea8:	bd30      	pop	{r4, r5, pc}
    5eaa:	ea7f 5c64 	mvns.w	ip, r4, asr #21
    5eae:	bf1a      	itte	ne
    5eb0:	4619      	movne	r1, r3
    5eb2:	4610      	movne	r0, r2
    5eb4:	ea7f 5c65 	mvnseq.w	ip, r5, asr #21
    5eb8:	bf1c      	itt	ne
    5eba:	460b      	movne	r3, r1
    5ebc:	4602      	movne	r2, r0
    5ebe:	ea50 3401 	orrs.w	r4, r0, r1, lsl #12
    5ec2:	bf06      	itte	eq
    5ec4:	ea52 3503 	orrseq.w	r5, r2, r3, lsl #12
    5ec8:	ea91 0f03 	teqeq	r1, r3
    5ecc:	f441 2100 	orrne.w	r1, r1, #524288	@ 0x80000
    5ed0:	bd30      	pop	{r4, r5, pc}
    5ed2:	bf00      	nop

00005ed4 <__aeabi_ui2d>:
    5ed4:	f090 0f00 	teq	r0, #0
    5ed8:	bf04      	itt	eq
    5eda:	2100      	moveq	r1, #0
    5edc:	4770      	bxeq	lr
    5ede:	b530      	push	{r4, r5, lr}
    5ee0:	f44f 6480 	mov.w	r4, #1024	@ 0x400
    5ee4:	f104 0432 	add.w	r4, r4, #50	@ 0x32
    5ee8:	f04f 0500 	mov.w	r5, #0
    5eec:	f04f 0100 	mov.w	r1, #0
    5ef0:	e750      	b.n	5d94 <__adddf3+0x138>
    5ef2:	bf00      	nop

00005ef4 <__aeabi_i2d>:
    5ef4:	f090 0f00 	teq	r0, #0
    5ef8:	bf04      	itt	eq
    5efa:	2100      	moveq	r1, #0
    5efc:	4770      	bxeq	lr
    5efe:	b530      	push	{r4, r5, lr}
    5f00:	f44f 6480 	mov.w	r4, #1024	@ 0x400
    5f04:	f104 0432 	add.w	r4, r4, #50	@ 0x32
    5f08:	f010 4500 	ands.w	r5, r0, #2147483648	@ 0x80000000
    5f0c:	bf48      	it	mi
    5f0e:	4240      	negmi	r0, r0
    5f10:	f04f 0100 	mov.w	r1, #0
    5f14:	e73e      	b.n	5d94 <__adddf3+0x138>
    5f16:	bf00      	nop

00005f18 <__aeabi_f2d>:
    5f18:	0042      	lsls	r2, r0, #1
    5f1a:	ea4f 01e2 	mov.w	r1, r2, asr #3
    5f1e:	ea4f 0131 	mov.w	r1, r1, rrx
    5f22:	ea4f 7002 	mov.w	r0, r2, lsl #28
    5f26:	bf1f      	itttt	ne
    5f28:	f012 437f 	andsne.w	r3, r2, #4278190080	@ 0xff000000
    5f2c:	f093 4f7f 	teqne	r3, #4278190080	@ 0xff000000
    5f30:	f081 5160 	eorne.w	r1, r1, #939524096	@ 0x38000000
    5f34:	4770      	bxne	lr
    5f36:	f032 427f 	bics.w	r2, r2, #4278190080	@ 0xff000000
    5f3a:	bf08      	it	eq
    5f3c:	4770      	bxeq	lr
    5f3e:	f093 4f7f 	teq	r3, #4278190080	@ 0xff000000
    5f42:	bf04      	itt	eq
    5f44:	f441 2100 	orreq.w	r1, r1, #524288	@ 0x80000
    5f48:	4770      	bxeq	lr
    5f4a:	b530      	push	{r4, r5, lr}
    5f4c:	f44f 7460 	mov.w	r4, #896	@ 0x380
    5f50:	f001 4500 	and.w	r5, r1, #2147483648	@ 0x80000000
    5f54:	f021 4100 	bic.w	r1, r1, #2147483648	@ 0x80000000
    5f58:	e71c      	b.n	5d94 <__adddf3+0x138>
    5f5a:	bf00      	nop

00005f5c <__aeabi_ul2d>:
    5f5c:	ea50 0201 	orrs.w	r2, r0, r1
    5f60:	bf08      	it	eq
    5f62:	4770      	bxeq	lr
    5f64:	b530      	push	{r4, r5, lr}
    5f66:	f04f 0500 	mov.w	r5, #0
    5f6a:	e00a      	b.n	5f82 <__aeabi_l2d+0x16>

00005f6c <__aeabi_l2d>:
    5f6c:	ea50 0201 	orrs.w	r2, r0, r1
    5f70:	bf08      	it	eq
    5f72:	4770      	bxeq	lr
    5f74:	b530      	push	{r4, r5, lr}
    5f76:	f011 4500 	ands.w	r5, r1, #2147483648	@ 0x80000000
    5f7a:	d502      	bpl.n	5f82 <__aeabi_l2d+0x16>
    5f7c:	4240      	negs	r0, r0
    5f7e:	eb61 0141 	sbc.w	r1, r1, r1, lsl #1
    5f82:	f44f 6480 	mov.w	r4, #1024	@ 0x400
    5f86:	f104 0432 	add.w	r4, r4, #50	@ 0x32
    5f8a:	ea5f 5c91 	movs.w	ip, r1, lsr #22
    5f8e:	f43f aed8 	beq.w	5d42 <__adddf3+0xe6>
    5f92:	f04f 0203 	mov.w	r2, #3
    5f96:	ea5f 0cdc 	movs.w	ip, ip, lsr #3
    5f9a:	bf18      	it	ne
    5f9c:	3203      	addne	r2, #3
    5f9e:	ea5f 0cdc 	movs.w	ip, ip, lsr #3
    5fa2:	bf18      	it	ne
    5fa4:	3203      	addne	r2, #3
    5fa6:	eb02 02dc 	add.w	r2, r2, ip, lsr #3
    5faa:	f1c2 0320 	rsb	r3, r2, #32
    5fae:	fa00 fc03 	lsl.w	ip, r0, r3
    5fb2:	fa20 f002 	lsr.w	r0, r0, r2
    5fb6:	fa01 fe03 	lsl.w	lr, r1, r3
    5fba:	ea40 000e 	orr.w	r0, r0, lr
    5fbe:	fa21 f102 	lsr.w	r1, r1, r2
    5fc2:	4414      	add	r4, r2
    5fc4:	e6bd      	b.n	5d42 <__adddf3+0xe6>
    5fc6:	bf00      	nop

00005fc8 <__aeabi_dmul>:
    5fc8:	b570      	push	{r4, r5, r6, lr}
    5fca:	f04f 0cff 	mov.w	ip, #255	@ 0xff
    5fce:	f44c 6ce0 	orr.w	ip, ip, #1792	@ 0x700
    5fd2:	ea1c 5411 	ands.w	r4, ip, r1, lsr #20
    5fd6:	bf1d      	ittte	ne
    5fd8:	ea1c 5513 	andsne.w	r5, ip, r3, lsr #20
    5fdc:	ea94 0f0c 	teqne	r4, ip
    5fe0:	ea95 0f0c 	teqne	r5, ip
    5fe4:	f000 f8de 	bleq	61a4 <__aeabi_dmul+0x1dc>
    5fe8:	442c      	add	r4, r5
    5fea:	ea81 0603 	eor.w	r6, r1, r3
    5fee:	ea21 514c 	bic.w	r1, r1, ip, lsl #21
    5ff2:	ea23 534c 	bic.w	r3, r3, ip, lsl #21
    5ff6:	ea50 3501 	orrs.w	r5, r0, r1, lsl #12
    5ffa:	bf18      	it	ne
    5ffc:	ea52 3503 	orrsne.w	r5, r2, r3, lsl #12
    6000:	f441 1180 	orr.w	r1, r1, #1048576	@ 0x100000
    6004:	f443 1380 	orr.w	r3, r3, #1048576	@ 0x100000
    6008:	d038      	beq.n	607c <__aeabi_dmul+0xb4>
    600a:	fba0 ce02 	umull	ip, lr, r0, r2
    600e:	f04f 0500 	mov.w	r5, #0
    6012:	fbe1 e502 	umlal	lr, r5, r1, r2
    6016:	f006 4200 	and.w	r2, r6, #2147483648	@ 0x80000000
    601a:	fbe0 e503 	umlal	lr, r5, r0, r3
    601e:	f04f 0600 	mov.w	r6, #0
    6022:	fbe1 5603 	umlal	r5, r6, r1, r3
    6026:	f09c 0f00 	teq	ip, #0
    602a:	bf18      	it	ne
    602c:	f04e 0e01 	orrne.w	lr, lr, #1
    6030:	f1a4 04ff 	sub.w	r4, r4, #255	@ 0xff
    6034:	f5b6 7f00 	cmp.w	r6, #512	@ 0x200
    6038:	f564 7440 	sbc.w	r4, r4, #768	@ 0x300
    603c:	d204      	bcs.n	6048 <__aeabi_dmul+0x80>
    603e:	ea5f 0e4e 	movs.w	lr, lr, lsl #1
    6042:	416d      	adcs	r5, r5
    6044:	eb46 0606 	adc.w	r6, r6, r6
    6048:	ea42 21c6 	orr.w	r1, r2, r6, lsl #11
    604c:	ea41 5155 	orr.w	r1, r1, r5, lsr #21
    6050:	ea4f 20c5 	mov.w	r0, r5, lsl #11
    6054:	ea40 505e 	orr.w	r0, r0, lr, lsr #21
    6058:	ea4f 2ece 	mov.w	lr, lr, lsl #11
    605c:	f1b4 0cfd 	subs.w	ip, r4, #253	@ 0xfd
    6060:	bf88      	it	hi
    6062:	f5bc 6fe0 	cmphi.w	ip, #1792	@ 0x700
    6066:	d81e      	bhi.n	60a6 <__aeabi_dmul+0xde>
    6068:	f1be 4f00 	cmp.w	lr, #2147483648	@ 0x80000000
    606c:	bf08      	it	eq
    606e:	ea5f 0e50 	movseq.w	lr, r0, lsr #1
    6072:	f150 0000 	adcs.w	r0, r0, #0
    6076:	eb41 5104 	adc.w	r1, r1, r4, lsl #20
    607a:	bd70      	pop	{r4, r5, r6, pc}
    607c:	f006 4600 	and.w	r6, r6, #2147483648	@ 0x80000000
    6080:	ea46 0101 	orr.w	r1, r6, r1
    6084:	ea40 0002 	orr.w	r0, r0, r2
    6088:	ea81 0103 	eor.w	r1, r1, r3
    608c:	ebb4 045c 	subs.w	r4, r4, ip, lsr #1
    6090:	bfc2      	ittt	gt
    6092:	ebd4 050c 	rsbsgt	r5, r4, ip
    6096:	ea41 5104 	orrgt.w	r1, r1, r4, lsl #20
    609a:	bd70      	popgt	{r4, r5, r6, pc}
    609c:	f441 1180 	orr.w	r1, r1, #1048576	@ 0x100000
    60a0:	f04f 0e00 	mov.w	lr, #0
    60a4:	3c01      	subs	r4, #1
    60a6:	f300 80ab 	bgt.w	6200 <__aeabi_dmul+0x238>
    60aa:	f114 0f36 	cmn.w	r4, #54	@ 0x36
    60ae:	bfde      	ittt	le
    60b0:	2000      	movle	r0, #0
    60b2:	f001 4100 	andle.w	r1, r1, #2147483648	@ 0x80000000
    60b6:	bd70      	pople	{r4, r5, r6, pc}
    60b8:	f1c4 0400 	rsb	r4, r4, #0
    60bc:	3c20      	subs	r4, #32
    60be:	da35      	bge.n	612c <__aeabi_dmul+0x164>
    60c0:	340c      	adds	r4, #12
    60c2:	dc1b      	bgt.n	60fc <__aeabi_dmul+0x134>
    60c4:	f104 0414 	add.w	r4, r4, #20
    60c8:	f1c4 0520 	rsb	r5, r4, #32
    60cc:	fa00 f305 	lsl.w	r3, r0, r5
    60d0:	fa20 f004 	lsr.w	r0, r0, r4
    60d4:	fa01 f205 	lsl.w	r2, r1, r5
    60d8:	ea40 0002 	orr.w	r0, r0, r2
    60dc:	f001 4200 	and.w	r2, r1, #2147483648	@ 0x80000000
    60e0:	f021 4100 	bic.w	r1, r1, #2147483648	@ 0x80000000
    60e4:	eb10 70d3 	adds.w	r0, r0, r3, lsr #31
    60e8:	fa21 f604 	lsr.w	r6, r1, r4
    60ec:	eb42 0106 	adc.w	r1, r2, r6
    60f0:	ea5e 0e43 	orrs.w	lr, lr, r3, lsl #1
    60f4:	bf08      	it	eq
    60f6:	ea20 70d3 	biceq.w	r0, r0, r3, lsr #31
    60fa:	bd70      	pop	{r4, r5, r6, pc}
    60fc:	f1c4 040c 	rsb	r4, r4, #12
    6100:	f1c4 0520 	rsb	r5, r4, #32
    6104:	fa00 f304 	lsl.w	r3, r0, r4
    6108:	fa20 f005 	lsr.w	r0, r0, r5
    610c:	fa01 f204 	lsl.w	r2, r1, r4
    6110:	ea40 0002 	orr.w	r0, r0, r2
    6114:	f001 4100 	and.w	r1, r1, #2147483648	@ 0x80000000
    6118:	eb10 70d3 	adds.w	r0, r0, r3, lsr #31
    611c:	f141 0100 	adc.w	r1, r1, #0
    6120:	ea5e 0e43 	orrs.w	lr, lr, r3, lsl #1
    6124:	bf08      	it	eq
    6126:	ea20 70d3 	biceq.w	r0, r0, r3, lsr #31
    612a:	bd70      	pop	{r4, r5, r6, pc}
    612c:	f1c4 0520 	rsb	r5, r4, #32
    6130:	fa00 f205 	lsl.w	r2, r0, r5
    6134:	ea4e 0e02 	orr.w	lr, lr, r2
    6138:	fa20 f304 	lsr.w	r3, r0, r4
    613c:	fa01 f205 	lsl.w	r2, r1, r5
    6140:	ea43 0302 	orr.w	r3, r3, r2
    6144:	fa21 f004 	lsr.w	r0, r1, r4
    6148:	f001 4100 	and.w	r1, r1, #2147483648	@ 0x80000000
    614c:	fa21 f204 	lsr.w	r2, r1, r4
    6150:	ea20 0002 	bic.w	r0, r0, r2
    6154:	eb00 70d3 	add.w	r0, r0, r3, lsr #31
    6158:	ea5e 0e43 	orrs.w	lr, lr, r3, lsl #1
    615c:	bf08      	it	eq
    615e:	ea20 70d3 	biceq.w	r0, r0, r3, lsr #31
    6162:	bd70      	pop	{r4, r5, r6, pc}
    6164:	f094 0f00 	teq	r4, #0
    6168:	d10f      	bne.n	618a <__aeabi_dmul+0x1c2>
    616a:	f001 4600 	and.w	r6, r1, #2147483648	@ 0x80000000
    616e:	0040      	lsls	r0, r0, #1
    6170:	eb41 0101 	adc.w	r1, r1, r1
    6174:	f411 1f80 	tst.w	r1, #1048576	@ 0x100000
    6178:	bf08      	it	eq
    617a:	3c01      	subeq	r4, #1
    617c:	d0f7      	beq.n	616e <__aeabi_dmul+0x1a6>
    617e:	ea41 0106 	orr.w	r1, r1, r6
    6182:	f095 0f00 	teq	r5, #0
    6186:	bf18      	it	ne
    6188:	4770      	bxne	lr
    618a:	f003 4600 	and.w	r6, r3, #2147483648	@ 0x80000000
    618e:	0052      	lsls	r2, r2, #1
    6190:	eb43 0303 	adc.w	r3, r3, r3
    6194:	f413 1f80 	tst.w	r3, #1048576	@ 0x100000
    6198:	bf08      	it	eq
    619a:	3d01      	subeq	r5, #1
    619c:	d0f7      	beq.n	618e <__aeabi_dmul+0x1c6>
    619e:	ea43 0306 	orr.w	r3, r3, r6
    61a2:	4770      	bx	lr
    61a4:	ea94 0f0c 	teq	r4, ip
    61a8:	ea0c 5513 	and.w	r5, ip, r3, lsr #20
    61ac:	bf18      	it	ne
    61ae:	ea95 0f0c 	teqne	r5, ip
    61b2:	d00c      	beq.n	61ce <__aeabi_dmul+0x206>
    61b4:	ea50 0641 	orrs.w	r6, r0, r1, lsl #1
    61b8:	bf18      	it	ne
    61ba:	ea52 0643 	orrsne.w	r6, r2, r3, lsl #1
    61be:	d1d1      	bne.n	6164 <__aeabi_dmul+0x19c>
    61c0:	ea81 0103 	eor.w	r1, r1, r3
    61c4:	f001 4100 	and.w	r1, r1, #2147483648	@ 0x80000000
    61c8:	f04f 0000 	mov.w	r0, #0
    61cc:	bd70      	pop	{r4, r5, r6, pc}
    61ce:	ea50 0641 	orrs.w	r6, r0, r1, lsl #1
    61d2:	bf06      	itte	eq
    61d4:	4610      	moveq	r0, r2
    61d6:	4619      	moveq	r1, r3
    61d8:	ea52 0643 	orrsne.w	r6, r2, r3, lsl #1
    61dc:	d019      	beq.n	6212 <__aeabi_dmul+0x24a>
    61de:	ea94 0f0c 	teq	r4, ip
    61e2:	d102      	bne.n	61ea <__aeabi_dmul+0x222>
    61e4:	ea50 3601 	orrs.w	r6, r0, r1, lsl #12
    61e8:	d113      	bne.n	6212 <__aeabi_dmul+0x24a>
    61ea:	ea95 0f0c 	teq	r5, ip
    61ee:	d105      	bne.n	61fc <__aeabi_dmul+0x234>
    61f0:	ea52 3603 	orrs.w	r6, r2, r3, lsl #12
    61f4:	bf1c      	itt	ne
    61f6:	4610      	movne	r0, r2
    61f8:	4619      	movne	r1, r3
    61fa:	d10a      	bne.n	6212 <__aeabi_dmul+0x24a>
    61fc:	ea81 0103 	eor.w	r1, r1, r3
    6200:	f001 4100 	and.w	r1, r1, #2147483648	@ 0x80000000
    6204:	f041 41fe 	orr.w	r1, r1, #2130706432	@ 0x7f000000
    6208:	f441 0170 	orr.w	r1, r1, #15728640	@ 0xf00000
    620c:	f04f 0000 	mov.w	r0, #0
    6210:	bd70      	pop	{r4, r5, r6, pc}
    6212:	f041 41fe 	orr.w	r1, r1, #2130706432	@ 0x7f000000
    6216:	f441 0178 	orr.w	r1, r1, #16252928	@ 0xf80000
    621a:	bd70      	pop	{r4, r5, r6, pc}

0000621c <__aeabi_ddiv>:
    621c:	b570      	push	{r4, r5, r6, lr}
    621e:	f04f 0cff 	mov.w	ip, #255	@ 0xff
    6222:	f44c 6ce0 	orr.w	ip, ip, #1792	@ 0x700
    6226:	ea1c 5411 	ands.w	r4, ip, r1, lsr #20
    622a:	bf1d      	ittte	ne
    622c:	ea1c 5513 	andsne.w	r5, ip, r3, lsr #20
    6230:	ea94 0f0c 	teqne	r4, ip
    6234:	ea95 0f0c 	teqne	r5, ip
    6238:	f000 f8a7 	bleq	638a <__aeabi_ddiv+0x16e>
    623c:	eba4 0405 	sub.w	r4, r4, r5
    6240:	ea81 0e03 	eor.w	lr, r1, r3
    6244:	ea52 3503 	orrs.w	r5, r2, r3, lsl #12
    6248:	ea4f 3101 	mov.w	r1, r1, lsl #12
    624c:	f000 8088 	beq.w	6360 <__aeabi_ddiv+0x144>
    6250:	ea4f 3303 	mov.w	r3, r3, lsl #12
    6254:	f04f 5580 	mov.w	r5, #268435456	@ 0x10000000
    6258:	ea45 1313 	orr.w	r3, r5, r3, lsr #4
    625c:	ea43 6312 	orr.w	r3, r3, r2, lsr #24
    6260:	ea4f 2202 	mov.w	r2, r2, lsl #8
    6264:	ea45 1511 	orr.w	r5, r5, r1, lsr #4
    6268:	ea45 6510 	orr.w	r5, r5, r0, lsr #24
    626c:	ea4f 2600 	mov.w	r6, r0, lsl #8
    6270:	f00e 4100 	and.w	r1, lr, #2147483648	@ 0x80000000
    6274:	429d      	cmp	r5, r3
    6276:	bf08      	it	eq
    6278:	4296      	cmpeq	r6, r2
    627a:	f144 04fd 	adc.w	r4, r4, #253	@ 0xfd
    627e:	f504 7440 	add.w	r4, r4, #768	@ 0x300
    6282:	d202      	bcs.n	628a <__aeabi_ddiv+0x6e>
    6284:	085b      	lsrs	r3, r3, #1
    6286:	ea4f 0232 	mov.w	r2, r2, rrx
    628a:	1ab6      	subs	r6, r6, r2
    628c:	eb65 0503 	sbc.w	r5, r5, r3
    6290:	085b      	lsrs	r3, r3, #1
    6292:	ea4f 0232 	mov.w	r2, r2, rrx
    6296:	f44f 1080 	mov.w	r0, #1048576	@ 0x100000
    629a:	f44f 2c00 	mov.w	ip, #524288	@ 0x80000
    629e:	ebb6 0e02 	subs.w	lr, r6, r2
    62a2:	eb75 0e03 	sbcs.w	lr, r5, r3
    62a6:	bf22      	ittt	cs
    62a8:	1ab6      	subcs	r6, r6, r2
    62aa:	4675      	movcs	r5, lr
    62ac:	ea40 000c 	orrcs.w	r0, r0, ip
    62b0:	085b      	lsrs	r3, r3, #1
    62b2:	ea4f 0232 	mov.w	r2, r2, rrx
    62b6:	ebb6 0e02 	subs.w	lr, r6, r2
    62ba:	eb75 0e03 	sbcs.w	lr, r5, r3
    62be:	bf22      	ittt	cs
    62c0:	1ab6      	subcs	r6, r6, r2
    62c2:	4675      	movcs	r5, lr
    62c4:	ea40 005c 	orrcs.w	r0, r0, ip, lsr #1
    62c8:	085b      	lsrs	r3, r3, #1
    62ca:	ea4f 0232 	mov.w	r2, r2, rrx
    62ce:	ebb6 0e02 	subs.w	lr, r6, r2
    62d2:	eb75 0e03 	sbcs.w	lr, r5, r3
    62d6:	bf22      	ittt	cs
    62d8:	1ab6      	subcs	r6, r6, r2
    62da:	4675      	movcs	r5, lr
    62dc:	ea40 009c 	orrcs.w	r0, r0, ip, lsr #2
    62e0:	085b      	lsrs	r3, r3, #1
    62e2:	ea4f 0232 	mov.w	r2, r2, rrx
    62e6:	ebb6 0e02 	subs.w	lr, r6, r2
    62ea:	eb75 0e03 	sbcs.w	lr, r5, r3
    62ee:	bf22      	ittt	cs
    62f0:	1ab6      	subcs	r6, r6, r2
    62f2:	4675      	movcs	r5, lr
    62f4:	ea40 00dc 	orrcs.w	r0, r0, ip, lsr #3
    62f8:	ea55 0e06 	orrs.w	lr, r5, r6
    62fc:	d018      	beq.n	6330 <__aeabi_ddiv+0x114>
    62fe:	ea4f 1505 	mov.w	r5, r5, lsl #4
    6302:	ea45 7516 	orr.w	r5, r5, r6, lsr #28
    6306:	ea4f 1606 	mov.w	r6, r6, lsl #4
    630a:	ea4f 03c3 	mov.w	r3, r3, lsl #3
    630e:	ea43 7352 	orr.w	r3, r3, r2, lsr #29
    6312:	ea4f 02c2 	mov.w	r2, r2, lsl #3
    6316:	ea5f 1c1c 	movs.w	ip, ip, lsr #4
    631a:	d1c0      	bne.n	629e <__aeabi_ddiv+0x82>
    631c:	f411 1f80 	tst.w	r1, #1048576	@ 0x100000
    6320:	d10b      	bne.n	633a <__aeabi_ddiv+0x11e>
    6322:	ea41 0100 	orr.w	r1, r1, r0
    6326:	f04f 0000 	mov.w	r0, #0
    632a:	f04f 4c00 	mov.w	ip, #2147483648	@ 0x80000000
    632e:	e7b6      	b.n	629e <__aeabi_ddiv+0x82>
    6330:	f411 1f80 	tst.w	r1, #1048576	@ 0x100000
    6334:	bf04      	itt	eq
    6336:	4301      	orreq	r1, r0
    6338:	2000      	moveq	r0, #0
    633a:	f1b4 0cfd 	subs.w	ip, r4, #253	@ 0xfd
    633e:	bf88      	it	hi
    6340:	f5bc 6fe0 	cmphi.w	ip, #1792	@ 0x700
    6344:	f63f aeaf 	bhi.w	60a6 <__aeabi_dmul+0xde>
    6348:	ebb5 0c03 	subs.w	ip, r5, r3
    634c:	bf04      	itt	eq
    634e:	ebb6 0c02 	subseq.w	ip, r6, r2
    6352:	ea5f 0c50 	movseq.w	ip, r0, lsr #1
    6356:	f150 0000 	adcs.w	r0, r0, #0
    635a:	eb41 5104 	adc.w	r1, r1, r4, lsl #20
    635e:	bd70      	pop	{r4, r5, r6, pc}
    6360:	f00e 4e00 	and.w	lr, lr, #2147483648	@ 0x80000000
    6364:	ea4e 3111 	orr.w	r1, lr, r1, lsr #12
    6368:	eb14 045c 	adds.w	r4, r4, ip, lsr #1
    636c:	bfc2      	ittt	gt
    636e:	ebd4 050c 	rsbsgt	r5, r4, ip
    6372:	ea41 5104 	orrgt.w	r1, r1, r4, lsl #20
    6376:	bd70      	popgt	{r4, r5, r6, pc}
    6378:	f441 1180 	orr.w	r1, r1, #1048576	@ 0x100000
    637c:	f04f 0e00 	mov.w	lr, #0
    6380:	3c01      	subs	r4, #1
    6382:	e690      	b.n	60a6 <__aeabi_dmul+0xde>
    6384:	ea45 0e06 	orr.w	lr, r5, r6
    6388:	e68d      	b.n	60a6 <__aeabi_dmul+0xde>
    638a:	ea0c 5513 	and.w	r5, ip, r3, lsr #20
    638e:	ea94 0f0c 	teq	r4, ip
    6392:	bf08      	it	eq
    6394:	ea95 0f0c 	teqeq	r5, ip
    6398:	f43f af3b 	beq.w	6212 <__aeabi_dmul+0x24a>
    639c:	ea94 0f0c 	teq	r4, ip
    63a0:	d10a      	bne.n	63b8 <__aeabi_ddiv+0x19c>
    63a2:	ea50 3401 	orrs.w	r4, r0, r1, lsl #12
    63a6:	f47f af34 	bne.w	6212 <__aeabi_dmul+0x24a>
    63aa:	ea95 0f0c 	teq	r5, ip
    63ae:	f47f af25 	bne.w	61fc <__aeabi_dmul+0x234>
    63b2:	4610      	mov	r0, r2
    63b4:	4619      	mov	r1, r3
    63b6:	e72c      	b.n	6212 <__aeabi_dmul+0x24a>
    63b8:	ea95 0f0c 	teq	r5, ip
    63bc:	d106      	bne.n	63cc <__aeabi_ddiv+0x1b0>
    63be:	ea52 3503 	orrs.w	r5, r2, r3, lsl #12
    63c2:	f43f aefd 	beq.w	61c0 <__aeabi_dmul+0x1f8>
    63c6:	4610      	mov	r0, r2
    63c8:	4619      	mov	r1, r3
    63ca:	e722      	b.n	6212 <__aeabi_dmul+0x24a>
    63cc:	ea50 0641 	orrs.w	r6, r0, r1, lsl #1
    63d0:	bf18      	it	ne
    63d2:	ea52 0643 	orrsne.w	r6, r2, r3, lsl #1
    63d6:	f47f aec5 	bne.w	6164 <__aeabi_dmul+0x19c>
    63da:	ea50 0441 	orrs.w	r4, r0, r1, lsl #1
    63de:	f47f af0d 	bne.w	61fc <__aeabi_dmul+0x234>
    63e2:	ea52 0543 	orrs.w	r5, r2, r3, lsl #1
    63e6:	f47f aeeb 	bne.w	61c0 <__aeabi_dmul+0x1f8>
    63ea:	e712      	b.n	6212 <__aeabi_dmul+0x24a>

000063ec <__gedf2>:
    63ec:	f04f 3cff 	mov.w	ip, #4294967295	@ 0xffffffff
    63f0:	e006      	b.n	6400 <__cmpdf2+0x4>
    63f2:	bf00      	nop

000063f4 <__ledf2>:
    63f4:	f04f 0c01 	mov.w	ip, #1
    63f8:	e002      	b.n	6400 <__cmpdf2+0x4>
    63fa:	bf00      	nop

000063fc <__cmpdf2>:
    63fc:	f04f 0c01 	mov.w	ip, #1
    6400:	f84d cd04 	str.w	ip, [sp, #-4]!
    6404:	ea4f 0c41 	mov.w	ip, r1, lsl #1
    6408:	ea7f 5c6c 	mvns.w	ip, ip, asr #21
    640c:	ea4f 0c43 	mov.w	ip, r3, lsl #1
    6410:	bf18      	it	ne
    6412:	ea7f 5c6c 	mvnsne.w	ip, ip, asr #21
    6416:	d01b      	beq.n	6450 <__cmpdf2+0x54>
    6418:	b001      	add	sp, #4
    641a:	ea50 0c41 	orrs.w	ip, r0, r1, lsl #1
    641e:	bf0c      	ite	eq
    6420:	ea52 0c43 	orrseq.w	ip, r2, r3, lsl #1
    6424:	ea91 0f03 	teqne	r1, r3
    6428:	bf02      	ittt	eq
    642a:	ea90 0f02 	teqeq	r0, r2
    642e:	2000      	moveq	r0, #0
    6430:	4770      	bxeq	lr
    6432:	f110 0f00 	cmn.w	r0, #0
    6436:	ea91 0f03 	teq	r1, r3
    643a:	bf58      	it	pl
    643c:	4299      	cmppl	r1, r3
    643e:	bf08      	it	eq
    6440:	4290      	cmpeq	r0, r2
    6442:	bf2c      	ite	cs
    6444:	17d8      	asrcs	r0, r3, #31
    6446:	ea6f 70e3 	mvncc.w	r0, r3, asr #31
    644a:	f040 0001 	orr.w	r0, r0, #1
    644e:	4770      	bx	lr
    6450:	ea4f 0c41 	mov.w	ip, r1, lsl #1
    6454:	ea7f 5c6c 	mvns.w	ip, ip, asr #21
    6458:	d102      	bne.n	6460 <__cmpdf2+0x64>
    645a:	ea50 3c01 	orrs.w	ip, r0, r1, lsl #12
    645e:	d107      	bne.n	6470 <__cmpdf2+0x74>
    6460:	ea4f 0c43 	mov.w	ip, r3, lsl #1
    6464:	ea7f 5c6c 	mvns.w	ip, ip, asr #21
    6468:	d1d6      	bne.n	6418 <__cmpdf2+0x1c>
    646a:	ea52 3c03 	orrs.w	ip, r2, r3, lsl #12
    646e:	d0d3      	beq.n	6418 <__cmpdf2+0x1c>
    6470:	f85d 0b04 	ldr.w	r0, [sp], #4
    6474:	4770      	bx	lr
    6476:	bf00      	nop

00006478 <__aeabi_cdrcmple>:
    6478:	4684      	mov	ip, r0
    647a:	4610      	mov	r0, r2
    647c:	4662      	mov	r2, ip
    647e:	468c      	mov	ip, r1
    6480:	4619      	mov	r1, r3
    6482:	4663      	mov	r3, ip
    6484:	e000      	b.n	6488 <__aeabi_cdcmpeq>
    6486:	bf00      	nop

00006488 <__aeabi_cdcmpeq>:
    6488:	b501      	push	{r0, lr}
    648a:	f7ff ffb7 	bl	63fc <__cmpdf2>
    648e:	2800      	cmp	r0, #0
    6490:	bf48      	it	mi
    6492:	f110 0f00 	cmnmi.w	r0, #0
    6496:	bd01      	pop	{r0, pc}

00006498 <__aeabi_dcmpeq>:
    6498:	f84d ed08 	str.w	lr, [sp, #-8]!
    649c:	f7ff fff4 	bl	6488 <__aeabi_cdcmpeq>
    64a0:	bf0c      	ite	eq
    64a2:	2001      	moveq	r0, #1
    64a4:	2000      	movne	r0, #0
    64a6:	f85d fb08 	ldr.w	pc, [sp], #8
    64aa:	bf00      	nop

000064ac <__aeabi_dcmplt>:
    64ac:	f84d ed08 	str.w	lr, [sp, #-8]!
    64b0:	f7ff ffea 	bl	6488 <__aeabi_cdcmpeq>
    64b4:	bf34      	ite	cc
    64b6:	2001      	movcc	r0, #1
    64b8:	2000      	movcs	r0, #0
    64ba:	f85d fb08 	ldr.w	pc, [sp], #8
    64be:	bf00      	nop

000064c0 <__aeabi_dcmple>:
    64c0:	f84d ed08 	str.w	lr, [sp, #-8]!
    64c4:	f7ff ffe0 	bl	6488 <__aeabi_cdcmpeq>
    64c8:	bf94      	ite	ls
    64ca:	2001      	movls	r0, #1
    64cc:	2000      	movhi	r0, #0
    64ce:	f85d fb08 	ldr.w	pc, [sp], #8
    64d2:	bf00      	nop

000064d4 <__aeabi_dcmpge>:
    64d4:	f84d ed08 	str.w	lr, [sp, #-8]!
    64d8:	f7ff ffce 	bl	6478 <__aeabi_cdrcmple>
    64dc:	bf94      	ite	ls
    64de:	2001      	movls	r0, #1
    64e0:	2000      	movhi	r0, #0
    64e2:	f85d fb08 	ldr.w	pc, [sp], #8
    64e6:	bf00      	nop

000064e8 <__aeabi_dcmpgt>:
    64e8:	f84d ed08 	str.w	lr, [sp, #-8]!
    64ec:	f7ff ffc4 	bl	6478 <__aeabi_cdrcmple>
    64f0:	bf34      	ite	cc
    64f2:	2001      	movcc	r0, #1
    64f4:	2000      	movcs	r0, #0
    64f6:	f85d fb08 	ldr.w	pc, [sp], #8
    64fa:	bf00      	nop

000064fc <__aeabi_dcmpun>:
    64fc:	ea4f 0c41 	mov.w	ip, r1, lsl #1
    6500:	ea7f 5c6c 	mvns.w	ip, ip, asr #21
    6504:	d102      	bne.n	650c <__aeabi_dcmpun+0x10>
    6506:	ea50 3c01 	orrs.w	ip, r0, r1, lsl #12
    650a:	d10a      	bne.n	6522 <__aeabi_dcmpun+0x26>
    650c:	ea4f 0c43 	mov.w	ip, r3, lsl #1
    6510:	ea7f 5c6c 	mvns.w	ip, ip, asr #21
    6514:	d102      	bne.n	651c <__aeabi_dcmpun+0x20>
    6516:	ea52 3c03 	orrs.w	ip, r2, r3, lsl #12
    651a:	d102      	bne.n	6522 <__aeabi_dcmpun+0x26>
    651c:	f04f 0000 	mov.w	r0, #0
    6520:	4770      	bx	lr
    6522:	f04f 0001 	mov.w	r0, #1
    6526:	4770      	bx	lr

00006528 <__aeabi_d2iz>:
    6528:	ea4f 0241 	mov.w	r2, r1, lsl #1
    652c:	f512 1200 	adds.w	r2, r2, #2097152	@ 0x200000
    6530:	d215      	bcs.n	655e <__aeabi_d2iz+0x36>
    6532:	d511      	bpl.n	6558 <__aeabi_d2iz+0x30>
    6534:	f46f 7378 	mvn.w	r3, #992	@ 0x3e0
    6538:	ebb3 5262 	subs.w	r2, r3, r2, asr #21
    653c:	d912      	bls.n	6564 <__aeabi_d2iz+0x3c>
    653e:	ea4f 23c1 	mov.w	r3, r1, lsl #11
    6542:	f043 4300 	orr.w	r3, r3, #2147483648	@ 0x80000000
    6546:	ea43 5350 	orr.w	r3, r3, r0, lsr #21
    654a:	f011 4f00 	tst.w	r1, #2147483648	@ 0x80000000
    654e:	fa23 f002 	lsr.w	r0, r3, r2
    6552:	bf18      	it	ne
    6554:	4240      	negne	r0, r0
    6556:	4770      	bx	lr
    6558:	f04f 0000 	mov.w	r0, #0
    655c:	4770      	bx	lr
    655e:	ea50 3001 	orrs.w	r0, r0, r1, lsl #12
    6562:	d105      	bne.n	6570 <__aeabi_d2iz+0x48>
    6564:	f011 4000 	ands.w	r0, r1, #2147483648	@ 0x80000000
    6568:	bf08      	it	eq
    656a:	f06f 4000 	mvneq.w	r0, #2147483648	@ 0x80000000
    656e:	4770      	bx	lr
    6570:	f04f 0000 	mov.w	r0, #0
    6574:	4770      	bx	lr
    6576:	bf00      	nop

00006578 <HAL_BE_Out>:
    6578:	4770      	bx	lr

0000657a <HAL_BE_In>:
    657a:	4608      	mov	r0, r1
    657c:	4770      	bx	lr

0000657e <HAL_BE_BLE_ReadPacket>:
    657e:	2001      	movs	r0, #1
    6580:	4770      	bx	lr
	...

00006584 <ble_receive>:
    6584:	b5f8      	push	{r3, r4, r5, r6, r7, lr}
    6586:	4b1f      	ldr	r3, [pc, #124]	@ (6604 <ble_receive+0x80>)
    6588:	4606      	mov	r6, r0
    658a:	4617      	mov	r7, r2
    658c:	481e      	ldr	r0, [pc, #120]	@ (6608 <ble_receive+0x84>)
    658e:	2201      	movs	r2, #1
    6590:	605a      	str	r2, [r3, #4]
    6592:	f8d3 2100 	ldr.w	r2, [r3, #256]	@ 0x100
    6596:	b922      	cbnz	r2, 65a2 <ble_receive+0x1e>
    6598:	b908      	cbnz	r0, 659e <ble_receive+0x1a>
    659a:	206e      	movs	r0, #110	@ 0x6e
    659c:	bdf8      	pop	{r3, r4, r5, r6, r7, pc}
    659e:	3801      	subs	r0, #1
    65a0:	e7f7      	b.n	6592 <ble_receive+0xe>
    65a2:	2800      	cmp	r0, #0
    65a4:	d0f9      	beq.n	659a <ble_receive+0x16>
    65a6:	2200      	movs	r2, #0
    65a8:	f8c3 2100 	str.w	r2, [r3, #256]	@ 0x100
    65ac:	2201      	movs	r2, #1
    65ae:	609a      	str	r2, [r3, #8]
    65b0:	4d14      	ldr	r5, [pc, #80]	@ (6604 <ble_receive+0x80>)
    65b2:	4b15      	ldr	r3, [pc, #84]	@ (6608 <ble_receive+0x84>)
    65b4:	f8d5 210c 	ldr.w	r2, [r5, #268]	@ 0x10c
    65b8:	b91a      	cbnz	r2, 65c2 <ble_receive+0x3e>
    65ba:	2b00      	cmp	r3, #0
    65bc:	d0ed      	beq.n	659a <ble_receive+0x16>
    65be:	3b01      	subs	r3, #1
    65c0:	e7f8      	b.n	65b4 <ble_receive+0x30>
    65c2:	2b00      	cmp	r3, #0
    65c4:	d0e9      	beq.n	659a <ble_receive+0x16>
    65c6:	2300      	movs	r3, #0
    65c8:	f8c5 310c 	str.w	r3, [r5, #268]	@ 0x10c
    65cc:	f8d5 3608 	ldr.w	r3, [r5, #1544]	@ 0x608
    65d0:	b1a3      	cbz	r3, 65fc <ble_receive+0x78>
    65d2:	f8d5 460c 	ldr.w	r4, [r5, #1548]	@ 0x60c
    65d6:	428c      	cmp	r4, r1
    65d8:	d812      	bhi.n	6600 <ble_receive+0x7c>
    65da:	4622      	mov	r2, r4
    65dc:	490b      	ldr	r1, [pc, #44]	@ (660c <ble_receive+0x88>)
    65de:	4630      	mov	r0, r6
    65e0:	f7fc fc60 	bl	2ea4 <memcpy>
    65e4:	2301      	movs	r3, #1
    65e6:	603c      	str	r4, [r7, #0]
    65e8:	4621      	mov	r1, r4
    65ea:	612b      	str	r3, [r5, #16]
    65ec:	4808      	ldr	r0, [pc, #32]	@ (6610 <ble_receive+0x8c>)
    65ee:	f000 fb41 	bl	6c74 <printf>
    65f2:	4621      	mov	r1, r4
    65f4:	4630      	mov	r0, r6
    65f6:	f7ff ffc2 	bl	657e <HAL_BE_BLE_ReadPacket>
    65fa:	e7cf      	b.n	659c <ble_receive+0x18>
    65fc:	2005      	movs	r0, #5
    65fe:	e7cd      	b.n	659c <ble_receive+0x18>
    6600:	2016      	movs	r0, #22
    6602:	e7cb      	b.n	659c <ble_receive+0x18>
    6604:	40001000 	.word	0x40001000
    6608:	000f4240 	.word	0x000f4240
    660c:	20000942 	.word	0x20000942
    6610:	00006f4c 	.word	0x00006f4c

00006614 <HAL_BE_BLE_WritePacket>:
    6614:	4608      	mov	r0, r1
    6616:	4770      	bx	lr

00006618 <ble_send.part.0>:
    6618:	b538      	push	{r3, r4, r5, lr}
    661a:	4a15      	ldr	r2, [pc, #84]	@ (6670 <ble_send.part.0+0x58>)
    661c:	4b15      	ldr	r3, [pc, #84]	@ (6674 <ble_send.part.0+0x5c>)
    661e:	4605      	mov	r5, r0
    6620:	460c      	mov	r4, r1
    6622:	f8d3 1100 	ldr.w	r1, [r3, #256]	@ 0x100
    6626:	b921      	cbnz	r1, 6632 <ble_send.part.0+0x1a>
    6628:	b90a      	cbnz	r2, 662e <ble_send.part.0+0x16>
    662a:	206e      	movs	r0, #110	@ 0x6e
    662c:	bd38      	pop	{r3, r4, r5, pc}
    662e:	3a01      	subs	r2, #1
    6630:	e7f7      	b.n	6622 <ble_send.part.0+0xa>
    6632:	2a00      	cmp	r2, #0
    6634:	d0f9      	beq.n	662a <ble_send.part.0+0x12>
    6636:	2200      	movs	r2, #0
    6638:	f8c3 2100 	str.w	r2, [r3, #256]	@ 0x100
    663c:	2201      	movs	r2, #1
    663e:	609a      	str	r2, [r3, #8]
    6640:	4a0b      	ldr	r2, [pc, #44]	@ (6670 <ble_send.part.0+0x58>)
    6642:	f8d3 110c 	ldr.w	r1, [r3, #268]	@ 0x10c
    6646:	b919      	cbnz	r1, 6650 <ble_send.part.0+0x38>
    6648:	2a00      	cmp	r2, #0
    664a:	d0ee      	beq.n	662a <ble_send.part.0+0x12>
    664c:	3a01      	subs	r2, #1
    664e:	e7f8      	b.n	6642 <ble_send.part.0+0x2a>
    6650:	2a00      	cmp	r2, #0
    6652:	d0ea      	beq.n	662a <ble_send.part.0+0x12>
    6654:	2200      	movs	r2, #0
    6656:	f8c3 210c 	str.w	r2, [r3, #268]	@ 0x10c
    665a:	2201      	movs	r2, #1
    665c:	4621      	mov	r1, r4
    665e:	611a      	str	r2, [r3, #16]
    6660:	4805      	ldr	r0, [pc, #20]	@ (6678 <ble_send.part.0+0x60>)
    6662:	f000 fb07 	bl	6c74 <printf>
    6666:	4621      	mov	r1, r4
    6668:	4628      	mov	r0, r5
    666a:	f7ff ffd3 	bl	6614 <HAL_BE_BLE_WritePacket>
    666e:	e7dd      	b.n	662c <ble_send.part.0+0x14>
    6670:	000f4240 	.word	0x000f4240
    6674:	40001000 	.word	0x40001000
    6678:	00006f65 	.word	0x00006f65

0000667c <test_ble_tx_rx>:
    667c:	b510      	push	{r4, lr}
    667e:	481d      	ldr	r0, [pc, #116]	@ (66f4 <test_ble_tx_rx+0x78>)
    6680:	b0c4      	sub	sp, #272	@ 0x110
    6682:	f000 fb0f 	bl	6ca4 <puts>
    6686:	4b1c      	ldr	r3, [pc, #112]	@ (66f8 <test_ble_tx_rx+0x7c>)
    6688:	8899      	ldrh	r1, [r3, #4]
    668a:	6818      	ldr	r0, [r3, #0]
    668c:	799a      	ldrb	r2, [r3, #6]
    668e:	f8ad 100c 	strh.w	r1, [sp, #12]
    6692:	4b1a      	ldr	r3, [pc, #104]	@ (66fc <test_ble_tx_rx+0x80>)
    6694:	f8bd 100c 	ldrh.w	r1, [sp, #12]
    6698:	6018      	str	r0, [r3, #0]
    669a:	8099      	strh	r1, [r3, #4]
    669c:	719a      	strb	r2, [r3, #6]
    669e:	4b18      	ldr	r3, [pc, #96]	@ (6700 <test_ble_tx_rx+0x84>)
    66a0:	f88d 200e 	strb.w	r2, [sp, #14]
    66a4:	2201      	movs	r2, #1
    66a6:	9002      	str	r0, [sp, #8]
    66a8:	2107      	movs	r1, #7
    66aa:	601a      	str	r2, [r3, #0]
    66ac:	a802      	add	r0, sp, #8
    66ae:	f7ff ffb3 	bl	6618 <ble_send.part.0>
    66b2:	4604      	mov	r4, r0
    66b4:	b130      	cbz	r0, 66c4 <test_ble_tx_rx+0x48>
    66b6:	4601      	mov	r1, r0
    66b8:	4812      	ldr	r0, [pc, #72]	@ (6704 <test_ble_tx_rx+0x88>)
    66ba:	f000 fadb 	bl	6c74 <printf>
    66be:	4620      	mov	r0, r4
    66c0:	b044      	add	sp, #272	@ 0x110
    66c2:	bd10      	pop	{r4, pc}
    66c4:	f24c 3350 	movw	r3, #50000	@ 0xc350
    66c8:	bf00      	nop
    66ca:	3b01      	subs	r3, #1
    66cc:	d1fc      	bne.n	66c8 <test_ble_tx_rx+0x4c>
    66ce:	aa01      	add	r2, sp, #4
    66d0:	21ff      	movs	r1, #255	@ 0xff
    66d2:	a804      	add	r0, sp, #16
    66d4:	f7ff ff56 	bl	6584 <ble_receive>
    66d8:	4604      	mov	r4, r0
    66da:	b110      	cbz	r0, 66e2 <test_ble_tx_rx+0x66>
    66dc:	4601      	mov	r1, r0
    66de:	480a      	ldr	r0, [pc, #40]	@ (6708 <test_ble_tx_rx+0x8c>)
    66e0:	e7eb      	b.n	66ba <test_ble_tx_rx+0x3e>
    66e2:	9901      	ldr	r1, [sp, #4]
    66e4:	b109      	cbz	r1, 66ea <test_ble_tx_rx+0x6e>
    66e6:	4809      	ldr	r0, [pc, #36]	@ (670c <test_ble_tx_rx+0x90>)
    66e8:	e7e7      	b.n	66ba <test_ble_tx_rx+0x3e>
    66ea:	4809      	ldr	r0, [pc, #36]	@ (6710 <test_ble_tx_rx+0x94>)
    66ec:	f000 fada 	bl	6ca4 <puts>
    66f0:	e7e5      	b.n	66be <test_ble_tx_rx+0x42>
    66f2:	bf00      	nop
    66f4:	00006f7a 	.word	0x00006f7a
    66f8:	0000700a 	.word	0x0000700a
    66fc:	20000843 	.word	0x20000843
    6700:	40001000 	.word	0x40001000
    6704:	00006f91 	.word	0x00006f91
    6708:	00006fb0 	.word	0x00006fb0
    670c:	00006fd2 	.word	0x00006fd2
    6710:	00006ff1 	.word	0x00006ff1

00006714 <HAL_BE_BLE_StartScan>:
    6714:	2001      	movs	r0, #1
    6716:	4770      	bx	lr

00006718 <HAL_BE_BLE_StopScan>:
    6718:	2001      	movs	r0, #1
    671a:	4770      	bx	lr

0000671c <HAL_BE_BLE_StartAdv>:
    671c:	2001      	movs	r0, #1
    671e:	4770      	bx	lr

00006720 <HAL_BE_BLE_StopAdv>:
    6720:	2001      	movs	r0, #1
    6722:	4770      	bx	lr

00006724 <main>:
    6724:	b5f0      	push	{r4, r5, r6, r7, lr}
    6726:	48b7      	ldr	r0, [pc, #732]	@ (6a04 <main+0x2e0>)
    6728:	4db7      	ldr	r5, [pc, #732]	@ (6a08 <main+0x2e4>)
    672a:	b08d      	sub	sp, #52	@ 0x34
    672c:	f000 faba 	bl	6ca4 <puts>
    6730:	48b6      	ldr	r0, [pc, #728]	@ (6a0c <main+0x2e8>)
    6732:	f000 fab7 	bl	6ca4 <puts>
    6736:	48b6      	ldr	r0, [pc, #728]	@ (6a10 <main+0x2ec>)
    6738:	f000 fab4 	bl	6ca4 <puts>
    673c:	48b5      	ldr	r0, [pc, #724]	@ (6a14 <main+0x2f0>)
    673e:	f000 fab1 	bl	6ca4 <puts>
    6742:	48b5      	ldr	r0, [pc, #724]	@ (6a18 <main+0x2f4>)
    6744:	f000 faae 	bl	6ca4 <puts>
    6748:	48b4      	ldr	r0, [pc, #720]	@ (6a1c <main+0x2f8>)
    674a:	f000 faab 	bl	6ca4 <puts>
    674e:	48b4      	ldr	r0, [pc, #720]	@ (6a20 <main+0x2fc>)
    6750:	f000 faa8 	bl	6ca4 <puts>
    6754:	48b3      	ldr	r0, [pc, #716]	@ (6a24 <main+0x300>)
    6756:	f000 faa5 	bl	6ca4 <puts>
    675a:	48b3      	ldr	r0, [pc, #716]	@ (6a28 <main+0x304>)
    675c:	f000 faa2 	bl	6ca4 <puts>
    6760:	48b2      	ldr	r0, [pc, #712]	@ (6a2c <main+0x308>)
    6762:	f000 fa9f 	bl	6ca4 <puts>
    6766:	48b2      	ldr	r0, [pc, #712]	@ (6a30 <main+0x30c>)
    6768:	f000 fa9c 	bl	6ca4 <puts>
    676c:	2301      	movs	r3, #1
    676e:	612b      	str	r3, [r5, #16]
    6770:	4bb0      	ldr	r3, [pc, #704]	@ (6a34 <main+0x310>)
    6772:	f8d5 2110 	ldr.w	r2, [r5, #272]	@ 0x110
    6776:	2a00      	cmp	r2, #0
    6778:	d055      	beq.n	6826 <main+0x102>
    677a:	2300      	movs	r3, #0
    677c:	2601      	movs	r6, #1
    677e:	2207      	movs	r2, #7
    6780:	2702      	movs	r7, #2
    6782:	f8c5 3110 	str.w	r3, [r5, #272]	@ 0x110
    6786:	f8c5 6818 	str.w	r6, [r5, #2072]	@ 0x818
    678a:	f8c5 7810 	str.w	r7, [r5, #2064]	@ 0x810
    678e:	f8c5 3814 	str.w	r3, [r5, #2068]	@ 0x814
    6792:	f8c5 281c 	str.w	r2, [r5, #2076]	@ 0x81c
    6796:	22ff      	movs	r2, #255	@ 0xff
    6798:	f8c5 2820 	str.w	r2, [r5, #2080]	@ 0x820
    679c:	4aa6      	ldr	r2, [pc, #664]	@ (6a38 <main+0x314>)
    679e:	f8c5 2824 	str.w	r2, [r5, #2084]	@ 0x824
    67a2:	228e      	movs	r2, #142	@ 0x8e
    67a4:	f8c5 282c 	str.w	r2, [r5, #2092]	@ 0x82c
    67a8:	2203      	movs	r2, #3
    67aa:	f8c5 283c 	str.w	r2, [r5, #2108]	@ 0x83c
    67ae:	f240 625b 	movw	r2, #1627	@ 0x65b
    67b2:	f8c5 2840 	str.w	r2, [r5, #2112]	@ 0x840
    67b6:	4aa1      	ldr	r2, [pc, #644]	@ (6a3c <main+0x318>)
    67b8:	f8c5 2844 	str.w	r2, [r5, #2116]	@ 0x844
    67bc:	2296      	movs	r2, #150	@ 0x96
    67be:	f8c5 284c 	str.w	r2, [r5, #2124]	@ 0x84c
    67c2:	4a9f      	ldr	r2, [pc, #636]	@ (6a40 <main+0x31c>)
    67c4:	f8c5 280c 	str.w	r2, [r5, #2060]	@ 0x80c
    67c8:	4a9e      	ldr	r2, [pc, #632]	@ (6a44 <main+0x320>)
    67ca:	489f      	ldr	r0, [pc, #636]	@ (6a48 <main+0x324>)
    67cc:	f8c2 62f8 	str.w	r6, [r2, #760]	@ 0x2f8
    67d0:	2123      	movs	r1, #35	@ 0x23
    67d2:	f8c2 12fc 	str.w	r1, [r2, #764]	@ 0x2fc
    67d6:	2145      	movs	r1, #69	@ 0x45
    67d8:	f8c2 1300 	str.w	r1, [r2, #768]	@ 0x300
    67dc:	2167      	movs	r1, #103	@ 0x67
    67de:	f8c2 1304 	str.w	r1, [r2, #772]	@ 0x304
    67e2:	2189      	movs	r1, #137	@ 0x89
    67e4:	f8c2 1308 	str.w	r1, [r2, #776]	@ 0x308
    67e8:	21ab      	movs	r1, #171	@ 0xab
    67ea:	f8c2 130c 	str.w	r1, [r2, #780]	@ 0x30c
    67ee:	f8c2 6338 	str.w	r6, [r2, #824]	@ 0x338
    67f2:	f8c5 3100 	str.w	r3, [r5, #256]	@ 0x100
    67f6:	f8c5 3104 	str.w	r3, [r5, #260]	@ 0x104
    67fa:	f8c5 3108 	str.w	r3, [r5, #264]	@ 0x108
    67fe:	f8c5 310c 	str.w	r3, [r5, #268]	@ 0x10c
    6802:	f8c5 3110 	str.w	r3, [r5, #272]	@ 0x110
    6806:	2308      	movs	r3, #8
    6808:	f8c5 340c 	str.w	r3, [r5, #1036]	@ 0x40c
    680c:	f000 fa4a 	bl	6ca4 <puts>
    6810:	488e      	ldr	r0, [pc, #568]	@ (6a4c <main+0x328>)
    6812:	f000 fa47 	bl	6ca4 <puts>
    6816:	f7ff ff31 	bl	667c <test_ble_tx_rx>
    681a:	4604      	mov	r4, r0
    681c:	b198      	cbz	r0, 6846 <main+0x122>
    681e:	488c      	ldr	r0, [pc, #560]	@ (6a50 <main+0x32c>)
    6820:	f000 fa40 	bl	6ca4 <puts>
    6824:	e00c      	b.n	6840 <main+0x11c>
    6826:	3b01      	subs	r3, #1
    6828:	d1a3      	bne.n	6772 <main+0x4e>
    682a:	488a      	ldr	r0, [pc, #552]	@ (6a54 <main+0x330>)
    682c:	f000 fa3a 	bl	6ca4 <puts>
    6830:	216e      	movs	r1, #110	@ 0x6e
    6832:	4889      	ldr	r0, [pc, #548]	@ (6a58 <main+0x334>)
    6834:	f000 fa1e 	bl	6c74 <printf>
    6838:	4888      	ldr	r0, [pc, #544]	@ (6a5c <main+0x338>)
    683a:	f000 fa33 	bl	6ca4 <puts>
    683e:	246e      	movs	r4, #110	@ 0x6e
    6840:	4620      	mov	r0, r4
    6842:	b00d      	add	sp, #52	@ 0x34
    6844:	bdf0      	pop	{r4, r5, r6, r7, pc}
    6846:	4886      	ldr	r0, [pc, #536]	@ (6a60 <main+0x33c>)
    6848:	f000 fa2c 	bl	6ca4 <puts>
    684c:	4885      	ldr	r0, [pc, #532]	@ (6a64 <main+0x340>)
    684e:	f000 fa29 	bl	6ca4 <puts>
    6852:	f8c5 7810 	str.w	r7, [r5, #2064]	@ 0x810
    6856:	4884      	ldr	r0, [pc, #528]	@ (6a68 <main+0x344>)
    6858:	606e      	str	r6, [r5, #4]
    685a:	60ae      	str	r6, [r5, #8]
    685c:	f000 fa22 	bl	6ca4 <puts>
    6860:	f7ff ff58 	bl	6714 <HAL_BE_BLE_StartScan>
    6864:	4604      	mov	r4, r0
    6866:	b128      	cbz	r0, 6874 <main+0x150>
    6868:	4601      	mov	r1, r0
    686a:	4880      	ldr	r0, [pc, #512]	@ (6a6c <main+0x348>)
    686c:	f000 fa02 	bl	6c74 <printf>
    6870:	487f      	ldr	r0, [pc, #508]	@ (6a70 <main+0x34c>)
    6872:	e7d5      	b.n	6820 <main+0xfc>
    6874:	f242 7310 	movw	r3, #10000	@ 0x2710
    6878:	bf00      	nop
    687a:	3b01      	subs	r3, #1
    687c:	d1fc      	bne.n	6878 <main+0x154>
    687e:	4d62      	ldr	r5, [pc, #392]	@ (6a08 <main+0x2e4>)
    6880:	487c      	ldr	r0, [pc, #496]	@ (6a74 <main+0x350>)
    6882:	2601      	movs	r6, #1
    6884:	f000 fa0e 	bl	6ca4 <puts>
    6888:	60ee      	str	r6, [r5, #12]
    688a:	487b      	ldr	r0, [pc, #492]	@ (6a78 <main+0x354>)
    688c:	612e      	str	r6, [r5, #16]
    688e:	f000 fa09 	bl	6ca4 <puts>
    6892:	f7ff ff41 	bl	6718 <HAL_BE_BLE_StopScan>
    6896:	4604      	mov	r4, r0
    6898:	b110      	cbz	r0, 68a0 <main+0x17c>
    689a:	4601      	mov	r1, r0
    689c:	4877      	ldr	r0, [pc, #476]	@ (6a7c <main+0x358>)
    689e:	e7e5      	b.n	686c <main+0x148>
    68a0:	4877      	ldr	r0, [pc, #476]	@ (6a80 <main+0x35c>)
    68a2:	f000 f9ff 	bl	6ca4 <puts>
    68a6:	4877      	ldr	r0, [pc, #476]	@ (6a84 <main+0x360>)
    68a8:	f000 f9fc 	bl	6ca4 <puts>
    68ac:	4b76      	ldr	r3, [pc, #472]	@ (6a88 <main+0x364>)
    68ae:	6818      	ldr	r0, [r3, #0]
    68b0:	889a      	ldrh	r2, [r3, #4]
    68b2:	9007      	str	r0, [sp, #28]
    68b4:	799b      	ldrb	r3, [r3, #6]
    68b6:	4875      	ldr	r0, [pc, #468]	@ (6a8c <main+0x368>)
    68b8:	f8ad 2020 	strh.w	r2, [sp, #32]
    68bc:	f88d 3022 	strb.w	r3, [sp, #34]	@ 0x22
    68c0:	f000 f9f0 	bl	6ca4 <puts>
    68c4:	4b72      	ldr	r3, [pc, #456]	@ (6a90 <main+0x36c>)
    68c6:	f89d 2022 	ldrb.w	r2, [sp, #34]	@ 0x22
    68ca:	9807      	ldr	r0, [sp, #28]
    68cc:	f8bd 1020 	ldrh.w	r1, [sp, #32]
    68d0:	719a      	strb	r2, [r3, #6]
    68d2:	2202      	movs	r2, #2
    68d4:	6018      	str	r0, [r3, #0]
    68d6:	8099      	strh	r1, [r3, #4]
    68d8:	486e      	ldr	r0, [pc, #440]	@ (6a94 <main+0x370>)
    68da:	f8c5 2810 	str.w	r2, [r5, #2064]	@ 0x810
    68de:	2107      	movs	r1, #7
    68e0:	f8c5 380c 	str.w	r3, [r5, #2060]	@ 0x80c
    68e4:	602e      	str	r6, [r5, #0]
    68e6:	60ae      	str	r6, [r5, #8]
    68e8:	f000 f9c4 	bl	6c74 <printf>
    68ec:	f7ff ff16 	bl	671c <HAL_BE_BLE_StartAdv>
    68f0:	4604      	mov	r4, r0
    68f2:	b9a8      	cbnz	r0, 6920 <main+0x1fc>
    68f4:	f242 7510 	movw	r5, #10000	@ 0x2710
    68f8:	bf00      	nop
    68fa:	3d01      	subs	r5, #1
    68fc:	d1fc      	bne.n	68f8 <main+0x1d4>
    68fe:	4866      	ldr	r0, [pc, #408]	@ (6a98 <main+0x374>)
    6900:	f000 f9d0 	bl	6ca4 <puts>
    6904:	4b40      	ldr	r3, [pc, #256]	@ (6a08 <main+0x2e4>)
    6906:	4865      	ldr	r0, [pc, #404]	@ (6a9c <main+0x378>)
    6908:	2601      	movs	r6, #1
    690a:	60de      	str	r6, [r3, #12]
    690c:	611e      	str	r6, [r3, #16]
    690e:	f000 f9c9 	bl	6ca4 <puts>
    6912:	f7ff ff05 	bl	6720 <HAL_BE_BLE_StopAdv>
    6916:	4604      	mov	r4, r0
    6918:	b140      	cbz	r0, 692c <main+0x208>
    691a:	4601      	mov	r1, r0
    691c:	4860      	ldr	r0, [pc, #384]	@ (6aa0 <main+0x37c>)
    691e:	e001      	b.n	6924 <main+0x200>
    6920:	4601      	mov	r1, r0
    6922:	4860      	ldr	r0, [pc, #384]	@ (6aa4 <main+0x380>)
    6924:	f000 f9a6 	bl	6c74 <printf>
    6928:	485f      	ldr	r0, [pc, #380]	@ (6aa8 <main+0x384>)
    692a:	e779      	b.n	6820 <main+0xfc>
    692c:	485f      	ldr	r0, [pc, #380]	@ (6aac <main+0x388>)
    692e:	f000 f9b9 	bl	6ca4 <puts>
    6932:	485f      	ldr	r0, [pc, #380]	@ (6ab0 <main+0x38c>)
    6934:	f000 f9b6 	bl	6ca4 <puts>
    6938:	485e      	ldr	r0, [pc, #376]	@ (6ab4 <main+0x390>)
    693a:	f000 f9b3 	bl	6ca4 <puts>
    693e:	485e      	ldr	r0, [pc, #376]	@ (6ab8 <main+0x394>)
    6940:	f000 f9b0 	bl	6ca4 <puts>
    6944:	2205      	movs	r2, #5
    6946:	4631      	mov	r1, r6
    6948:	485c      	ldr	r0, [pc, #368]	@ (6abc <main+0x398>)
    694a:	f000 f993 	bl	6c74 <printf>
    694e:	485c      	ldr	r0, [pc, #368]	@ (6ac0 <main+0x39c>)
    6950:	f000 f9a8 	bl	6ca4 <puts>
    6954:	2102      	movs	r1, #2
    6956:	485b      	ldr	r0, [pc, #364]	@ (6ac4 <main+0x3a0>)
    6958:	f000 f98c 	bl	6c74 <printf>
    695c:	2102      	movs	r1, #2
    695e:	485a      	ldr	r0, [pc, #360]	@ (6ac8 <main+0x3a4>)
    6960:	f000 f988 	bl	6c74 <printf>
    6964:	2102      	movs	r1, #2
    6966:	4859      	ldr	r0, [pc, #356]	@ (6acc <main+0x3a8>)
    6968:	f000 f984 	bl	6c74 <printf>
    696c:	2106      	movs	r1, #6
    696e:	4858      	ldr	r0, [pc, #352]	@ (6ad0 <main+0x3ac>)
    6970:	f000 f980 	bl	6c74 <printf>
    6974:	2148      	movs	r1, #72	@ 0x48
    6976:	4856      	ldr	r0, [pc, #344]	@ (6ad0 <main+0x3ac>)
    6978:	f000 f97c 	bl	6c74 <printf>
    697c:	200a      	movs	r0, #10
    697e:	f000 f9a3 	bl	6cc8 <putchar>
    6982:	2203      	movs	r2, #3
    6984:	2102      	movs	r1, #2
    6986:	4853      	ldr	r0, [pc, #332]	@ (6ad4 <main+0x3b0>)
    6988:	f000 f974 	bl	6c74 <printf>
    698c:	4852      	ldr	r0, [pc, #328]	@ (6ad8 <main+0x3b4>)
    698e:	f000 f989 	bl	6ca4 <puts>
    6992:	4852      	ldr	r0, [pc, #328]	@ (6adc <main+0x3b8>)
    6994:	f000 f986 	bl	6ca4 <puts>
    6998:	4851      	ldr	r0, [pc, #324]	@ (6ae0 <main+0x3bc>)
    699a:	f000 f983 	bl	6ca4 <puts>
    699e:	ab02      	add	r3, sp, #8
    69a0:	461e      	mov	r6, r3
    69a2:	f803 5b01 	strb.w	r5, [r3], #1
    69a6:	3501      	adds	r5, #1
    69a8:	2d14      	cmp	r5, #20
    69aa:	d1fa      	bne.n	69a2 <main+0x27e>
    69ac:	4b24      	ldr	r3, [pc, #144]	@ (6a40 <main+0x31c>)
    69ae:	4634      	mov	r4, r6
    69b0:	ad06      	add	r5, sp, #24
    69b2:	4622      	mov	r2, r4
    69b4:	ca03      	ldmia	r2!, {r0, r1}
    69b6:	42aa      	cmp	r2, r5
    69b8:	6018      	str	r0, [r3, #0]
    69ba:	6059      	str	r1, [r3, #4]
    69bc:	4614      	mov	r4, r2
    69be:	f103 0308 	add.w	r3, r3, #8
    69c2:	d1f6      	bne.n	69b2 <main+0x28e>
    69c4:	6810      	ldr	r0, [r2, #0]
    69c6:	6018      	str	r0, [r3, #0]
    69c8:	4b0f      	ldr	r3, [pc, #60]	@ (6a08 <main+0x2e4>)
    69ca:	2201      	movs	r2, #1
    69cc:	601a      	str	r2, [r3, #0]
    69ce:	2114      	movs	r1, #20
    69d0:	4630      	mov	r0, r6
    69d2:	f7ff fe21 	bl	6618 <ble_send.part.0>
    69d6:	4604      	mov	r4, r0
    69d8:	b120      	cbz	r0, 69e4 <main+0x2c0>
    69da:	4842      	ldr	r0, [pc, #264]	@ (6ae4 <main+0x3c0>)
    69dc:	f000 f962 	bl	6ca4 <puts>
    69e0:	4841      	ldr	r0, [pc, #260]	@ (6ae8 <main+0x3c4>)
    69e2:	e71d      	b.n	6820 <main+0xfc>
    69e4:	f242 7310 	movw	r3, #10000	@ 0x2710
    69e8:	bf00      	nop
    69ea:	3b01      	subs	r3, #1
    69ec:	d1fc      	bne.n	69e8 <main+0x2c4>
    69ee:	aa01      	add	r2, sp, #4
    69f0:	2114      	movs	r1, #20
    69f2:	a807      	add	r0, sp, #28
    69f4:	f7ff fdc6 	bl	6584 <ble_receive>
    69f8:	4604      	mov	r4, r0
    69fa:	2800      	cmp	r0, #0
    69fc:	d078      	beq.n	6af0 <main+0x3cc>
    69fe:	483b      	ldr	r0, [pc, #236]	@ (6aec <main+0x3c8>)
    6a00:	e7ec      	b.n	69dc <main+0x2b8>
    6a02:	bf00      	nop
    6a04:	00007012 	.word	0x00007012
    6a08:	40001000 	.word	0x40001000
    6a0c:	0000703c 	.word	0x0000703c
    6a10:	00007070 	.word	0x00007070
    6a14:	00007091 	.word	0x00007091
    6a18:	000070b8 	.word	0x000070b8
    6a1c:	000070d6 	.word	0x000070d6
    6a20:	000070ee 	.word	0x000070ee
    6a24:	0000711e 	.word	0x0000711e
    6a28:	00007148 	.word	0x00007148
    6a2c:	0000716a 	.word	0x0000716a
    6a30:	00007185 	.word	0x00007185
    6a34:	000f4240 	.word	0x000f4240
    6a38:	71764129 	.word	0x71764129
    6a3c:	00555555 	.word	0x00555555
    6a40:	20000843 	.word	0x20000843
    6a44:	40002000 	.word	0x40002000
    6a48:	000071ba 	.word	0x000071ba
    6a4c:	000071d7 	.word	0x000071d7
    6a50:	0000725a 	.word	0x0000725a
    6a54:	000071fc 	.word	0x000071fc
    6a58:	00007211 	.word	0x00007211
    6a5c:	0000723a 	.word	0x0000723a
    6a60:	0000727a 	.word	0x0000727a
    6a64:	00007290 	.word	0x00007290
    6a68:	000072a6 	.word	0x000072a6
    6a6c:	000072b8 	.word	0x000072b8
    6a70:	000073b4 	.word	0x000073b4
    6a74:	000072dd 	.word	0x000072dd
    6a78:	000072f3 	.word	0x000072f3
    6a7c:	00007305 	.word	0x00007305
    6a80:	00007329 	.word	0x00007329
    6a84:	0000734c 	.word	0x0000734c
    6a88:	0000700a 	.word	0x0000700a
    6a8c:	00007369 	.word	0x00007369
    6a90:	20000824 	.word	0x20000824
    6a94:	00007386 	.word	0x00007386
    6a98:	00007400 	.word	0x00007400
    6a9c:	0000741d 	.word	0x0000741d
    6aa0:	00007436 	.word	0x00007436
    6aa4:	000073d4 	.word	0x000073d4
    6aa8:	00007697 	.word	0x00007697
    6aac:	00007461 	.word	0x00007461
    6ab0:	0000748b 	.word	0x0000748b
    6ab4:	000074a1 	.word	0x000074a1
    6ab8:	000074c3 	.word	0x000074c3
    6abc:	000074f9 	.word	0x000074f9
    6ac0:	00007533 	.word	0x00007533
    6ac4:	00007569 	.word	0x00007569
    6ac8:	0000759a 	.word	0x0000759a
    6acc:	000075c3 	.word	0x000075c3
    6ad0:	000075f3 	.word	0x000075f3
    6ad4:	000075f9 	.word	0x000075f9
    6ad8:	00007637 	.word	0x00007637
    6adc:	00007657 	.word	0x00007657
    6ae0:	0000767a 	.word	0x0000767a
    6ae4:	000076b7 	.word	0x000076b7
    6ae8:	000077a4 	.word	0x000077a4
    6aec:	000076e4 	.word	0x000076e4
    6af0:	9b01      	ldr	r3, [sp, #4]
    6af2:	b33b      	cbz	r3, 6b44 <main+0x420>
    6af4:	2214      	movs	r2, #20
    6af6:	a907      	add	r1, sp, #28
    6af8:	4630      	mov	r0, r6
    6afa:	f7fc f9a5 	bl	2e48 <memcmp>
    6afe:	b9e0      	cbnz	r0, 6b3a <main+0x416>
    6b00:	4811      	ldr	r0, [pc, #68]	@ (6b48 <main+0x424>)
    6b02:	f000 f8cf 	bl	6ca4 <puts>
    6b06:	4811      	ldr	r0, [pc, #68]	@ (6b4c <main+0x428>)
    6b08:	f000 f8cc 	bl	6ca4 <puts>
    6b0c:	2100      	movs	r1, #0
    6b0e:	4810      	ldr	r0, [pc, #64]	@ (6b50 <main+0x42c>)
    6b10:	f000 f8b0 	bl	6c74 <printf>
    6b14:	f44f 7180 	mov.w	r1, #256	@ 0x100
    6b18:	480d      	ldr	r0, [pc, #52]	@ (6b50 <main+0x42c>)
    6b1a:	f000 f8ab 	bl	6c74 <printf>
    6b1e:	480d      	ldr	r0, [pc, #52]	@ (6b54 <main+0x430>)
    6b20:	f000 f8c0 	bl	6ca4 <puts>
    6b24:	480c      	ldr	r0, [pc, #48]	@ (6b58 <main+0x434>)
    6b26:	f000 f8bd 	bl	6ca4 <puts>
    6b2a:	480c      	ldr	r0, [pc, #48]	@ (6b5c <main+0x438>)
    6b2c:	f000 f8ba 	bl	6ca4 <puts>
    6b30:	480b      	ldr	r0, [pc, #44]	@ (6b60 <main+0x43c>)
    6b32:	f000 f8b7 	bl	6ca4 <puts>
    6b36:	480b      	ldr	r0, [pc, #44]	@ (6b64 <main+0x440>)
    6b38:	e672      	b.n	6820 <main+0xfc>
    6b3a:	480b      	ldr	r0, [pc, #44]	@ (6b68 <main+0x444>)
    6b3c:	f000 f8b2 	bl	6ca4 <puts>
    6b40:	2405      	movs	r4, #5
    6b42:	e74d      	b.n	69e0 <main+0x2bc>
    6b44:	4809      	ldr	r0, [pc, #36]	@ (6b6c <main+0x448>)
    6b46:	e7dc      	b.n	6b02 <main+0x3de>
    6b48:	00007714 	.word	0x00007714
    6b4c:	000077c4 	.word	0x000077c4
    6b50:	000077df 	.word	0x000077df
    6b54:	000077fe 	.word	0x000077fe
    6b58:	00007012 	.word	0x00007012
    6b5c:	00007828 	.word	0x00007828
    6b60:	00007846 	.word	0x00007846
    6b64:	00007013 	.word	0x00007013
    6b68:	00007747 	.word	0x00007747
    6b6c:	00007778 	.word	0x00007778

00006b70 <Reset_Handler>:
    6b70:	480a      	ldr	r0, [pc, #40]	@ (6b9c <zero_bss_init+0xa>)
    6b72:	490b      	ldr	r1, [pc, #44]	@ (6ba0 <zero_bss_init+0xe>)
    6b74:	4a0b      	ldr	r2, [pc, #44]	@ (6ba4 <zero_bss_init+0x12>)
    6b76:	e003      	b.n	6b80 <copy_data_init>

00006b78 <copy_data_loop>:
    6b78:	f850 3b04 	ldr.w	r3, [r0], #4
    6b7c:	f841 3b04 	str.w	r3, [r1], #4

00006b80 <copy_data_init>:
    6b80:	4291      	cmp	r1, r2
    6b82:	dbf9      	blt.n	6b78 <copy_data_loop>
    6b84:	4808      	ldr	r0, [pc, #32]	@ (6ba8 <zero_bss_init+0x16>)
    6b86:	4909      	ldr	r1, [pc, #36]	@ (6bac <zero_bss_init+0x1a>)
    6b88:	f04f 0200 	mov.w	r2, #0
    6b8c:	e001      	b.n	6b92 <zero_bss_init>

00006b8e <zero_bss_loop>:
    6b8e:	f840 2b04 	str.w	r2, [r0], #4

00006b92 <zero_bss_init>:
    6b92:	4288      	cmp	r0, r1
    6b94:	dbfb      	blt.n	6b8e <zero_bss_loop>
    6b96:	4806      	ldr	r0, [pc, #24]	@ (6bb0 <zero_bss_init+0x1e>)
    6b98:	4700      	bx	r0
    6b9a:	0000      	.short	0x0000
    6b9c:	00007988 	.word	0x00007988
    6ba0:	20000000 	.word	0x20000000
    6ba4:	200006b0 	.word	0x200006b0
    6ba8:	200006b0 	.word	0x200006b0
    6bac:	20000a48 	.word	0x20000a48
    6bb0:	00006725 	.word	0x00006725

00006bb4 <BusFault_Handler>:
    6bb4:	e7fe      	b.n	6bb4 <BusFault_Handler>

00006bb6 <_write.part.0>:
    6bb6:	b570      	push	{r4, r5, r6, lr}
    6bb8:	4606      	mov	r6, r0
    6bba:	460c      	mov	r4, r1
    6bbc:	2500      	movs	r5, #0
    6bbe:	42a5      	cmp	r5, r4
    6bc0:	db01      	blt.n	6bc6 <_write.part.0+0x10>
    6bc2:	4620      	mov	r0, r4
    6bc4:	bd70      	pop	{r4, r5, r6, pc}
    6bc6:	5d70      	ldrb	r0, [r6, r5]
    6bc8:	f7ff fcd6 	bl	6578 <HAL_BE_Out>
    6bcc:	3501      	adds	r5, #1
    6bce:	e7f6      	b.n	6bbe <_write.part.0+0x8>

00006bd0 <_write>:
    6bd0:	4603      	mov	r3, r0
    6bd2:	3b01      	subs	r3, #1
    6bd4:	2b01      	cmp	r3, #1
    6bd6:	4608      	mov	r0, r1
    6bd8:	4611      	mov	r1, r2
    6bda:	d801      	bhi.n	6be0 <_write+0x10>
    6bdc:	f7ff bfeb 	b.w	6bb6 <_write.part.0>
    6be0:	f04f 30ff 	mov.w	r0, #4294967295	@ 0xffffffff
    6be4:	4770      	bx	lr

00006be6 <_read>:
    6be6:	b570      	push	{r4, r5, r6, lr}
    6be8:	460e      	mov	r6, r1
    6bea:	4615      	mov	r5, r2
    6bec:	4604      	mov	r4, r0
    6bee:	b148      	cbz	r0, 6c04 <_read+0x1e>
    6bf0:	f04f 34ff 	mov.w	r4, #4294967295	@ 0xffffffff
    6bf4:	e008      	b.n	6c08 <_read+0x22>
    6bf6:	2101      	movs	r1, #1
    6bf8:	1930      	adds	r0, r6, r4
    6bfa:	f7ff fcbe 	bl	657a <HAL_BE_In>
    6bfe:	2800      	cmp	r0, #0
    6c00:	dd02      	ble.n	6c08 <_read+0x22>
    6c02:	3401      	adds	r4, #1
    6c04:	42ac      	cmp	r4, r5
    6c06:	dbf6      	blt.n	6bf6 <_read+0x10>
    6c08:	4620      	mov	r0, r4
    6c0a:	bd70      	pop	{r4, r5, r6, pc}

00006c0c <_close>:
    6c0c:	f04f 30ff 	mov.w	r0, #4294967295	@ 0xffffffff
    6c10:	4770      	bx	lr

00006c12 <_lseek>:
    6c12:	2000      	movs	r0, #0
    6c14:	4770      	bx	lr

00006c16 <_fstat>:
    6c16:	f44f 5300 	mov.w	r3, #8192	@ 0x2000
    6c1a:	604b      	str	r3, [r1, #4]
    6c1c:	2000      	movs	r0, #0
    6c1e:	4770      	bx	lr

00006c20 <_isatty>:
    6c20:	2001      	movs	r0, #1
    6c22:	4770      	bx	lr

00006c24 <_exit>:
    6c24:	bf00      	nop
    6c26:	e7fd      	b.n	6c24 <_exit>

00006c28 <_kill>:
    6c28:	b508      	push	{r3, lr}
    6c2a:	f7fa fd2d 	bl	1688 <__errno>
    6c2e:	2316      	movs	r3, #22
    6c30:	6003      	str	r3, [r0, #0]
    6c32:	f04f 30ff 	mov.w	r0, #4294967295	@ 0xffffffff
    6c36:	bd08      	pop	{r3, pc}

00006c38 <_getpid>:
    6c38:	2001      	movs	r0, #1
    6c3a:	4770      	bx	lr

00006c3c <_sbrk>:
    6c3c:	4a0a      	ldr	r2, [pc, #40]	@ (6c68 <_sbrk+0x2c>)
    6c3e:	6811      	ldr	r1, [r2, #0]
    6c40:	b508      	push	{r3, lr}
    6c42:	4603      	mov	r3, r0
    6c44:	b909      	cbnz	r1, 6c4a <_sbrk+0xe>
    6c46:	4909      	ldr	r1, [pc, #36]	@ (6c6c <_sbrk+0x30>)
    6c48:	6011      	str	r1, [r2, #0]
    6c4a:	6810      	ldr	r0, [r2, #0]
    6c4c:	4908      	ldr	r1, [pc, #32]	@ (6c70 <_sbrk+0x34>)
    6c4e:	4403      	add	r3, r0
    6c50:	428b      	cmp	r3, r1
    6c52:	d906      	bls.n	6c62 <_sbrk+0x26>
    6c54:	f7fa fd18 	bl	1688 <__errno>
    6c58:	230c      	movs	r3, #12
    6c5a:	6003      	str	r3, [r0, #0]
    6c5c:	f04f 30ff 	mov.w	r0, #4294967295	@ 0xffffffff
    6c60:	bd08      	pop	{r3, pc}
    6c62:	6013      	str	r3, [r2, #0]
    6c64:	e7fc      	b.n	6c60 <_sbrk+0x24>
    6c66:	bf00      	nop
    6c68:	20000a44 	.word	0x20000a44
    6c6c:	20000a48 	.word	0x20000a48
    6c70:	20040000 	.word	0x20040000

00006c74 <printf>:
    6c74:	b40f      	push	{r0, r1, r2, r3}
    6c76:	b510      	push	{r4, lr}
    6c78:	b0a2      	sub	sp, #136	@ 0x88
    6c7a:	ab24      	add	r3, sp, #144	@ 0x90
    6c7c:	2180      	movs	r1, #128	@ 0x80
    6c7e:	f853 2b04 	ldr.w	r2, [r3], #4
    6c82:	9301      	str	r3, [sp, #4]
    6c84:	a802      	add	r0, sp, #8
    6c86:	f7f9 faa7 	bl	1d8 <vsnprintf>
    6c8a:	1e04      	subs	r4, r0, #0
    6c8c:	dd03      	ble.n	6c96 <printf+0x22>
    6c8e:	4621      	mov	r1, r4
    6c90:	a802      	add	r0, sp, #8
    6c92:	f7ff ff90 	bl	6bb6 <_write.part.0>
    6c96:	4620      	mov	r0, r4
    6c98:	b022      	add	sp, #136	@ 0x88
    6c9a:	e8bd 4010 	ldmia.w	sp!, {r4, lr}
    6c9e:	b004      	add	sp, #16
    6ca0:	4770      	bx	lr
	...

00006ca4 <puts>:
    6ca4:	b538      	push	{r3, r4, r5, lr}
    6ca6:	4605      	mov	r5, r0
    6ca8:	f7f9 fa2a 	bl	100 <strlen>
    6cac:	4604      	mov	r4, r0
    6cae:	4601      	mov	r1, r0
    6cb0:	4628      	mov	r0, r5
    6cb2:	f7ff ff80 	bl	6bb6 <_write.part.0>
    6cb6:	2101      	movs	r1, #1
    6cb8:	4802      	ldr	r0, [pc, #8]	@ (6cc4 <puts+0x20>)
    6cba:	f7ff ff7c 	bl	6bb6 <_write.part.0>
    6cbe:	1c60      	adds	r0, r4, #1
    6cc0:	bd38      	pop	{r3, r4, r5, pc}
    6cc2:	bf00      	nop
    6cc4:	00006fae 	.word	0x00006fae

00006cc8 <putchar>:
    6cc8:	b513      	push	{r0, r1, r4, lr}
    6cca:	4604      	mov	r4, r0
    6ccc:	f88d 0007 	strb.w	r0, [sp, #7]
    6cd0:	2101      	movs	r1, #1
    6cd2:	f10d 0007 	add.w	r0, sp, #7
    6cd6:	f7ff ff6e 	bl	6bb6 <_write.part.0>
    6cda:	4620      	mov	r0, r4
    6cdc:	b002      	add	sp, #8
    6cde:	bd10      	pop	{r4, pc}
